C79E  78        SEI                             A:00 X:00 Y:00 P:24 SP:FD PPU:  0,  0 CYC:7
C79F  D8        CLD                             A:00 X:00 Y:00 P:24 SP:FD PPU:  0,  0 CYC:9
C7A0  A9 10     LDA #$10                        A:00 X:00 Y:00 P:24 SP:FD PPU:  0,  0 CYC:11
C7A2  8D 00 20  STA $2000 = 00                  A:10 X:00 Y:00 P:24 SP:FD PPU:  0,  0 CYC:13
C7A5  A2 FF     LDX #$FF                        A:10 X:00 Y:00 P:24 SP:FD PPU:  0,  0 CYC:17
C7A7  9A        TXS                             A:10 X:FF Y:00 P:A4 SP:FD PPU:  0,  0 CYC:19
C7A8  AD 02 20  LDA $2002 = 00                  A:10 X:FF Y:00 P:A4 SP:FF PPU:  0,  0 CYC:21
C7AB  29 80     AND #$80                        A:00 X:FF Y:00 P:26 SP:FF PPU:  0,  0 CYC:25
C7AD  F0 F9     BEQ $C7A8                       A:00 X:FF Y:00 P:26 SP:FF PPU:  0,  0 CYC:27
C7A8  AD 02 20  LDA $2002 = 00                  A:00 X:FF Y:00 P:26 SP:FF PPU:  0,  0 CYC:30
C7AB  29 80     AND #$80                        A:00 X:FF Y:00 P:26 SP:FF PPU:  0,  0 CYC:34
C7AD  F0 F9     BEQ $C7A8                       A:00 X:FF Y:00 P:26 SP:FF PPU:  0,  0 CYC:36
C7A8  AD 02 20  LDA $2002 = 00                  A:00 X:FF Y:00 P:26 SP:FF PPU:  0,  0 CYC:39
C7AB  29 80     AND #$80                        A:00 X:FF Y:00 P:26 SP:FF PPU:  0,  0 CYC:43
C7AD  F0 F9     BEQ $C7A8                       A:00 X:FF Y:00 P:26 SP:FF PPU:  0,  0 CYC:45
C7A8  AD 02 20  LDA $2002 = 00                  A:00 X:FF Y:00 P:26 SP:FF PPU:  0,  0 CYC:48
C7AB  29 80     AND #$80                        A:00 X:FF Y:00 P:26 SP:FF PPU:  0,  0 CYC:52
C7AD  F0 F9     BEQ $C7A8                       A:00 X:FF Y:00 P:26 SP:FF PPU:  0,  0 CYC:54
C7A8  AD 02 20  LDA $2002 = 00                  A:00 X:FF Y:00 P:26 SP:FF PPU:  0,  0 CYC:57
C7AB  29 80     AND #$80                        A:00 X:FF Y:00 P:26 SP:FF PPU:  0,  0 CYC:61
C7AD  F0 F9     BEQ $C7A8                       A:00 X:FF Y:00 P:26 SP:FF PPU:  0,  0 CYC:63
C7A8  AD 02 20  LDA $2002 = 00                  A:00 X:FF Y:00 P:26 SP:FF PPU:  0,  0 CYC:66
C7AB  29 80     AND #$80                        A:00 X:FF Y:00 P:26 SP:FF PPU:  0,  0 CYC:70
C7AD  F0 F9     BEQ $C7A8                       A:00 X:FF Y:00 P:26 SP:FF PPU:  0,  0 CYC:72
C7A8  AD 02 20  LDA $2002 = 00                  A:00 X:FF Y:00 P:26 SP:FF PPU:  0,  0 CYC:75
C7AB  29 80     AND #$80                        A:00 X:FF Y:00 P:26 SP:FF PPU:  0,  0 CYC:79
C7AD  F0 F9     BEQ $C7A8                       A:00 X:FF Y:00 P:26 SP:FF PPU:  0,  0 CYC:81
C7A8  AD 02 20  LDA $2002 = 00                  A:00 X:FF Y:00 P:26 SP:FF PPU:  0,  0 CYC:84
C7AB  29 80     AND #$80                        A:00 X:FF Y:00 P:26 SP:FF PPU:  0,  0 CYC:88
C7AD  F0 F9     BEQ $C7A8                       A:00 X:FF Y:00 P:26 SP:FF PPU:  0,  0 CYC:90
C7A8  AD 02 20  LDA $2002 = 00                  A:00 X:FF Y:00 P:26 SP:FF PPU:  0,  0 CYC:93
C7AB  29 80     AND #$80                        A:00 X:FF Y:00 P:26 SP:FF PPU:  0,  0 CYC:97
C7AD  F0 F9     BEQ $C7A8                       A:00 X:FF Y:00 P:26 SP:FF PPU:  0,  0 CYC:99
C7A8  AD 02 20  LDA $2002 = 00                  A:00 X:FF Y:00 P:26 SP:FF PPU:  0,  0 CYC:102
C7AB  29 80     AND #$80                        A:00 X:FF Y:00 P:26 SP:FF PPU:  0,  0 CYC:106
C7AD  F0 F9     BEQ $C7A8                       A:00 X:FF Y:00 P:26 SP:FF PPU:  0,  0 CYC:108
C7A8  AD 02 20  LDA $2002 = 00                  A:00 X:FF Y:00 P:26 SP:FF PPU:  0,  0 CYC:111
C7AB  29 80     AND #$80                        A:00 X:FF Y:00 P:26 SP:FF PPU:  0,  0 CYC:115
C7AD  F0 F9     BEQ $C7A8                       A:00 X:FF Y:00 P:26 SP:FF PPU:  0,  0 CYC:117
C7A8  AD 02 20  LDA $2002 = 00                  A:00 X:FF Y:00 P:26 SP:FF PPU:  0,  0 CYC:120
C7AB  29 80     AND #$80                        A:00 X:FF Y:00 P:26 SP:FF PPU:  0,  0 CYC:124
C7AD  F0 F9     BEQ $C7A8                       A:00 X:FF Y:00 P:26 SP:FF PPU:  0,  0 CYC:126
C7A8  AD 02 20  LDA $2002 = 00                  A:00 X:FF Y:00 P:26 SP:FF PPU:  0,  0 CYC:129
C7AB  29 80     AND #$80                        A:00 X:FF Y:00 P:26 SP:FF PPU:  0,  0 CYC:133
C7AD  F0 F9     BEQ $C7A8                       A:00 X:FF Y:00 P:26 SP:FF PPU:  0,  0 CYC:135
C7A8  AD 02 20  LDA $2002 = 00                  A:00 X:FF Y:00 P:26 SP:FF PPU:  0,  0 CYC:138
C7AB  29 80     AND #$80                        A:00 X:FF Y:00 P:26 SP:FF PPU:  0,  0 CYC:142
C7AD  F0 F9     BEQ $C7A8                       A:00 X:FF Y:00 P:26 SP:FF PPU:  0,  0 CYC:144
C7A8  AD 02 20  LDA $2002 = 00                  A:00 X:FF Y:00 P:26 SP:FF PPU:  0,  0 CYC:147
C7AB  29 80     AND #$80                        A:00 X:FF Y:00 P:26 SP:FF PPU:  0,  0 CYC:151
C7AD  F0 F9     BEQ $C7A8                       A:00 X:FF Y:00 P:26 SP:FF PPU:  0,  0 CYC:153
C7A8  AD 02 20  LDA $2002 = 00                  A:00 X:FF Y:00 P:26 SP:FF PPU:  0,  0 CYC:156
C7AB  29 80     AND #$80                        A:00 X:FF Y:00 P:26 SP:FF PPU:  0,  0 CYC:160
C7AD  F0 F9     BEQ $C7A8                       A:00 X:FF Y:00 P:26 SP:FF PPU:  0,  0 CYC:162
C7A8  AD 02 20  LDA $2002 = 00                  A:00 X:FF Y:00 P:26 SP:FF PPU:  0,  0 CYC:165
C7AB  29 80     AND #$80                        A:00 X:FF Y:00 P:26 SP:FF PPU:  0,  0 CYC:169
C7AD  F0 F9     BEQ $C7A8                       A:00 X:FF Y:00 P:26 SP:FF PPU:  0,  0 CYC:171
C7A8  AD 02 20  LDA $2002 = 00                  A:00 X:FF Y:00 P:26 SP:FF PPU:  0,  0 CYC:174
C7AB  29 80     AND #$80                        A:00 X:FF Y:00 P:26 SP:FF PPU:  0,  0 CYC:178
C7AD  F0 F9     BEQ $C7A8                       A:00 X:FF Y:00 P:26 SP:FF PPU:  0,  0 CYC:180
C7A8  AD 02 20  LDA $2002 = 00                  A:00 X:FF Y:00 P:26 SP:FF PPU:  0,  0 CYC:183
C7AB  29 80     AND #$80                        A:00 X:FF Y:00 P:26 SP:FF PPU:  0,  0 CYC:187
C7AD  F0 F9     BEQ $C7A8                       A:00 X:FF Y:00 P:26 SP:FF PPU:  0,  0 CYC:189
C7A8  AD 02 20  LDA $2002 = 00                  A:00 X:FF Y:00 P:26 SP:FF PPU:  0,  0 CYC:192
C7AB  29 80     AND #$80                        A:00 X:FF Y:00 P:26 SP:FF PPU:  0,  0 CYC:196
C7AD  F0 F9     BEQ $C7A8                       A:00 X:FF Y:00 P:26 SP:FF PPU:  0,  0 CYC:198
C7A8  AD 02 20  LDA $2002 = 00                  A:00 X:FF Y:00 P:26 SP:FF PPU:  0,  0 CYC:201
C7AB  29 80     AND #$80                        A:00 X:FF Y:00 P:26 SP:FF PPU:  0,  0 CYC:205
C7AD  F0 F9     BEQ $C7A8                       A:00 X:FF Y:00 P:26 SP:FF PPU:  0,  0 CYC:207
C7A8  AD 02 20  LDA $2002 = 00                  A:00 X:FF Y:00 P:26 SP:FF PPU:  0,  0 CYC:210
C7AB  29 80     AND #$80                        A:00 X:FF Y:00 P:26 SP:FF PPU:  0,  0 CYC:214
C7AD  F0 F9     BEQ $C7A8                       A:00 X:FF Y:00 P:26 SP:FF PPU:  0,  0 CYC:216
C7A8  AD 02 20  LDA $2002 = 00                  A:00 X:FF Y:00 P:26 SP:FF PPU:  0,  0 CYC:219
C7AB  29 80     AND #$80                        A:00 X:FF Y:00 P:26 SP:FF PPU:  0,  0 CYC:223
C7AD  F0 F9     BEQ $C7A8                       A:00 X:FF Y:00 P:26 SP:FF PPU:  0,  0 CYC:225
C7A8  AD 02 20  LDA $2002 = 00                  A:00 X:FF Y:00 P:26 SP:FF PPU:  0,  0 CYC:228
C7AB  29 80     AND #$80                        A:00 X:FF Y:00 P:26 SP:FF PPU:  0,  0 CYC:232
C7AD  F0 F9     BEQ $C7A8                       A:00 X:FF Y:00 P:26 SP:FF PPU:  0,  0 CYC:234
C7A8  AD 02 20  LDA $2002 = 00                  A:00 X:FF Y:00 P:26 SP:FF PPU:  0,  0 CYC:237
C7AB  29 80     AND #$80                        A:00 X:FF Y:00 P:26 SP:FF PPU:  0,  0 CYC:241
C7AD  F0 F9     BEQ $C7A8                       A:00 X:FF Y:00 P:26 SP:FF PPU:  0,  0 CYC:243
C7A8  AD 02 20  LDA $2002 = 00                  A:00 X:FF Y:00 P:26 SP:FF PPU:  0,  0 CYC:246
C7AB  29 80     AND #$80                        A:00 X:FF Y:00 P:26 SP:FF PPU:  0,  0 CYC:250
C7AD  F0 F9     BEQ $C7A8                       A:00 X:FF Y:00 P:26 SP:FF PPU:  0,  0 CYC:252
C7A8  AD 02 20  LDA $2002 = 00                  A:00 X:FF Y:00 P:26 SP:FF PPU:  0,  0 CYC:255
C7AB  29 80     AND #$80                        A:00 X:FF Y:00 P:26 SP:FF PPU:  0,  0 CYC:259
C7AD  F0 F9     BEQ $C7A8                       A:00 X:FF Y:00 P:26 SP:FF PPU:  0,  0 CYC:261
C7A8  AD 02 20  LDA $2002 = 00                  A:00 X:FF Y:00 P:26 SP:FF PPU:  0,  0 CYC:264
C7AB  29 80     AND #$80                        A:00 X:FF Y:00 P:26 SP:FF PPU:  0,  0 CYC:268
C7AD  F0 F9     BEQ $C7A8                       A:00 X:FF Y:00 P:26 SP:FF PPU:  0,  0 CYC:270
C7A8  AD 02 20  LDA $2002 = 00                  A:00 X:FF Y:00 P:26 SP:FF PPU:  0,  0 CYC:273
C7AB  29 80     AND #$80                        A:00 X:FF Y:00 P:26 SP:FF PPU:  0,  0 CYC:277
C7AD  F0 F9     BEQ $C7A8                       A:00 X:FF Y:00 P:26 SP:FF PPU:  0,  0 CYC:279
C7A8  AD 02 20  LDA $2002 = 00                  A:00 X:FF Y:00 P:26 SP:FF PPU:  0,  0 CYC:282
C7AB  29 80     AND #$80                        A:00 X:FF Y:00 P:26 SP:FF PPU:  0,  0 CYC:286
C7AD  F0 F9     BEQ $C7A8                       A:00 X:FF Y:00 P:26 SP:FF PPU:  0,  0 CYC:288
C7A8  AD 02 20  LDA $2002 = 00                  A:00 X:FF Y:00 P:26 SP:FF PPU:  0,  0 CYC:291
C7AB  29 80     AND #$80                        A:00 X:FF Y:00 P:26 SP:FF PPU:  0,  0 CYC:295
C7AD  F0 F9     BEQ $C7A8                       A:00 X:FF Y:00 P:26 SP:FF PPU:  0,  0 CYC:297
C7A8  AD 02 20  LDA $2002 = 00                  A:00 X:FF Y:00 P:26 SP:FF PPU:  0,  0 CYC:300
C7AB  29 80     AND #$80                        A:00 X:FF Y:00 P:26 SP:FF PPU:  0,  0 CYC:304
C7AD  F0 F9     BEQ $C7A8                       A:00 X:FF Y:00 P:26 SP:FF PPU:  0,  0 CYC:306
C7A8  AD 02 20  LDA $2002 = 00                  A:00 X:FF Y:00 P:26 SP:FF PPU:  0,  0 CYC:309
C7AB  29 80     AND #$80                        A:00 X:FF Y:00 P:26 SP:FF PPU:  0,  0 CYC:313
C7AD  F0 F9     BEQ $C7A8                       A:00 X:FF Y:00 P:26 SP:FF PPU:  0,  0 CYC:315
C7A8  AD 02 20  LDA $2002 = 00                  A:00 X:FF Y:00 P:26 SP:FF PPU:  0,  0 CYC:318
C7AB  29 80     AND #$80                        A:00 X:FF Y:00 P:26 SP:FF PPU:  0,  0 CYC:322
C7AD  F0 F9     BEQ $C7A8                       A:00 X:FF Y:00 P:26 SP:FF PPU:  0,  0 CYC:324
C7A8  AD 02 20  LDA $2002 = 00                  A:00 X:FF Y:00 P:26 SP:FF PPU:  0,  0 CYC:327
C7AB  29 80     AND #$80                        A:00 X:FF Y:00 P:26 SP:FF PPU:  0,  0 CYC:331
C7AD  F0 F9     BEQ $C7A8                       A:00 X:FF Y:00 P:26 SP:FF PPU:  0,  0 CYC:333
C7A8  AD 02 20  LDA $2002 = 00                  A:00 X:FF Y:00 P:26 SP:FF PPU:  0,  0 CYC:336
C7AB  29 80     AND #$80                        A:00 X:FF Y:00 P:26 SP:FF PPU:  0,  0 CYC:340
C7AD  F0 F9     BEQ $C7A8                       A:00 X:FF Y:00 P:26 SP:FF PPU:  0,  0 CYC:342
C7A8  AD 02 20  LDA $2002 = 00                  A:00 X:FF Y:00 P:26 SP:FF PPU:  0,  0 CYC:345
C7AB  29 80     AND #$80                        A:00 X:FF Y:00 P:26 SP:FF PPU:  0,  0 CYC:349
C7AD  F0 F9     BEQ $C7A8                       A:00 X:FF Y:00 P:26 SP:FF PPU:  0,  0 CYC:351
C7A8  AD 02 20  LDA $2002 = 00                  A:00 X:FF Y:00 P:26 SP:FF PPU:  0,  0 CYC:354
C7AB  29 80     AND #$80                        A:00 X:FF Y:00 P:26 SP:FF PPU:  0,  0 CYC:358
C7AD  F0 F9     BEQ $C7A8                       A:00 X:FF Y:00 P:26 SP:FF PPU:  0,  0 CYC:360
C7A8  AD 02 20  LDA $2002 = 00                  A:00 X:FF Y:00 P:26 SP:FF PPU:  0,  0 CYC:363
C7AB  29 80     AND #$80                        A:00 X:FF Y:00 P:26 SP:FF PPU:  0,  0 CYC:367
C7AD  F0 F9     BEQ $C7A8                       A:00 X:FF Y:00 P:26 SP:FF PPU:  0,  0 CYC:369
C7A8  AD 02 20  LDA $2002 = 00                  A:00 X:FF Y:00 P:26 SP:FF PPU:  0,  0 CYC:372
C7AB  29 80     AND #$80                        A:00 X:FF Y:00 P:26 SP:FF PPU:  0,  0 CYC:376
C7AD  F0 F9     BEQ $C7A8                       A:00 X:FF Y:00 P:26 SP:FF PPU:  0,  0 CYC:378
C7A8  AD 02 20  LDA $2002 = 00                  A:00 X:FF Y:00 P:26 SP:FF PPU:  0,  0 CYC:381
C7AB  29 80     AND #$80                        A:00 X:FF Y:00 P:26 SP:FF PPU:  0,  0 CYC:385
C7AD  F0 F9     BEQ $C7A8                       A:00 X:FF Y:00 P:26 SP:FF PPU:  0,  0 CYC:387
C7A8  AD 02 20  LDA $2002 = 00                  A:00 X:FF Y:00 P:26 SP:FF PPU:  0,  0 CYC:390
C7AB  29 80     AND #$80                        A:00 X:FF Y:00 P:26 SP:FF PPU:  0,  0 CYC:394
C7AD  F0 F9     BEQ $C7A8                       A:00 X:FF Y:00 P:26 SP:FF PPU:  0,  0 CYC:396
C7A8  AD 02 20  LDA $2002 = 00                  A:00 X:FF Y:00 P:26 SP:FF PPU:  0,  0 CYC:399
C7AB  29 80     AND #$80                        A:00 X:FF Y:00 P:26 SP:FF PPU:  0,  0 CYC:403
C7AD  F0 F9     BEQ $C7A8                       A:00 X:FF Y:00 P:26 SP:FF PPU:  0,  0 CYC:405
C7A8  AD 02 20  LDA $2002 = 00                  A:00 X:FF Y:00 P:26 SP:FF PPU:  0,  0 CYC:408
C7AB  29 80     AND #$80                        A:00 X:FF Y:00 P:26 SP:FF PPU:  0,  0 CYC:412
C7AD  F0 F9     BEQ $C7A8                       A:00 X:FF Y:00 P:26 SP:FF PPU:  0,  0 CYC:414
C7A8  AD 02 20  LDA $2002 = 00                  A:00 X:FF Y:00 P:26 SP:FF PPU:  0,  0 CYC:417
C7AB  29 80     AND #$80                        A:00 X:FF Y:00 P:26 SP:FF PPU:  0,  0 CYC:421
C7AD  F0 F9     BEQ $C7A8                       A:00 X:FF Y:00 P:26 SP:FF PPU:  0,  0 CYC:423
C7A8  AD 02 20  LDA $2002 = 00                  A:00 X:FF Y:00 P:26 SP:FF PPU:  0,  0 CYC:426
C7AB  29 80     AND #$80                        A:00 X:FF Y:00 P:26 SP:FF PPU:  0,  0 CYC:430
C7AD  F0 F9     BEQ $C7A8                       A:00 X:FF Y:00 P:26 SP:FF PPU:  0,  0 CYC:432
C7A8  AD 02 20  LDA $2002 = 00                  A:00 X:FF Y:00 P:26 SP:FF PPU:  0,  0 CYC:435
C7AB  29 80     AND #$80                        A:00 X:FF Y:00 P:26 SP:FF PPU:  0,  0 CYC:439
C7AD  F0 F9     BEQ $C7A8                       A:00 X:FF Y:00 P:26 SP:FF PPU:  0,  0 CYC:441
C7A8  AD 02 20  LDA $2002 = 00                  A:00 X:FF Y:00 P:26 SP:FF PPU:  0,  0 CYC:444
C7AB  29 80     AND #$80                        A:00 X:FF Y:00 P:26 SP:FF PPU:  0,  0 CYC:448
C7AD  F0 F9     BEQ $C7A8                       A:00 X:FF Y:00 P:26 SP:FF PPU:  0,  0 CYC:450
C7A8  AD 02 20  LDA $2002 = 00                  A:00 X:FF Y:00 P:26 SP:FF PPU:  0,  0 CYC:453
C7AB  29 80     AND #$80                        A:00 X:FF Y:00 P:26 SP:FF PPU:  0,  0 CYC:457
C7AD  F0 F9     BEQ $C7A8                       A:00 X:FF Y:00 P:26 SP:FF PPU:  0,  0 CYC:459
C7A8  AD 02 20  LDA $2002 = 00                  A:00 X:FF Y:00 P:26 SP:FF PPU:  0,  0 CYC:462
C7AB  29 80     AND #$80                        A:00 X:FF Y:00 P:26 SP:FF PPU:  0,  0 CYC:466
C7AD  F0 F9     BEQ $C7A8                       A:00 X:FF Y:00 P:26 SP:FF PPU:  0,  0 CYC:468
C7A8  AD 02 20  LDA $2002 = 00                  A:00 X:FF Y:00 P:26 SP:FF PPU:  0,  0 CYC:471
C7AB  29 80     AND #$80                        A:00 X:FF Y:00 P:26 SP:FF PPU:  0,  0 CYC:475
C7AD  F0 F9     BEQ $C7A8                       A:00 X:FF Y:00 P:26 SP:FF PPU:  0,  0 CYC:477
C7A8  AD 02 20  LDA $2002 = 00                  A:00 X:FF Y:00 P:26 SP:FF PPU:  0,  0 CYC:480
C7AB  29 80     AND #$80                        A:00 X:FF Y:00 P:26 SP:FF PPU:  0,  0 CYC:484
C7AD  F0 F9     BEQ $C7A8                       A:00 X:FF Y:00 P:26 SP:FF PPU:  0,  0 CYC:486
C7A8  AD 02 20  LDA $2002 = 00                  A:00 X:FF Y:00 P:26 SP:FF PPU:  0,  0 CYC:489
C7AB  29 80     AND #$80                        A:00 X:FF Y:00 P:26 SP:FF PPU:  0,  0 CYC:493
C7AD  F0 F9     BEQ $C7A8                       A:00 X:FF Y:00 P:26 SP:FF PPU:  0,  0 CYC:495
C7A8  AD 02 20  LDA $2002 = 00                  A:00 X:FF Y:00 P:26 SP:FF PPU:  0,  0 CYC:498
C7AB  29 80     AND #$80                        A:00 X:FF Y:00 P:26 SP:FF PPU:  0,  0 CYC:502
C7AD  F0 F9     BEQ $C7A8                       A:00 X:FF Y:00 P:26 SP:FF PPU:  0,  0 CYC:504
C7A8  AD 02 20  LDA $2002 = 00                  A:00 X:FF Y:00 P:26 SP:FF PPU:  0,  0 CYC:507
C7AB  29 80     AND #$80                        A:00 X:FF Y:00 P:26 SP:FF PPU:  0,  0 CYC:511
C7AD  F0 F9     BEQ $C7A8                       A:00 X:FF Y:00 P:26 SP:FF PPU:  0,  0 CYC:513
C7A8  AD 02 20  LDA $2002 = 00                  A:00 X:FF Y:00 P:26 SP:FF PPU:  0,  0 CYC:516
C7AB  29 80     AND #$80                        A:00 X:FF Y:00 P:26 SP:FF PPU:  0,  0 CYC:520
C7AD  F0 F9     BEQ $C7A8                       A:00 X:FF Y:00 P:26 SP:FF PPU:  0,  0 CYC:522
C7A8  AD 02 20  LDA $2002 = 00                  A:00 X:FF Y:00 P:26 SP:FF PPU:  0,  0 CYC:525
C7AB  29 80     AND #$80                        A:00 X:FF Y:00 P:26 SP:FF PPU:  0,  0 CYC:529
C7AD  F0 F9     BEQ $C7A8                       A:00 X:FF Y:00 P:26 SP:FF PPU:  0,  0 CYC:531
C7A8  AD 02 20  LDA $2002 = 00                  A:00 X:FF Y:00 P:26 SP:FF PPU:  0,  0 CYC:534
C7AB  29 80     AND #$80                        A:00 X:FF Y:00 P:26 SP:FF PPU:  0,  0 CYC:538
C7AD  F0 F9     BEQ $C7A8                       A:00 X:FF Y:00 P:26 SP:FF PPU:  0,  0 CYC:540
C7A8  AD 02 20  LDA $2002 = 00                  A:00 X:FF Y:00 P:26 SP:FF PPU:  0,  0 CYC:543
C7AB  29 80     AND #$80                        A:00 X:FF Y:00 P:26 SP:FF PPU:  0,  0 CYC:547
C7AD  F0 F9     BEQ $C7A8                       A:00 X:FF Y:00 P:26 SP:FF PPU:  0,  0 CYC:549
C7A8  AD 02 20  LDA $2002 = 00                  A:00 X:FF Y:00 P:26 SP:FF PPU:  0,  0 CYC:552
C7AB  29 80     AND #$80                        A:00 X:FF Y:00 P:26 SP:FF PPU:  0,  0 CYC:556
C7AD  F0 F9     BEQ $C7A8                       A:00 X:FF Y:00 P:26 SP:FF PPU:  0,  0 CYC:558
C7A8  AD 02 20  LDA $2002 = 00                  A:00 X:FF Y:00 P:26 SP:FF PPU:  0,  0 CYC:561
C7AB  29 80     AND #$80                        A:00 X:FF Y:00 P:26 SP:FF PPU:  0,  0 CYC:565
C7AD  F0 F9     BEQ $C7A8                       A:00 X:FF Y:00 P:26 SP:FF PPU:  0,  0 CYC:567
C7A8  AD 02 20  LDA $2002 = 00                  A:00 X:FF Y:00 P:26 SP:FF PPU:  0,  0 CYC:570
C7AB  29 80     AND #$80                        A:00 X:FF Y:00 P:26 SP:FF PPU:  0,  0 CYC:574
C7AD  F0 F9     BEQ $C7A8                       A:00 X:FF Y:00 P:26 SP:FF PPU:  0,  0 CYC:576
C7A8  AD 02 20  LDA $2002 = 00                  A:00 X:FF Y:00 P:26 SP:FF PPU:  0,  0 CYC:579
C7AB  29 80     AND #$80                        A:00 X:FF Y:00 P:26 SP:FF PPU:  0,  0 CYC:583
C7AD  F0 F9     BEQ $C7A8                       A:00 X:FF Y:00 P:26 SP:FF PPU:  0,  0 CYC:585
C7A8  AD 02 20  LDA $2002 = 00                  A:00 X:FF Y:00 P:26 SP:FF PPU:  0,  0 CYC:588
C7AB  29 80     AND #$80                        A:00 X:FF Y:00 P:26 SP:FF PPU:  0,  0 CYC:592
C7AD  F0 F9     BEQ $C7A8                       A:00 X:FF Y:00 P:26 SP:FF PPU:  0,  0 CYC:594
C7A8  AD 02 20  LDA $2002 = 00                  A:00 X:FF Y:00 P:26 SP:FF PPU:  0,  0 CYC:597
C7AB  29 80     AND #$80                        A:00 X:FF Y:00 P:26 SP:FF PPU:  0,  0 CYC:601
C7AD  F0 F9     BEQ $C7A8                       A:00 X:FF Y:00 P:26 SP:FF PPU:  0,  0 CYC:603
C7A8  AD 02 20  LDA $2002 = 00                  A:00 X:FF Y:00 P:26 SP:FF PPU:  0,  0 CYC:606
C7AB  29 80     AND #$80                        A:00 X:FF Y:00 P:26 SP:FF PPU:  0,  0 CYC:610
C7AD  F0 F9     BEQ $C7A8                       A:00 X:FF Y:00 P:26 SP:FF PPU:  0,  0 CYC:612
C7A8  AD 02 20  LDA $2002 = 00                  A:00 X:FF Y:00 P:26 SP:FF PPU:  0,  0 CYC:615
C7AB  29 80     AND #$80                        A:00 X:FF Y:00 P:26 SP:FF PPU:  0,  0 CYC:619
C7AD  F0 F9     BEQ $C7A8                       A:00 X:FF Y:00 P:26 SP:FF PPU:  0,  0 CYC:621
C7A8  AD 02 20  LDA $2002 = 00                  A:00 X:FF Y:00 P:26 SP:FF PPU:  0,  0 CYC:624
C7AB  29 80     AND #$80                        A:00 X:FF Y:00 P:26 SP:FF PPU:  0,  0 CYC:628
C7AD  F0 F9     BEQ $C7A8                       A:00 X:FF Y:00 P:26 SP:FF PPU:  0,  0 CYC:630
C7A8  AD 02 20  LDA $2002 = 00                  A:00 X:FF Y:00 P:26 SP:FF PPU:  0,  0 CYC:633
C7AB  29 80     AND #$80                        A:00 X:FF Y:00 P:26 SP:FF PPU:  0,  0 CYC:637
C7AD  F0 F9     BEQ $C7A8                       A:00 X:FF Y:00 P:26 SP:FF PPU:  0,  0 CYC:639
C7A8  AD 02 20  LDA $2002 = 00                  A:00 X:FF Y:00 P:26 SP:FF PPU:  0,  0 CYC:642
C7AB  29 80     AND #$80                        A:00 X:FF Y:00 P:26 SP:FF PPU:  0,  0 CYC:646
C7AD  F0 F9     BEQ $C7A8                       A:00 X:FF Y:00 P:26 SP:FF PPU:  0,  0 CYC:648
C7A8  AD 02 20  LDA $2002 = 00                  A:00 X:FF Y:00 P:26 SP:FF PPU:  0,  0 CYC:651
C7AB  29 80     AND #$80                        A:00 X:FF Y:00 P:26 SP:FF PPU:  0,  0 CYC:655
C7AD  F0 F9     BEQ $C7A8                       A:00 X:FF Y:00 P:26 SP:FF PPU:  0,  0 CYC:657
C7A8  AD 02 20  LDA $2002 = 00                  A:00 X:FF Y:00 P:26 SP:FF PPU:  0,  0 CYC:660
C7AB  29 80     AND #$80                        A:00 X:FF Y:00 P:26 SP:FF PPU:  0,  0 CYC:664
C7AD  F0 F9     BEQ $C7A8                       A:00 X:FF Y:00 P:26 SP:FF PPU:  0,  0 CYC:666
C7A8  AD 02 20  LDA $2002 = 00                  A:00 X:FF Y:00 P:26 SP:FF PPU:  0,  0 CYC:669
C7AB  29 80     AND #$80                        A:00 X:FF Y:00 P:26 SP:FF PPU:  0,  0 CYC:673
C7AD  F0 F9     BEQ $C7A8                       A:00 X:FF Y:00 P:26 SP:FF PPU:  0,  0 CYC:675
C7A8  AD 02 20  LDA $2002 = 00                  A:00 X:FF Y:00 P:26 SP:FF PPU:  0,  0 CYC:678
C7AB  29 80     AND #$80                        A:00 X:FF Y:00 P:26 SP:FF PPU:  0,  0 CYC:682
C7AD  F0 F9     BEQ $C7A8                       A:00 X:FF Y:00 P:26 SP:FF PPU:  0,  0 CYC:684
C7A8  AD 02 20  LDA $2002 = 00                  A:00 X:FF Y:00 P:26 SP:FF PPU:  0,  0 CYC:687
C7AB  29 80     AND #$80                        A:00 X:FF Y:00 P:26 SP:FF PPU:  0,  0 CYC:691
C7AD  F0 F9     BEQ $C7A8                       A:00 X:FF Y:00 P:26 SP:FF PPU:  0,  0 CYC:693
C7A8  AD 02 20  LDA $2002 = 00                  A:00 X:FF Y:00 P:26 SP:FF PPU:  0,  0 CYC:696
C7AB  29 80     AND #$80                        A:00 X:FF Y:00 P:26 SP:FF PPU:  0,  0 CYC:700
C7AD  F0 F9     BEQ $C7A8                       A:00 X:FF Y:00 P:26 SP:FF PPU:  0,  0 CYC:702
C7A8  AD 02 20  LDA $2002 = 00                  A:00 X:FF Y:00 P:26 SP:FF PPU:  0,  0 CYC:705
C7AB  29 80     AND #$80                        A:00 X:FF Y:00 P:26 SP:FF PPU:  0,  0 CYC:709
C7AD  F0 F9     BEQ $C7A8                       A:00 X:FF Y:00 P:26 SP:FF PPU:  0,  0 CYC:711
C7A8  AD 02 20  LDA $2002 = 00                  A:00 X:FF Y:00 P:26 SP:FF PPU:  0,  0 CYC:714
C7AB  29 80     AND #$80                        A:00 X:FF Y:00 P:26 SP:FF PPU:  0,  0 CYC:718
C7AD  F0 F9     BEQ $C7A8                       A:00 X:FF Y:00 P:26 SP:FF PPU:  0,  0 CYC:720
C7A8  AD 02 20  LDA $2002 = 00                  A:00 X:FF Y:00 P:26 SP:FF PPU:  0,  0 CYC:723
C7AB  29 80     AND #$80                        A:00 X:FF Y:00 P:26 SP:FF PPU:  0,  0 CYC:727
C7AD  F0 F9     BEQ $C7A8                       A:00 X:FF Y:00 P:26 SP:FF PPU:  0,  0 CYC:729
C7A8  AD 02 20  LDA $2002 = 00                  A:00 X:FF Y:00 P:26 SP:FF PPU:  0,  0 CYC:732
C7AB  29 80     AND #$80                        A:00 X:FF Y:00 P:26 SP:FF PPU:  0,  0 CYC:736
C7AD  F0 F9     BEQ $C7A8                       A:00 X:FF Y:00 P:26 SP:FF PPU:  0,  0 CYC:738
C7A8  AD 02 20  LDA $2002 = 00                  A:00 X:FF Y:00 P:26 SP:FF PPU:  0,  0 CYC:741
C7AB  29 80     AND #$80                        A:00 X:FF Y:00 P:26 SP:FF PPU:  0,  0 CYC:745
C7AD  F0 F9     BEQ $C7A8                       A:00 X:FF Y:00 P:26 SP:FF PPU:  0,  0 CYC:747
C7A8  AD 02 20  LDA $2002 = 00                  A:00 X:FF Y:00 P:26 SP:FF PPU:  0,  0 CYC:750
C7AB  29 80     AND #$80                        A:00 X:FF Y:00 P:26 SP:FF PPU:  0,  0 CYC:754
C7AD  F0 F9     BEQ $C7A8                       A:00 X:FF Y:00 P:26 SP:FF PPU:  0,  0 CYC:756
C7A8  AD 02 20  LDA $2002 = 00                  A:00 X:FF Y:00 P:26 SP:FF PPU:  0,  0 CYC:759
C7AB  29 80     AND #$80                        A:00 X:FF Y:00 P:26 SP:FF PPU:  0,  0 CYC:763
C7AD  F0 F9     BEQ $C7A8                       A:00 X:FF Y:00 P:26 SP:FF PPU:  0,  0 CYC:765
C7A8  AD 02 20  LDA $2002 = 00                  A:00 X:FF Y:00 P:26 SP:FF PPU:  0,  0 CYC:768
C7AB  29 80     AND #$80                        A:00 X:FF Y:00 P:26 SP:FF PPU:  0,  0 CYC:772
C7AD  F0 F9     BEQ $C7A8                       A:00 X:FF Y:00 P:26 SP:FF PPU:  0,  0 CYC:774
C7A8  AD 02 20  LDA $2002 = 00                  A:00 X:FF Y:00 P:26 SP:FF PPU:  0,  0 CYC:777
C7AB  29 80     AND #$80                        A:00 X:FF Y:00 P:26 SP:FF PPU:  0,  0 CYC:781
C7AD  F0 F9     BEQ $C7A8                       A:00 X:FF Y:00 P:26 SP:FF PPU:  0,  0 CYC:783
C7A8  AD 02 20  LDA $2002 = 00                  A:00 X:FF Y:00 P:26 SP:FF PPU:  0,  0 CYC:786
C7AB  29 80     AND #$80                        A:00 X:FF Y:00 P:26 SP:FF PPU:  0,  0 CYC:790
C7AD  F0 F9     BEQ $C7A8                       A:00 X:FF Y:00 P:26 SP:FF PPU:  0,  0 CYC:792
C7A8  AD 02 20  LDA $2002 = 00                  A:00 X:FF Y:00 P:26 SP:FF PPU:  0,  0 CYC:795
C7AB  29 80     AND #$80                        A:00 X:FF Y:00 P:26 SP:FF PPU:  0,  0 CYC:799
C7AD  F0 F9     BEQ $C7A8                       A:00 X:FF Y:00 P:26 SP:FF PPU:  0,  0 CYC:801
C7A8  AD 02 20  LDA $2002 = 00                  A:00 X:FF Y:00 P:26 SP:FF PPU:  0,  0 CYC:804
C7AB  29 80     AND #$80                        A:00 X:FF Y:00 P:26 SP:FF PPU:  0,  0 CYC:808
C7AD  F0 F9     BEQ $C7A8                       A:00 X:FF Y:00 P:26 SP:FF PPU:  0,  0 CYC:810
C7A8  AD 02 20  LDA $2002 = 00                  A:00 X:FF Y:00 P:26 SP:FF PPU:  0,  0 CYC:813
C7AB  29 80     AND #$80                        A:00 X:FF Y:00 P:26 SP:FF PPU:  0,  0 CYC:817
C7AD  F0 F9     BEQ $C7A8                       A:00 X:FF Y:00 P:26 SP:FF PPU:  0,  0 CYC:819
C7A8  AD 02 20  LDA $2002 = 00                  A:00 X:FF Y:00 P:26 SP:FF PPU:  0,  0 CYC:822
C7AB  29 80     AND #$80                        A:00 X:FF Y:00 P:26 SP:FF PPU:  0,  0 CYC:826
C7AD  F0 F9     BEQ $C7A8                       A:00 X:FF Y:00 P:26 SP:FF PPU:  0,  0 CYC:828
C7A8  AD 02 20  LDA $2002 = 00                  A:00 X:FF Y:00 P:26 SP:FF PPU:  0,  0 CYC:831
C7AB  29 80     AND #$80                        A:00 X:FF Y:00 P:26 SP:FF PPU:  0,  0 CYC:835
C7AD  F0 F9     BEQ $C7A8                       A:00 X:FF Y:00 P:26 SP:FF PPU:  0,  0 CYC:837
C7A8  AD 02 20  LDA $2002 = 00                  A:00 X:FF Y:00 P:26 SP:FF PPU:  0,  0 CYC:840
C7AB  29 80     AND #$80                        A:00 X:FF Y:00 P:26 SP:FF PPU:  0,  0 CYC:844
C7AD  F0 F9     BEQ $C7A8                       A:00 X:FF Y:00 P:26 SP:FF PPU:  0,  0 CYC:846
C7A8  AD 02 20  LDA $2002 = 00                  A:00 X:FF Y:00 P:26 SP:FF PPU:  0,  0 CYC:849
C7AB  29 80     AND #$80                        A:00 X:FF Y:00 P:26 SP:FF PPU:  0,  0 CYC:853
C7AD  F0 F9     BEQ $C7A8                       A:00 X:FF Y:00 P:26 SP:FF PPU:  0,  0 CYC:855
C7A8  AD 02 20  LDA $2002 = 00                  A:00 X:FF Y:00 P:26 SP:FF PPU:  0,  0 CYC:858
C7AB  29 80     AND #$80                        A:00 X:FF Y:00 P:26 SP:FF PPU:  0,  0 CYC:862
C7AD  F0 F9     BEQ $C7A8                       A:00 X:FF Y:00 P:26 SP:FF PPU:  0,  0 CYC:864
C7A8  AD 02 20  LDA $2002 = 00                  A:00 X:FF Y:00 P:26 SP:FF PPU:  0,  0 CYC:867
C7AB  29 80     AND #$80                        A:00 X:FF Y:00 P:26 SP:FF PPU:  0,  0 CYC:871
C7AD  F0 F9     BEQ $C7A8                       A:00 X:FF Y:00 P:26 SP:FF PPU:  0,  0 CYC:873
C7A8  AD 02 20  LDA $2002 = 00                  A:00 X:FF Y:00 P:26 SP:FF PPU:  0,  0 CYC:876
C7AB  29 80     AND #$80                        A:00 X:FF Y:00 P:26 SP:FF PPU:  0,  0 CYC:880
C7AD  F0 F9     BEQ $C7A8                       A:00 X:FF Y:00 P:26 SP:FF PPU:  0,  0 CYC:882
C7A8  AD 02 20  LDA $2002 = 00                  A:00 X:FF Y:00 P:26 SP:FF PPU:  0,  0 CYC:885
C7AB  29 80     AND #$80                        A:00 X:FF Y:00 P:26 SP:FF PPU:  0,  0 CYC:889
C7AD  F0 F9     BEQ $C7A8                       A:00 X:FF Y:00 P:26 SP:FF PPU:  0,  0 CYC:891
C7A8  AD 02 20  LDA $2002 = 00                  A:00 X:FF Y:00 P:26 SP:FF PPU:  0,  0 CYC:894
C7AB  29 80     AND #$80                        A:00 X:FF Y:00 P:26 SP:FF PPU:  0,  0 CYC:898
C7AD  F0 F9     BEQ $C7A8                       A:00 X:FF Y:00 P:26 SP:FF PPU:  0,  0 CYC:900
C7A8  AD 02 20  LDA $2002 = 00                  A:00 X:FF Y:00 P:26 SP:FF PPU:  0,  0 CYC:903
C7AB  29 80     AND #$80                        A:00 X:FF Y:00 P:26 SP:FF PPU:  0,  0 CYC:907
C7AD  F0 F9     BEQ $C7A8                       A:00 X:FF Y:00 P:26 SP:FF PPU:  0,  0 CYC:909
C7A8  AD 02 20  LDA $2002 = 00                  A:00 X:FF Y:00 P:26 SP:FF PPU:  0,  0 CYC:912
C7AB  29 80     AND #$80                        A:00 X:FF Y:00 P:26 SP:FF PPU:  0,  0 CYC:916
C7AD  F0 F9     BEQ $C7A8                       A:00 X:FF Y:00 P:26 SP:FF PPU:  0,  0 CYC:918
C7A8  AD 02 20  LDA $2002 = 00                  A:00 X:FF Y:00 P:26 SP:FF PPU:  0,  0 CYC:921
C7AB  29 80     AND #$80                        A:00 X:FF Y:00 P:26 SP:FF PPU:  0,  0 CYC:925
C7AD  F0 F9     BEQ $C7A8                       A:00 X:FF Y:00 P:26 SP:FF PPU:  0,  0 CYC:927
C7A8  AD 02 20  LDA $2002 = 00                  A:00 X:FF Y:00 P:26 SP:FF PPU:  0,  0 CYC:930
C7AB  29 80     AND #$80                        A:00 X:FF Y:00 P:26 SP:FF PPU:  0,  0 CYC:934
C7AD  F0 F9     BEQ $C7A8                       A:00 X:FF Y:00 P:26 SP:FF PPU:  0,  0 CYC:936
C7A8  AD 02 20  LDA $2002 = 00                  A:00 X:FF Y:00 P:26 SP:FF PPU:  0,  0 CYC:939
C7AB  29 80     AND #$80                        A:00 X:FF Y:00 P:26 SP:FF PPU:  0,  0 CYC:943
C7AD  F0 F9     BEQ $C7A8                       A:00 X:FF Y:00 P:26 SP:FF PPU:  0,  0 CYC:945
C7A8  AD 02 20  LDA $2002 = 00                  A:00 X:FF Y:00 P:26 SP:FF PPU:  0,  0 CYC:948
C7AB  29 80     AND #$80                        A:00 X:FF Y:00 P:26 SP:FF PPU:  0,  0 CYC:952
C7AD  F0 F9     BEQ $C7A8                       A:00 X:FF Y:00 P:26 SP:FF PPU:  0,  0 CYC:954
C7A8  AD 02 20  LDA $2002 = 00                  A:00 X:FF Y:00 P:26 SP:FF PPU:  0,  0 CYC:957
C7AB  29 80     AND #$80                        A:00 X:FF Y:00 P:26 SP:FF PPU:  0,  0 CYC:961
C7AD  F0 F9     BEQ $C7A8                       A:00 X:FF Y:00 P:26 SP:FF PPU:  0,  0 CYC:963
C7A8  AD 02 20  LDA $2002 = 00                  A:00 X:FF Y:00 P:26 SP:FF PPU:  0,  0 CYC:966
C7AB  29 80     AND #$80                        A:00 X:FF Y:00 P:26 SP:FF PPU:  0,  0 CYC:970
C7AD  F0 F9     BEQ $C7A8                       A:00 X:FF Y:00 P:26 SP:FF PPU:  0,  0 CYC:972
C7A8  AD 02 20  LDA $2002 = 00                  A:00 X:FF Y:00 P:26 SP:FF PPU:  0,  0 CYC:975
C7AB  29 80     AND #$80                        A:00 X:FF Y:00 P:26 SP:FF PPU:  0,  0 CYC:979
C7AD  F0 F9     BEQ $C7A8                       A:00 X:FF Y:00 P:26 SP:FF PPU:  0,  0 CYC:981
C7A8  AD 02 20  LDA $2002 = 00                  A:00 X:FF Y:00 P:26 SP:FF PPU:  0,  0 CYC:984
C7AB  29 80     AND #$80                        A:00 X:FF Y:00 P:26 SP:FF PPU:  0,  0 CYC:988
C7AD  F0 F9     BEQ $C7A8                       A:00 X:FF Y:00 P:26 SP:FF PPU:  0,  0 CYC:990
C7A8  AD 02 20  LDA $2002 = 00                  A:00 X:FF Y:00 P:26 SP:FF PPU:  0,  0 CYC:993
C7AB  29 80     AND #$80                        A:00 X:FF Y:00 P:26 SP:FF PPU:  0,  0 CYC:997
C7AD  F0 F9     BEQ $C7A8                       A:00 X:FF Y:00 P:26 SP:FF PPU:  0,  0 CYC:999
C7A8  AD 02 20  LDA $2002 = 00                  A:00 X:FF Y:00 P:26 SP:FF PPU:  0,  0 CYC:1002
C7AB  29 80     AND #$80                        A:00 X:FF Y:00 P:26 SP:FF PPU:  0,  0 CYC:1006
C7AD  F0 F9     BEQ $C7A8                       A:00 X:FF Y:00 P:26 SP:FF PPU:  0,  0 CYC:1008
C7A8  AD 02 20  LDA $2002 = 00                  A:00 X:FF Y:00 P:26 SP:FF PPU:  0,  0 CYC:1011
C7AB  29 80     AND #$80                        A:00 X:FF Y:00 P:26 SP:FF PPU:  0,  0 CYC:1015
C7AD  F0 F9     BEQ $C7A8                       A:00 X:FF Y:00 P:26 SP:FF PPU:  0,  0 CYC:1017
C7A8  AD 02 20  LDA $2002 = 00                  A:00 X:FF Y:00 P:26 SP:FF PPU:  0,  0 CYC:1020
C7AB  29 80     AND #$80                        A:00 X:FF Y:00 P:26 SP:FF PPU:  0,  0 CYC:1024
C7AD  F0 F9     BEQ $C7A8                       A:00 X:FF Y:00 P:26 SP:FF PPU:  0,  0 CYC:1026
C7A8  AD 02 20  LDA $2002 = 00                  A:00 X:FF Y:00 P:26 SP:FF PPU:  0,  0 CYC:1029
C7AB  29 80     AND #$80                        A:00 X:FF Y:00 P:26 SP:FF PPU:  0,  0 CYC:1033
C7AD  F0 F9     BEQ $C7A8                       A:00 X:FF Y:00 P:26 SP:FF PPU:  0,  0 CYC:1035
C7A8  AD 02 20  LDA $2002 = 00                  A:00 X:FF Y:00 P:26 SP:FF PPU:  0,  0 CYC:1038
C7AB  29 80     AND #$80                        A:00 X:FF Y:00 P:26 SP:FF PPU:  0,  0 CYC:1042
C7AD  F0 F9     BEQ $C7A8                       A:00 X:FF Y:00 P:26 SP:FF PPU:  0,  0 CYC:1044
C7A8  AD 02 20  LDA $2002 = 00                  A:00 X:FF Y:00 P:26 SP:FF PPU:  0,  0 CYC:1047
C7AB  29 80     AND #$80                        A:00 X:FF Y:00 P:26 SP:FF PPU:  0,  0 CYC:1051
C7AD  F0 F9     BEQ $C7A8                       A:00 X:FF Y:00 P:26 SP:FF PPU:  0,  0 CYC:1053
C7A8  AD 02 20  LDA $2002 = 00                  A:00 X:FF Y:00 P:26 SP:FF PPU:  0,  0 CYC:1056
C7AB  29 80     AND #$80                        A:00 X:FF Y:00 P:26 SP:FF PPU:  0,  0 CYC:1060
C7AD  F0 F9     BEQ $C7A8                       A:00 X:FF Y:00 P:26 SP:FF PPU:  0,  0 CYC:1062
C7A8  AD 02 20  LDA $2002 = 00                  A:00 X:FF Y:00 P:26 SP:FF PPU:  0,  0 CYC:1065
C7AB  29 80     AND #$80                        A:00 X:FF Y:00 P:26 SP:FF PPU:  0,  0 CYC:1069
C7AD  F0 F9     BEQ $C7A8                       A:00 X:FF Y:00 P:26 SP:FF PPU:  0,  0 CYC:1071
C7A8  AD 02 20  LDA $2002 = 00                  A:00 X:FF Y:00 P:26 SP:FF PPU:  0,  0 CYC:1074
C7AB  29 80     AND #$80                        A:00 X:FF Y:00 P:26 SP:FF PPU:  0,  0 CYC:1078
C7AD  F0 F9     BEQ $C7A8                       A:00 X:FF Y:00 P:26 SP:FF PPU:  0,  0 CYC:1080
C7A8  AD 02 20  LDA $2002 = 00                  A:00 X:FF Y:00 P:26 SP:FF PPU:  0,  0 CYC:1083
C7AB  29 80     AND #$80                        A:00 X:FF Y:00 P:26 SP:FF PPU:  0,  0 CYC:1087
C7AD  F0 F9     BEQ $C7A8                       A:00 X:FF Y:00 P:26 SP:FF PPU:  0,  0 CYC:1089
C7A8  AD 02 20  LDA $2002 = 00                  A:00 X:FF Y:00 P:26 SP:FF PPU:  0,  0 CYC:1092
C7AB  29 80     AND #$80                        A:00 X:FF Y:00 P:26 SP:FF PPU:  0,  0 CYC:1096
C7AD  F0 F9     BEQ $C7A8                       A:00 X:FF Y:00 P:26 SP:FF PPU:  0,  0 CYC:1098
C7A8  AD 02 20  LDA $2002 = 00                  A:00 X:FF Y:00 P:26 SP:FF PPU:  0,  0 CYC:1101
C7AB  29 80     AND #$80                        A:00 X:FF Y:00 P:26 SP:FF PPU:  0,  0 CYC:1105
C7AD  F0 F9     BEQ $C7A8                       A:00 X:FF Y:00 P:26 SP:FF PPU:  0,  0 CYC:1107
C7A8  AD 02 20  LDA $2002 = 00                  A:00 X:FF Y:00 P:26 SP:FF PPU:  0,  0 CYC:1110
C7AB  29 80     AND #$80                        A:00 X:FF Y:00 P:26 SP:FF PPU:  0,  0 CYC:1114
C7AD  F0 F9     BEQ $C7A8                       A:00 X:FF Y:00 P:26 SP:FF PPU:  0,  0 CYC:1116
C7A8  AD 02 20  LDA $2002 = 00                  A:00 X:FF Y:00 P:26 SP:FF PPU:  0,  0 CYC:1119
C7AB  29 80     AND #$80                        A:00 X:FF Y:00 P:26 SP:FF PPU:  0,  0 CYC:1123
C7AD  F0 F9     BEQ $C7A8                       A:00 X:FF Y:00 P:26 SP:FF PPU:  0,  0 CYC:1125
C7A8  AD 02 20  LDA $2002 = 00                  A:00 X:FF Y:00 P:26 SP:FF PPU:  0,  0 CYC:1128
C7AB  29 80     AND #$80                        A:00 X:FF Y:00 P:26 SP:FF PPU:  0,  0 CYC:1132
C7AD  F0 F9     BEQ $C7A8                       A:00 X:FF Y:00 P:26 SP:FF PPU:  0,  0 CYC:1134
C7A8  AD 02 20  LDA $2002 = 00                  A:00 X:FF Y:00 P:26 SP:FF PPU:  0,  0 CYC:1137
C7AB  29 80     AND #$80                        A:00 X:FF Y:00 P:26 SP:FF PPU:  0,  0 CYC:1141
C7AD  F0 F9     BEQ $C7A8                       A:00 X:FF Y:00 P:26 SP:FF PPU:  0,  0 CYC:1143
C7A8  AD 02 20  LDA $2002 = 00                  A:00 X:FF Y:00 P:26 SP:FF PPU:  0,  0 CYC:1146
C7AB  29 80     AND #$80                        A:00 X:FF Y:00 P:26 SP:FF PPU:  0,  0 CYC:1150
C7AD  F0 F9     BEQ $C7A8                       A:00 X:FF Y:00 P:26 SP:FF PPU:  0,  0 CYC:1152
C7A8  AD 02 20  LDA $2002 = 00                  A:00 X:FF Y:00 P:26 SP:FF PPU:  0,  0 CYC:1155
C7AB  29 80     AND #$80                        A:00 X:FF Y:00 P:26 SP:FF PPU:  0,  0 CYC:1159
C7AD  F0 F9     BEQ $C7A8                       A:00 X:FF Y:00 P:26 SP:FF PPU:  0,  0 CYC:1161
C7A8  AD 02 20  LDA $2002 = 00                  A:00 X:FF Y:00 P:26 SP:FF PPU:  0,  0 CYC:1164
C7AB  29 80     AND #$80                        A:00 X:FF Y:00 P:26 SP:FF PPU:  0,  0 CYC:1168
C7AD  F0 F9     BEQ $C7A8                       A:00 X:FF Y:00 P:26 SP:FF PPU:  0,  0 CYC:1170
C7A8  AD 02 20  LDA $2002 = 00                  A:00 X:FF Y:00 P:26 SP:FF PPU:  0,  0 CYC:1173
C7AB  29 80     AND #$80                        A:00 X:FF Y:00 P:26 SP:FF PPU:  0,  0 CYC:1177
C7AD  F0 F9     BEQ $C7A8                       A:00 X:FF Y:00 P:26 SP:FF PPU:  0,  0 CYC:1179
C7A8  AD 02 20  LDA $2002 = 00                  A:00 X:FF Y:00 P:26 SP:FF PPU:  0,  0 CYC:1182
C7AB  29 80     AND #$80                        A:00 X:FF Y:00 P:26 SP:FF PPU:  0,  0 CYC:1186
C7AD  F0 F9     BEQ $C7A8                       A:00 X:FF Y:00 P:26 SP:FF PPU:  0,  0 CYC:1188
C7A8  AD 02 20  LDA $2002 = 00                  A:00 X:FF Y:00 P:26 SP:FF PPU:  0,  0 CYC:1191
C7AB  29 80     AND #$80                        A:00 X:FF Y:00 P:26 SP:FF PPU:  0,  0 CYC:1195
C7AD  F0 F9     BEQ $C7A8                       A:00 X:FF Y:00 P:26 SP:FF PPU:  0,  0 CYC:1197
C7A8  AD 02 20  LDA $2002 = 00                  A:00 X:FF Y:00 P:26 SP:FF PPU:  0,  0 CYC:1200
C7AB  29 80     AND #$80                        A:00 X:FF Y:00 P:26 SP:FF PPU:  0,  0 CYC:1204
C7AD  F0 F9     BEQ $C7A8                       A:00 X:FF Y:00 P:26 SP:FF PPU:  0,  0 CYC:1206
C7A8  AD 02 20  LDA $2002 = 00                  A:00 X:FF Y:00 P:26 SP:FF PPU:  0,  0 CYC:1209
C7AB  29 80     AND #$80                        A:00 X:FF Y:00 P:26 SP:FF PPU:  0,  0 CYC:1213
C7AD  F0 F9     BEQ $C7A8                       A:00 X:FF Y:00 P:26 SP:FF PPU:  0,  0 CYC:1215
C7A8  AD 02 20  LDA $2002 = 00                  A:00 X:FF Y:00 P:26 SP:FF PPU:  0,  0 CYC:1218
C7AB  29 80     AND #$80                        A:00 X:FF Y:00 P:26 SP:FF PPU:  0,  0 CYC:1222
C7AD  F0 F9     BEQ $C7A8                       A:00 X:FF Y:00 P:26 SP:FF PPU:  0,  0 CYC:1224
C7A8  AD 02 20  LDA $2002 = 00                  A:00 X:FF Y:00 P:26 SP:FF PPU:  0,  0 CYC:1227
C7AB  29 80     AND #$80                        A:00 X:FF Y:00 P:26 SP:FF PPU:  0,  0 CYC:1231
C7AD  F0 F9     BEQ $C7A8                       A:00 X:FF Y:00 P:26 SP:FF PPU:  0,  0 CYC:1233
C7A8  AD 02 20  LDA $2002 = 00                  A:00 X:FF Y:00 P:26 SP:FF PPU:  0,  0 CYC:1236
C7AB  29 80     AND #$80                        A:00 X:FF Y:00 P:26 SP:FF PPU:  0,  0 CYC:1240
C7AD  F0 F9     BEQ $C7A8                       A:00 X:FF Y:00 P:26 SP:FF PPU:  0,  0 CYC:1242
C7A8  AD 02 20  LDA $2002 = 00                  A:00 X:FF Y:00 P:26 SP:FF PPU:  0,  0 CYC:1245
C7AB  29 80     AND #$80                        A:00 X:FF Y:00 P:26 SP:FF PPU:  0,  0 CYC:1249
C7AD  F0 F9     BEQ $C7A8                       A:00 X:FF Y:00 P:26 SP:FF PPU:  0,  0 CYC:1251
C7A8  AD 02 20  LDA $2002 = 00                  A:00 X:FF Y:00 P:26 SP:FF PPU:  0,  0 CYC:1254
C7AB  29 80     AND #$80                        A:00 X:FF Y:00 P:26 SP:FF PPU:  0,  0 CYC:1258
C7AD  F0 F9     BEQ $C7A8                       A:00 X:FF Y:00 P:26 SP:FF PPU:  0,  0 CYC:1260
C7A8  AD 02 20  LDA $2002 = 00                  A:00 X:FF Y:00 P:26 SP:FF PPU:  0,  0 CYC:1263
C7AB  29 80     AND #$80                        A:00 X:FF Y:00 P:26 SP:FF PPU:  0,  0 CYC:1267
C7AD  F0 F9     BEQ $C7A8                       A:00 X:FF Y:00 P:26 SP:FF PPU:  0,  0 CYC:1269
C7A8  AD 02 20  LDA $2002 = 00                  A:00 X:FF Y:00 P:26 SP:FF PPU:  0,  0 CYC:1272
C7AB  29 80     AND #$80                        A:00 X:FF Y:00 P:26 SP:FF PPU:  0,  0 CYC:1276
C7AD  F0 F9     BEQ $C7A8                       A:00 X:FF Y:00 P:26 SP:FF PPU:  0,  0 CYC:1278
C7A8  AD 02 20  LDA $2002 = 00                  A:00 X:FF Y:00 P:26 SP:FF PPU:  0,  0 CYC:1281
C7AB  29 80     AND #$80                        A:00 X:FF Y:00 P:26 SP:FF PPU:  0,  0 CYC:1285
C7AD  F0 F9     BEQ $C7A8                       A:00 X:FF Y:00 P:26 SP:FF PPU:  0,  0 CYC:1287
C7A8  AD 02 20  LDA $2002 = 00                  A:00 X:FF Y:00 P:26 SP:FF PPU:  0,  0 CYC:1290
C7AB  29 80     AND #$80                        A:00 X:FF Y:00 P:26 SP:FF PPU:  0,  0 CYC:1294
C7AD  F0 F9     BEQ $C7A8                       A:00 X:FF Y:00 P:26 SP:FF PPU:  0,  0 CYC:1296
C7A8  AD 02 20  LDA $2002 = 00                  A:00 X:FF Y:00 P:26 SP:FF PPU:  0,  0 CYC:1299
C7AB  29 80     AND #$80                        A:00 X:FF Y:00 P:26 SP:FF PPU:  0,  0 CYC:1303
C7AD  F0 F9     BEQ $C7A8                       A:00 X:FF Y:00 P:26 SP:FF PPU:  0,  0 CYC:1305
C7A8  AD 02 20  LDA $2002 = 00                  A:00 X:FF Y:00 P:26 SP:FF PPU:  0,  0 CYC:1308
C7AB  29 80     AND #$80                        A:00 X:FF Y:00 P:26 SP:FF PPU:  0,  0 CYC:1312
C7AD  F0 F9     BEQ $C7A8                       A:00 X:FF Y:00 P:26 SP:FF PPU:  0,  0 CYC:1314
C7A8  AD 02 20  LDA $2002 = 00                  A:00 X:FF Y:00 P:26 SP:FF PPU:  0,  0 CYC:1317
C7AB  29 80     AND #$80                        A:00 X:FF Y:00 P:26 SP:FF PPU:  0,  0 CYC:1321
C7AD  F0 F9     BEQ $C7A8                       A:00 X:FF Y:00 P:26 SP:FF PPU:  0,  0 CYC:1323
C7A8  AD 02 20  LDA $2002 = 00                  A:00 X:FF Y:00 P:26 SP:FF PPU:  0,  0 CYC:1326
C7AB  29 80     AND #$80                        A:00 X:FF Y:00 P:26 SP:FF PPU:  0,  0 CYC:1330
C7AD  F0 F9     BEQ $C7A8                       A:00 X:FF Y:00 P:26 SP:FF PPU:  0,  0 CYC:1332
C7A8  AD 02 20  LDA $2002 = 00                  A:00 X:FF Y:00 P:26 SP:FF PPU:  0,  0 CYC:1335
C7AB  29 80     AND #$80                        A:00 X:FF Y:00 P:26 SP:FF PPU:  0,  0 CYC:1339
C7AD  F0 F9     BEQ $C7A8                       A:00 X:FF Y:00 P:26 SP:FF PPU:  0,  0 CYC:1341
C7A8  AD 02 20  LDA $2002 = 00                  A:00 X:FF Y:00 P:26 SP:FF PPU:  0,  0 CYC:1344
C7AB  29 80     AND #$80                        A:00 X:FF Y:00 P:26 SP:FF PPU:  0,  0 CYC:1348
C7AD  F0 F9     BEQ $C7A8                       A:00 X:FF Y:00 P:26 SP:FF PPU:  0,  0 CYC:1350
C7A8  AD 02 20  LDA $2002 = 00                  A:00 X:FF Y:00 P:26 SP:FF PPU:  0,  0 CYC:1353
C7AB  29 80     AND #$80                        A:00 X:FF Y:00 P:26 SP:FF PPU:  0,  0 CYC:1357
C7AD  F0 F9     BEQ $C7A8                       A:00 X:FF Y:00 P:26 SP:FF PPU:  0,  0 CYC:1359
C7A8  AD 02 20  LDA $2002 = 00                  A:00 X:FF Y:00 P:26 SP:FF PPU:  0,  0 CYC:1362
C7AB  29 80     AND #$80                        A:00 X:FF Y:00 P:26 SP:FF PPU:  0,  0 CYC:1366
C7AD  F0 F9     BEQ $C7A8                       A:00 X:FF Y:00 P:26 SP:FF PPU:  0,  0 CYC:1368
C7A8  AD 02 20  LDA $2002 = 00                  A:00 X:FF Y:00 P:26 SP:FF PPU:  0,  0 CYC:1371
C7AB  29 80     AND #$80                        A:00 X:FF Y:00 P:26 SP:FF PPU:  0,  0 CYC:1375
C7AD  F0 F9     BEQ $C7A8                       A:00 X:FF Y:00 P:26 SP:FF PPU:  0,  0 CYC:1377
C7A8  AD 02 20  LDA $2002 = 00                  A:00 X:FF Y:00 P:26 SP:FF PPU:  0,  0 CYC:1380
C7AB  29 80     AND #$80                        A:00 X:FF Y:00 P:26 SP:FF PPU:  0,  0 CYC:1384
C7AD  F0 F9     BEQ $C7A8                       A:00 X:FF Y:00 P:26 SP:FF PPU:  0,  0 CYC:1386
C7A8  AD 02 20  LDA $2002 = 00                  A:00 X:FF Y:00 P:26 SP:FF PPU:  0,  0 CYC:1389
C7AB  29 80     AND #$80                        A:00 X:FF Y:00 P:26 SP:FF PPU:  0,  0 CYC:1393
C7AD  F0 F9     BEQ $C7A8                       A:00 X:FF Y:00 P:26 SP:FF PPU:  0,  0 CYC:1395
C7A8  AD 02 20  LDA $2002 = 00                  A:00 X:FF Y:00 P:26 SP:FF PPU:  0,  0 CYC:1398
C7AB  29 80     AND #$80                        A:00 X:FF Y:00 P:26 SP:FF PPU:  0,  0 CYC:1402
C7AD  F0 F9     BEQ $C7A8                       A:00 X:FF Y:00 P:26 SP:FF PPU:  0,  0 CYC:1404
C7A8  AD 02 20  LDA $2002 = 00                  A:00 X:FF Y:00 P:26 SP:FF PPU:  0,  0 CYC:1407
C7AB  29 80     AND #$80                        A:00 X:FF Y:00 P:26 SP:FF PPU:  0,  0 CYC:1411
C7AD  F0 F9     BEQ $C7A8                       A:00 X:FF Y:00 P:26 SP:FF PPU:  0,  0 CYC:1413
C7A8  AD 02 20  LDA $2002 = 00                  A:00 X:FF Y:00 P:26 SP:FF PPU:  0,  0 CYC:1416
C7AB  29 80     AND #$80                        A:00 X:FF Y:00 P:26 SP:FF PPU:  0,  0 CYC:1420
C7AD  F0 F9     BEQ $C7A8                       A:00 X:FF Y:00 P:26 SP:FF PPU:  0,  0 CYC:1422
C7A8  AD 02 20  LDA $2002 = 00                  A:00 X:FF Y:00 P:26 SP:FF PPU:  0,  0 CYC:1425
C7AB  29 80     AND #$80                        A:00 X:FF Y:00 P:26 SP:FF PPU:  0,  0 CYC:1429
C7AD  F0 F9     BEQ $C7A8                       A:00 X:FF Y:00 P:26 SP:FF PPU:  0,  0 CYC:1431
C7A8  AD 02 20  LDA $2002 = 00                  A:00 X:FF Y:00 P:26 SP:FF PPU:  0,  0 CYC:1434
C7AB  29 80     AND #$80                        A:00 X:FF Y:00 P:26 SP:FF PPU:  0,  0 CYC:1438
C7AD  F0 F9     BEQ $C7A8                       A:00 X:FF Y:00 P:26 SP:FF PPU:  0,  0 CYC:1440
C7A8  AD 02 20  LDA $2002 = 00                  A:00 X:FF Y:00 P:26 SP:FF PPU:  0,  0 CYC:1443
C7AB  29 80     AND #$80                        A:00 X:FF Y:00 P:26 SP:FF PPU:  0,  0 CYC:1447
C7AD  F0 F9     BEQ $C7A8                       A:00 X:FF Y:00 P:26 SP:FF PPU:  0,  0 CYC:1449
C7A8  AD 02 20  LDA $2002 = 00                  A:00 X:FF Y:00 P:26 SP:FF PPU:  0,  0 CYC:1452
C7AB  29 80     AND #$80                        A:00 X:FF Y:00 P:26 SP:FF PPU:  0,  0 CYC:1456
C7AD  F0 F9     BEQ $C7A8                       A:00 X:FF Y:00 P:26 SP:FF PPU:  0,  0 CYC:1458
C7A8  AD 02 20  LDA $2002 = 00                  A:00 X:FF Y:00 P:26 SP:FF PPU:  0,  0 CYC:1461
C7AB  29 80     AND #$80                        A:00 X:FF Y:00 P:26 SP:FF PPU:  0,  0 CYC:1465
C7AD  F0 F9     BEQ $C7A8                       A:00 X:FF Y:00 P:26 SP:FF PPU:  0,  0 CYC:1467
C7A8  AD 02 20  LDA $2002 = 00                  A:00 X:FF Y:00 P:26 SP:FF PPU:  0,  0 CYC:1470
C7AB  29 80     AND #$80                        A:00 X:FF Y:00 P:26 SP:FF PPU:  0,  0 CYC:1474
C7AD  F0 F9     BEQ $C7A8                       A:00 X:FF Y:00 P:26 SP:FF PPU:  0,  0 CYC:1476
C7A8  AD 02 20  LDA $2002 = 00                  A:00 X:FF Y:00 P:26 SP:FF PPU:  0,  0 CYC:1479
C7AB  29 80     AND #$80                        A:00 X:FF Y:00 P:26 SP:FF PPU:  0,  0 CYC:1483
C7AD  F0 F9     BEQ $C7A8                       A:00 X:FF Y:00 P:26 SP:FF PPU:  0,  0 CYC:1485
C7A8  AD 02 20  LDA $2002 = 00                  A:00 X:FF Y:00 P:26 SP:FF PPU:  0,  0 CYC:1488
C7AB  29 80     AND #$80                        A:00 X:FF Y:00 P:26 SP:FF PPU:  0,  0 CYC:1492
C7AD  F0 F9     BEQ $C7A8                       A:00 X:FF Y:00 P:26 SP:FF PPU:  0,  0 CYC:1494
C7A8  AD 02 20  LDA $2002 = 00                  A:00 X:FF Y:00 P:26 SP:FF PPU:  0,  0 CYC:1497
C7AB  29 80     AND #$80                        A:00 X:FF Y:00 P:26 SP:FF PPU:  0,  0 CYC:1501
C7AD  F0 F9     BEQ $C7A8                       A:00 X:FF Y:00 P:26 SP:FF PPU:  0,  0 CYC:1503
C7A8  AD 02 20  LDA $2002 = 00                  A:00 X:FF Y:00 P:26 SP:FF PPU:  0,  0 CYC:1506
C7AB  29 80     AND #$80                        A:00 X:FF Y:00 P:26 SP:FF PPU:  0,  0 CYC:1510
C7AD  F0 F9     BEQ $C7A8                       A:00 X:FF Y:00 P:26 SP:FF PPU:  0,  0 CYC:1512
C7A8  AD 02 20  LDA $2002 = 00                  A:00 X:FF Y:00 P:26 SP:FF PPU:  0,  0 CYC:1515
C7AB  29 80     AND #$80                        A:00 X:FF Y:00 P:26 SP:FF PPU:  0,  0 CYC:1519
C7AD  F0 F9     BEQ $C7A8                       A:00 X:FF Y:00 P:26 SP:FF PPU:  0,  0 CYC:1521
C7A8  AD 02 20  LDA $2002 = 00                  A:00 X:FF Y:00 P:26 SP:FF PPU:  0,  0 CYC:1524
C7AB  29 80     AND #$80                        A:00 X:FF Y:00 P:26 SP:FF PPU:  0,  0 CYC:1528
C7AD  F0 F9     BEQ $C7A8                       A:00 X:FF Y:00 P:26 SP:FF PPU:  0,  0 CYC:1530
C7A8  AD 02 20  LDA $2002 = 00                  A:00 X:FF Y:00 P:26 SP:FF PPU:  0,  0 CYC:1533
C7AB  29 80     AND #$80                        A:00 X:FF Y:00 P:26 SP:FF PPU:  0,  0 CYC:1537
C7AD  F0 F9     BEQ $C7A8                       A:00 X:FF Y:00 P:26 SP:FF PPU:  0,  0 CYC:1539
C7A8  AD 02 20  LDA $2002 = 00                  A:00 X:FF Y:00 P:26 SP:FF PPU:  0,  0 CYC:1542
C7AB  29 80     AND #$80                        A:00 X:FF Y:00 P:26 SP:FF PPU:  0,  0 CYC:1546
C7AD  F0 F9     BEQ $C7A8                       A:00 X:FF Y:00 P:26 SP:FF PPU:  0,  0 CYC:1548
C7A8  AD 02 20  LDA $2002 = 00                  A:00 X:FF Y:00 P:26 SP:FF PPU:  0,  0 CYC:1551
C7AB  29 80     AND #$80                        A:00 X:FF Y:00 P:26 SP:FF PPU:  0,  0 CYC:1555
C7AD  F0 F9     BEQ $C7A8                       A:00 X:FF Y:00 P:26 SP:FF PPU:  0,  0 CYC:1557
C7A8  AD 02 20  LDA $2002 = 00                  A:00 X:FF Y:00 P:26 SP:FF PPU:  0,  0 CYC:1560
C7AB  29 80     AND #$80                        A:00 X:FF Y:00 P:26 SP:FF PPU:  0,  0 CYC:1564
C7AD  F0 F9     BEQ $C7A8                       A:00 X:FF Y:00 P:26 SP:FF PPU:  0,  0 CYC:1566
C7A8  AD 02 20  LDA $2002 = 00                  A:00 X:FF Y:00 P:26 SP:FF PPU:  0,  0 CYC:1569
C7AB  29 80     AND #$80                        A:00 X:FF Y:00 P:26 SP:FF PPU:  0,  0 CYC:1573
C7AD  F0 F9     BEQ $C7A8                       A:00 X:FF Y:00 P:26 SP:FF PPU:  0,  0 CYC:1575
C7A8  AD 02 20  LDA $2002 = 00                  A:00 X:FF Y:00 P:26 SP:FF PPU:  0,  0 CYC:1578
C7AB  29 80     AND #$80                        A:00 X:FF Y:00 P:26 SP:FF PPU:  0,  0 CYC:1582
C7AD  F0 F9     BEQ $C7A8                       A:00 X:FF Y:00 P:26 SP:FF PPU:  0,  0 CYC:1584
C7A8  AD 02 20  LDA $2002 = 00                  A:00 X:FF Y:00 P:26 SP:FF PPU:  0,  0 CYC:1587
C7AB  29 80     AND #$80                        A:00 X:FF Y:00 P:26 SP:FF PPU:  0,  0 CYC:1591
C7AD  F0 F9     BEQ $C7A8                       A:00 X:FF Y:00 P:26 SP:FF PPU:  0,  0 CYC:1593
C7A8  AD 02 20  LDA $2002 = 00                  A:00 X:FF Y:00 P:26 SP:FF PPU:  0,  0 CYC:1596
C7AB  29 80     AND #$80                        A:00 X:FF Y:00 P:26 SP:FF PPU:  0,  0 CYC:1600
C7AD  F0 F9     BEQ $C7A8                       A:00 X:FF Y:00 P:26 SP:FF PPU:  0,  0 CYC:1602
C7A8  AD 02 20  LDA $2002 = 00                  A:00 X:FF Y:00 P:26 SP:FF PPU:  0,  0 CYC:1605
C7AB  29 80     AND #$80                        A:00 X:FF Y:00 P:26 SP:FF PPU:  0,  0 CYC:1609
C7AD  F0 F9     BEQ $C7A8                       A:00 X:FF Y:00 P:26 SP:FF PPU:  0,  0 CYC:1611
C7A8  AD 02 20  LDA $2002 = 00                  A:00 X:FF Y:00 P:26 SP:FF PPU:  0,  0 CYC:1614
C7AB  29 80     AND #$80                        A:00 X:FF Y:00 P:26 SP:FF PPU:  0,  0 CYC:1618
C7AD  F0 F9     BEQ $C7A8                       A:00 X:FF Y:00 P:26 SP:FF PPU:  0,  0 CYC:1620
C7A8  AD 02 20  LDA $2002 = 00                  A:00 X:FF Y:00 P:26 SP:FF PPU:  0,  0 CYC:1623
C7AB  29 80     AND #$80                        A:00 X:FF Y:00 P:26 SP:FF PPU:  0,  0 CYC:1627
C7AD  F0 F9     BEQ $C7A8                       A:00 X:FF Y:00 P:26 SP:FF PPU:  0,  0 CYC:1629
C7A8  AD 02 20  LDA $2002 = 00                  A:00 X:FF Y:00 P:26 SP:FF PPU:  0,  0 CYC:1632
C7AB  29 80     AND #$80                        A:00 X:FF Y:00 P:26 SP:FF PPU:  0,  0 CYC:1636
C7AD  F0 F9     BEQ $C7A8                       A:00 X:FF Y:00 P:26 SP:FF PPU:  0,  0 CYC:1638
C7A8  AD 02 20  LDA $2002 = 00                  A:00 X:FF Y:00 P:26 SP:FF PPU:  0,  0 CYC:1641
C7AB  29 80     AND #$80                        A:00 X:FF Y:00 P:26 SP:FF PPU:  0,  0 CYC:1645
C7AD  F0 F9     BEQ $C7A8                       A:00 X:FF Y:00 P:26 SP:FF PPU:  0,  0 CYC:1647
C7A8  AD 02 20  LDA $2002 = 00                  A:00 X:FF Y:00 P:26 SP:FF PPU:  0,  0 CYC:1650
C7AB  29 80     AND #$80                        A:00 X:FF Y:00 P:26 SP:FF PPU:  0,  0 CYC:1654
C7AD  F0 F9     BEQ $C7A8                       A:00 X:FF Y:00 P:26 SP:FF PPU:  0,  0 CYC:1656
C7A8  AD 02 20  LDA $2002 = 00                  A:00 X:FF Y:00 P:26 SP:FF PPU:  0,  0 CYC:1659
C7AB  29 80     AND #$80                        A:00 X:FF Y:00 P:26 SP:FF PPU:  0,  0 CYC:1663
C7AD  F0 F9     BEQ $C7A8                       A:00 X:FF Y:00 P:26 SP:FF PPU:  0,  0 CYC:1665
C7A8  AD 02 20  LDA $2002 = 00                  A:00 X:FF Y:00 P:26 SP:FF PPU:  0,  0 CYC:1668
C7AB  29 80     AND #$80                        A:00 X:FF Y:00 P:26 SP:FF PPU:  0,  0 CYC:1672
C7AD  F0 F9     BEQ $C7A8                       A:00 X:FF Y:00 P:26 SP:FF PPU:  0,  0 CYC:1674
C7A8  AD 02 20  LDA $2002 = 00                  A:00 X:FF Y:00 P:26 SP:FF PPU:  0,  0 CYC:1677
C7AB  29 80     AND #$80                        A:00 X:FF Y:00 P:26 SP:FF PPU:  0,  0 CYC:1681
C7AD  F0 F9     BEQ $C7A8                       A:00 X:FF Y:00 P:26 SP:FF PPU:  0,  0 CYC:1683
C7A8  AD 02 20  LDA $2002 = 00                  A:00 X:FF Y:00 P:26 SP:FF PPU:  0,  0 CYC:1686
C7AB  29 80     AND #$80                        A:00 X:FF Y:00 P:26 SP:FF PPU:  0,  0 CYC:1690
C7AD  F0 F9     BEQ $C7A8                       A:00 X:FF Y:00 P:26 SP:FF PPU:  0,  0 CYC:1692
C7A8  AD 02 20  LDA $2002 = 00                  A:00 X:FF Y:00 P:26 SP:FF PPU:  0,  0 CYC:1695
C7AB  29 80     AND #$80                        A:00 X:FF Y:00 P:26 SP:FF PPU:  0,  0 CYC:1699
C7AD  F0 F9     BEQ $C7A8                       A:00 X:FF Y:00 P:26 SP:FF PPU:  0,  0 CYC:1701
C7A8  AD 02 20  LDA $2002 = 00                  A:00 X:FF Y:00 P:26 SP:FF PPU:  0,  0 CYC:1704
C7AB  29 80     AND #$80                        A:00 X:FF Y:00 P:26 SP:FF PPU:  0,  0 CYC:1708
C7AD  F0 F9     BEQ $C7A8                       A:00 X:FF Y:00 P:26 SP:FF PPU:  0,  0 CYC:1710
C7A8  AD 02 20  LDA $2002 = 00                  A:00 X:FF Y:00 P:26 SP:FF PPU:  0,  0 CYC:1713
C7AB  29 80     AND #$80                        A:00 X:FF Y:00 P:26 SP:FF PPU:  0,  0 CYC:1717
C7AD  F0 F9     BEQ $C7A8                       A:00 X:FF Y:00 P:26 SP:FF PPU:  0,  0 CYC:1719
C7A8  AD 02 20  LDA $2002 = 00                  A:00 X:FF Y:00 P:26 SP:FF PPU:  0,  0 CYC:1722
C7AB  29 80     AND #$80                        A:00 X:FF Y:00 P:26 SP:FF PPU:  0,  0 CYC:1726
C7AD  F0 F9     BEQ $C7A8                       A:00 X:FF Y:00 P:26 SP:FF PPU:  0,  0 CYC:1728
C7A8  AD 02 20  LDA $2002 = 00                  A:00 X:FF Y:00 P:26 SP:FF PPU:  0,  0 CYC:1731
C7AB  29 80     AND #$80                        A:00 X:FF Y:00 P:26 SP:FF PPU:  0,  0 CYC:1735
C7AD  F0 F9     BEQ $C7A8                       A:00 X:FF Y:00 P:26 SP:FF PPU:  0,  0 CYC:1737
C7A8  AD 02 20  LDA $2002 = 00                  A:00 X:FF Y:00 P:26 SP:FF PPU:  0,  0 CYC:1740
C7AB  29 80     AND #$80                        A:00 X:FF Y:00 P:26 SP:FF PPU:  0,  0 CYC:1744
C7AD  F0 F9     BEQ $C7A8                       A:00 X:FF Y:00 P:26 SP:FF PPU:  0,  0 CYC:1746
C7A8  AD 02 20  LDA $2002 = 00                  A:00 X:FF Y:00 P:26 SP:FF PPU:  0,  0 CYC:1749
C7AB  29 80     AND #$80                        A:00 X:FF Y:00 P:26 SP:FF PPU:  0,  0 CYC:1753
C7AD  F0 F9     BEQ $C7A8                       A:00 X:FF Y:00 P:26 SP:FF PPU:  0,  0 CYC:1755
C7A8  AD 02 20  LDA $2002 = 00                  A:00 X:FF Y:00 P:26 SP:FF PPU:  0,  0 CYC:1758
C7AB  29 80     AND #$80                        A:00 X:FF Y:00 P:26 SP:FF PPU:  0,  0 CYC:1762
C7AD  F0 F9     BEQ $C7A8                       A:00 X:FF Y:00 P:26 SP:FF PPU:  0,  0 CYC:1764
C7A8  AD 02 20  LDA $2002 = 00                  A:00 X:FF Y:00 P:26 SP:FF PPU:  0,  0 CYC:1767
C7AB  29 80     AND #$80                        A:00 X:FF Y:00 P:26 SP:FF PPU:  0,  0 CYC:1771
C7AD  F0 F9     BEQ $C7A8                       A:00 X:FF Y:00 P:26 SP:FF PPU:  0,  0 CYC:1773
C7A8  AD 02 20  LDA $2002 = 00                  A:00 X:FF Y:00 P:26 SP:FF PPU:  0,  0 CYC:1776
C7AB  29 80     AND #$80                        A:00 X:FF Y:00 P:26 SP:FF PPU:  0,  0 CYC:1780
C7AD  F0 F9     BEQ $C7A8                       A:00 X:FF Y:00 P:26 SP:FF PPU:  0,  0 CYC:1782
C7A8  AD 02 20  LDA $2002 = 00                  A:00 X:FF Y:00 P:26 SP:FF PPU:  0,  0 CYC:1785
C7AB  29 80     AND #$80                        A:00 X:FF Y:00 P:26 SP:FF PPU:  0,  0 CYC:1789
C7AD  F0 F9     BEQ $C7A8                       A:00 X:FF Y:00 P:26 SP:FF PPU:  0,  0 CYC:1791
C7A8  AD 02 20  LDA $2002 = 00                  A:00 X:FF Y:00 P:26 SP:FF PPU:  0,  0 CYC:1794
C7AB  29 80     AND #$80                        A:00 X:FF Y:00 P:26 SP:FF PPU:  0,  0 CYC:1798
C7AD  F0 F9     BEQ $C7A8                       A:00 X:FF Y:00 P:26 SP:FF PPU:  0,  0 CYC:1800
C7A8  AD 02 20  LDA $2002 = 00                  A:00 X:FF Y:00 P:26 SP:FF PPU:  0,  0 CYC:1803
C7AB  29 80     AND #$80                        A:00 X:FF Y:00 P:26 SP:FF PPU:  0,  0 CYC:1807
C7AD  F0 F9     BEQ $C7A8                       A:00 X:FF Y:00 P:26 SP:FF PPU:  0,  0 CYC:1809
C7A8  AD 02 20  LDA $2002 = 00                  A:00 X:FF Y:00 P:26 SP:FF PPU:  0,  0 CYC:1812
C7AB  29 80     AND #$80                        A:00 X:FF Y:00 P:26 SP:FF PPU:  0,  0 CYC:1816
C7AD  F0 F9     BEQ $C7A8                       A:00 X:FF Y:00 P:26 SP:FF PPU:  0,  0 CYC:1818
C7A8  AD 02 20  LDA $2002 = 00                  A:00 X:FF Y:00 P:26 SP:FF PPU:  0,  0 CYC:1821
C7AB  29 80     AND #$80                        A:00 X:FF Y:00 P:26 SP:FF PPU:  0,  0 CYC:1825
C7AD  F0 F9     BEQ $C7A8                       A:00 X:FF Y:00 P:26 SP:FF PPU:  0,  0 CYC:1827
C7A8  AD 02 20  LDA $2002 = 00                  A:00 X:FF Y:00 P:26 SP:FF PPU:  0,  0 CYC:1830
C7AB  29 80     AND #$80                        A:00 X:FF Y:00 P:26 SP:FF PPU:  0,  0 CYC:1834
C7AD  F0 F9     BEQ $C7A8                       A:00 X:FF Y:00 P:26 SP:FF PPU:  0,  0 CYC:1836
C7A8  AD 02 20  LDA $2002 = 00                  A:00 X:FF Y:00 P:26 SP:FF PPU:  0,  0 CYC:1839
C7AB  29 80     AND #$80                        A:00 X:FF Y:00 P:26 SP:FF PPU:  0,  0 CYC:1843
C7AD  F0 F9     BEQ $C7A8                       A:00 X:FF Y:00 P:26 SP:FF PPU:  0,  0 CYC:1845
C7A8  AD 02 20  LDA $2002 = 00                  A:00 X:FF Y:00 P:26 SP:FF PPU:  0,  0 CYC:1848
C7AB  29 80     AND #$80                        A:00 X:FF Y:00 P:26 SP:FF PPU:  0,  0 CYC:1852
C7AD  F0 F9     BEQ $C7A8                       A:00 X:FF Y:00 P:26 SP:FF PPU:  0,  0 CYC:1854
C7A8  AD 02 20  LDA $2002 = 00                  A:00 X:FF Y:00 P:26 SP:FF PPU:  0,  0 CYC:1857
C7AB  29 80     AND #$80                        A:00 X:FF Y:00 P:26 SP:FF PPU:  0,  0 CYC:1861
C7AD  F0 F9     BEQ $C7A8                       A:00 X:FF Y:00 P:26 SP:FF PPU:  0,  0 CYC:1863
C7A8  AD 02 20  LDA $2002 = 00                  A:00 X:FF Y:00 P:26 SP:FF PPU:  0,  0 CYC:1866
C7AB  29 80     AND #$80                        A:00 X:FF Y:00 P:26 SP:FF PPU:  0,  0 CYC:1870
C7AD  F0 F9     BEQ $C7A8                       A:00 X:FF Y:00 P:26 SP:FF PPU:  0,  0 CYC:1872
C7A8  AD 02 20  LDA $2002 = 00                  A:00 X:FF Y:00 P:26 SP:FF PPU:  0,  0 CYC:1875
C7AB  29 80     AND #$80                        A:00 X:FF Y:00 P:26 SP:FF PPU:  0,  0 CYC:1879
C7AD  F0 F9     BEQ $C7A8                       A:00 X:FF Y:00 P:26 SP:FF PPU:  0,  0 CYC:1881
C7A8  AD 02 20  LDA $2002 = 00                  A:00 X:FF Y:00 P:26 SP:FF PPU:  0,  0 CYC:1884
C7AB  29 80     AND #$80                        A:00 X:FF Y:00 P:26 SP:FF PPU:  0,  0 CYC:1888
C7AD  F0 F9     BEQ $C7A8                       A:00 X:FF Y:00 P:26 SP:FF PPU:  0,  0 CYC:1890
C7A8  AD 02 20  LDA $2002 = 00                  A:00 X:FF Y:00 P:26 SP:FF PPU:  0,  0 CYC:1893
C7AB  29 80     AND #$80                        A:00 X:FF Y:00 P:26 SP:FF PPU:  0,  0 CYC:1897
C7AD  F0 F9     BEQ $C7A8                       A:00 X:FF Y:00 P:26 SP:FF PPU:  0,  0 CYC:1899
C7A8  AD 02 20  LDA $2002 = 00                  A:00 X:FF Y:00 P:26 SP:FF PPU:  0,  0 CYC:1902
C7AB  29 80     AND #$80                        A:00 X:FF Y:00 P:26 SP:FF PPU:  0,  0 CYC:1906
C7AD  F0 F9     BEQ $C7A8                       A:00 X:FF Y:00 P:26 SP:FF PPU:  0,  0 CYC:1908
C7A8  AD 02 20  LDA $2002 = 00                  A:00 X:FF Y:00 P:26 SP:FF PPU:  0,  0 CYC:1911
C7AB  29 80     AND #$80                        A:00 X:FF Y:00 P:26 SP:FF PPU:  0,  0 CYC:1915
C7AD  F0 F9     BEQ $C7A8                       A:00 X:FF Y:00 P:26 SP:FF PPU:  0,  0 CYC:1917
C7A8  AD 02 20  LDA $2002 = 00                  A:00 X:FF Y:00 P:26 SP:FF PPU:  0,  0 CYC:1920
C7AB  29 80     AND #$80                        A:00 X:FF Y:00 P:26 SP:FF PPU:  0,  0 CYC:1924
C7AD  F0 F9     BEQ $C7A8                       A:00 X:FF Y:00 P:26 SP:FF PPU:  0,  0 CYC:1926
C7A8  AD 02 20  LDA $2002 = 00                  A:00 X:FF Y:00 P:26 SP:FF PPU:  0,  0 CYC:1929
C7AB  29 80     AND #$80                        A:00 X:FF Y:00 P:26 SP:FF PPU:  0,  0 CYC:1933
C7AD  F0 F9     BEQ $C7A8                       A:00 X:FF Y:00 P:26 SP:FF PPU:  0,  0 CYC:1935
C7A8  AD 02 20  LDA $2002 = 00                  A:00 X:FF Y:00 P:26 SP:FF PPU:  0,  0 CYC:1938
C7AB  29 80     AND #$80                        A:00 X:FF Y:00 P:26 SP:FF PPU:  0,  0 CYC:1942
C7AD  F0 F9     BEQ $C7A8                       A:00 X:FF Y:00 P:26 SP:FF PPU:  0,  0 CYC:1944
C7A8  AD 02 20  LDA $2002 = 00                  A:00 X:FF Y:00 P:26 SP:FF PPU:  0,  0 CYC:1947
C7AB  29 80     AND #$80                        A:00 X:FF Y:00 P:26 SP:FF PPU:  0,  0 CYC:1951
C7AD  F0 F9     BEQ $C7A8                       A:00 X:FF Y:00 P:26 SP:FF PPU:  0,  0 CYC:1953
C7A8  AD 02 20  LDA $2002 = 00                  A:00 X:FF Y:00 P:26 SP:FF PPU:  0,  0 CYC:1956
C7AB  29 80     AND #$80                        A:00 X:FF Y:00 P:26 SP:FF PPU:  0,  0 CYC:1960
C7AD  F0 F9     BEQ $C7A8                       A:00 X:FF Y:00 P:26 SP:FF PPU:  0,  0 CYC:1962
C7A8  AD 02 20  LDA $2002 = 00                  A:00 X:FF Y:00 P:26 SP:FF PPU:  0,  0 CYC:1965
C7AB  29 80     AND #$80                        A:00 X:FF Y:00 P:26 SP:FF PPU:  0,  0 CYC:1969
C7AD  F0 F9     BEQ $C7A8                       A:00 X:FF Y:00 P:26 SP:FF PPU:  0,  0 CYC:1971
C7A8  AD 02 20  LDA $2002 = 00                  A:00 X:FF Y:00 P:26 SP:FF PPU:  0,  0 CYC:1974
C7AB  29 80     AND #$80                        A:00 X:FF Y:00 P:26 SP:FF PPU:  0,  0 CYC:1978
C7AD  F0 F9     BEQ $C7A8                       A:00 X:FF Y:00 P:26 SP:FF PPU:  0,  0 CYC:1980
C7A8  AD 02 20  LDA $2002 = 00                  A:00 X:FF Y:00 P:26 SP:FF PPU:  0,  0 CYC:1983
C7AB  29 80     AND #$80                        A:00 X:FF Y:00 P:26 SP:FF PPU:  0,  0 CYC:1987
C7AD  F0 F9     BEQ $C7A8                       A:00 X:FF Y:00 P:26 SP:FF PPU:  0,  0 CYC:1989
C7A8  AD 02 20  LDA $2002 = 00                  A:00 X:FF Y:00 P:26 SP:FF PPU:  0,  0 CYC:1992
C7AB  29 80     AND #$80                        A:00 X:FF Y:00 P:26 SP:FF PPU:  0,  0 CYC:1996
C7AD  F0 F9     BEQ $C7A8                       A:00 X:FF Y:00 P:26 SP:FF PPU:  0,  0 CYC:1998
C7A8  AD 02 20  LDA $2002 = 00                  A:00 X:FF Y:00 P:26 SP:FF PPU:  0,  0 CYC:2001
C7AB  29 80     AND #$80                        A:00 X:FF Y:00 P:26 SP:FF PPU:  0,  0 CYC:2005
C7AD  F0 F9     BEQ $C7A8                       A:00 X:FF Y:00 P:26 SP:FF PPU:  0,  0 CYC:2007
C7A8  AD 02 20  LDA $2002 = 00                  A:00 X:FF Y:00 P:26 SP:FF PPU:  0,  0 CYC:2010
C7AB  29 80     AND #$80                        A:00 X:FF Y:00 P:26 SP:FF PPU:  0,  0 CYC:2014
C7AD  F0 F9     BEQ $C7A8                       A:00 X:FF Y:00 P:26 SP:FF PPU:  0,  0 CYC:2016
C7A8  AD 02 20  LDA $2002 = 00                  A:00 X:FF Y:00 P:26 SP:FF PPU:  0,  0 CYC:2019
C7AB  29 80     AND #$80                        A:00 X:FF Y:00 P:26 SP:FF PPU:  0,  0 CYC:2023
C7AD  F0 F9     BEQ $C7A8                       A:00 X:FF Y:00 P:26 SP:FF PPU:  0,  0 CYC:2025
C7A8  AD 02 20  LDA $2002 = 00                  A:00 X:FF Y:00 P:26 SP:FF PPU:  0,  0 CYC:2028
C7AB  29 80     AND #$80                        A:00 X:FF Y:00 P:26 SP:FF PPU:  0,  0 CYC:2032
C7AD  F0 F9     BEQ $C7A8                       A:00 X:FF Y:00 P:26 SP:FF PPU:  0,  0 CYC:2034
C7A8  AD 02 20  LDA $2002 = 00                  A:00 X:FF Y:00 P:26 SP:FF PPU:  0,  0 CYC:2037
C7AB  29 80     AND #$80                        A:00 X:FF Y:00 P:26 SP:FF PPU:  0,  0 CYC:2041
C7AD  F0 F9     BEQ $C7A8                       A:00 X:FF Y:00 P:26 SP:FF PPU:  0,  0 CYC:2043
C7A8  AD 02 20  LDA $2002 = 00                  A:00 X:FF Y:00 P:26 SP:FF PPU:  0,  0 CYC:2046
C7AB  29 80     AND #$80                        A:00 X:FF Y:00 P:26 SP:FF PPU:  0,  0 CYC:2050
C7AD  F0 F9     BEQ $C7A8                       A:00 X:FF Y:00 P:26 SP:FF PPU:  0,  0 CYC:2052
C7A8  AD 02 20  LDA $2002 = 00                  A:00 X:FF Y:00 P:26 SP:FF PPU:  0,  0 CYC:2055
C7AB  29 80     AND #$80                        A:00 X:FF Y:00 P:26 SP:FF PPU:  0,  0 CYC:2059
C7AD  F0 F9     BEQ $C7A8                       A:00 X:FF Y:00 P:26 SP:FF PPU:  0,  0 CYC:2061
C7A8  AD 02 20  LDA $2002 = 00                  A:00 X:FF Y:00 P:26 SP:FF PPU:  0,  0 CYC:2064
C7AB  29 80     AND #$80                        A:00 X:FF Y:00 P:26 SP:FF PPU:  0,  0 CYC:2068
C7AD  F0 F9     BEQ $C7A8                       A:00 X:FF Y:00 P:26 SP:FF PPU:  0,  0 CYC:2070
C7A8  AD 02 20  LDA $2002 = 00                  A:00 X:FF Y:00 P:26 SP:FF PPU:  0,  0 CYC:2073
C7AB  29 80     AND #$80                        A:00 X:FF Y:00 P:26 SP:FF PPU:  0,  0 CYC:2077
C7AD  F0 F9     BEQ $C7A8                       A:00 X:FF Y:00 P:26 SP:FF PPU:  0,  0 CYC:2079
C7A8  AD 02 20  LDA $2002 = 00                  A:00 X:FF Y:00 P:26 SP:FF PPU:  0,  0 CYC:2082
C7AB  29 80     AND #$80                        A:00 X:FF Y:00 P:26 SP:FF PPU:  0,  0 CYC:2086
C7AD  F0 F9     BEQ $C7A8                       A:00 X:FF Y:00 P:26 SP:FF PPU:  0,  0 CYC:2088
C7A8  AD 02 20  LDA $2002 = 00                  A:00 X:FF Y:00 P:26 SP:FF PPU:  0,  0 CYC:2091
C7AB  29 80     AND #$80                        A:00 X:FF Y:00 P:26 SP:FF PPU:  0,  0 CYC:2095
C7AD  F0 F9     BEQ $C7A8                       A:00 X:FF Y:00 P:26 SP:FF PPU:  0,  0 CYC:2097
C7A8  AD 02 20  LDA $2002 = 00                  A:00 X:FF Y:00 P:26 SP:FF PPU:  0,  0 CYC:2100
C7AB  29 80     AND #$80                        A:00 X:FF Y:00 P:26 SP:FF PPU:  0,  0 CYC:2104
C7AD  F0 F9     BEQ $C7A8                       A:00 X:FF Y:00 P:26 SP:FF PPU:  0,  0 CYC:2106
C7A8  AD 02 20  LDA $2002 = 00                  A:00 X:FF Y:00 P:26 SP:FF PPU:  0,  0 CYC:2109
C7AB  29 80     AND #$80                        A:00 X:FF Y:00 P:26 SP:FF PPU:  0,  0 CYC:2113
C7AD  F0 F9     BEQ $C7A8                       A:00 X:FF Y:00 P:26 SP:FF PPU:  0,  0 CYC:2115
C7A8  AD 02 20  LDA $2002 = 00                  A:00 X:FF Y:00 P:26 SP:FF PPU:  0,  0 CYC:2118
C7AB  29 80     AND #$80                        A:00 X:FF Y:00 P:26 SP:FF PPU:  0,  0 CYC:2122
C7AD  F0 F9     BEQ $C7A8                       A:00 X:FF Y:00 P:26 SP:FF PPU:  0,  0 CYC:2124
C7A8  AD 02 20  LDA $2002 = 00                  A:00 X:FF Y:00 P:26 SP:FF PPU:  0,  0 CYC:2127
C7AB  29 80     AND #$80                        A:00 X:FF Y:00 P:26 SP:FF PPU:  0,  0 CYC:2131
C7AD  F0 F9     BEQ $C7A8                       A:00 X:FF Y:00 P:26 SP:FF PPU:  0,  0 CYC:2133
C7A8  AD 02 20  LDA $2002 = 00                  A:00 X:FF Y:00 P:26 SP:FF PPU:  0,  0 CYC:2136
C7AB  29 80     AND #$80                        A:00 X:FF Y:00 P:26 SP:FF PPU:  0,  0 CYC:2140
C7AD  F0 F9     BEQ $C7A8                       A:00 X:FF Y:00 P:26 SP:FF PPU:  0,  0 CYC:2142
C7A8  AD 02 20  LDA $2002 = 00                  A:00 X:FF Y:00 P:26 SP:FF PPU:  0,  0 CYC:2145
C7AB  29 80     AND #$80                        A:00 X:FF Y:00 P:26 SP:FF PPU:  0,  0 CYC:2149
C7AD  F0 F9     BEQ $C7A8                       A:00 X:FF Y:00 P:26 SP:FF PPU:  0,  0 CYC:2151
C7A8  AD 02 20  LDA $2002 = 00                  A:00 X:FF Y:00 P:26 SP:FF PPU:  0,  0 CYC:2154
C7AB  29 80     AND #$80                        A:00 X:FF Y:00 P:26 SP:FF PPU:  0,  0 CYC:2158
C7AD  F0 F9     BEQ $C7A8                       A:00 X:FF Y:00 P:26 SP:FF PPU:  0,  0 CYC:2160
C7A8  AD 02 20  LDA $2002 = 00                  A:00 X:FF Y:00 P:26 SP:FF PPU:  0,  0 CYC:2163
C7AB  29 80     AND #$80                        A:00 X:FF Y:00 P:26 SP:FF PPU:  0,  0 CYC:2167
C7AD  F0 F9     BEQ $C7A8                       A:00 X:FF Y:00 P:26 SP:FF PPU:  0,  0 CYC:2169
C7A8  AD 02 20  LDA $2002 = 00                  A:00 X:FF Y:00 P:26 SP:FF PPU:  0,  0 CYC:2172
C7AB  29 80     AND #$80                        A:00 X:FF Y:00 P:26 SP:FF PPU:  0,  0 CYC:2176
C7AD  F0 F9     BEQ $C7A8                       A:00 X:FF Y:00 P:26 SP:FF PPU:  0,  0 CYC:2178
C7A8  AD 02 20  LDA $2002 = 00                  A:00 X:FF Y:00 P:26 SP:FF PPU:  0,  0 CYC:2181
C7AB  29 80     AND #$80                        A:00 X:FF Y:00 P:26 SP:FF PPU:  0,  0 CYC:2185
C7AD  F0 F9     BEQ $C7A8                       A:00 X:FF Y:00 P:26 SP:FF PPU:  0,  0 CYC:2187
C7A8  AD 02 20  LDA $2002 = 00                  A:00 X:FF Y:00 P:26 SP:FF PPU:  0,  0 CYC:2190
C7AB  29 80     AND #$80                        A:00 X:FF Y:00 P:26 SP:FF PPU:  0,  0 CYC:2194
C7AD  F0 F9     BEQ $C7A8                       A:00 X:FF Y:00 P:26 SP:FF PPU:  0,  0 CYC:2196
C7A8  AD 02 20  LDA $2002 = 00                  A:00 X:FF Y:00 P:26 SP:FF PPU:  0,  0 CYC:2199
C7AB  29 80     AND #$80                        A:00 X:FF Y:00 P:26 SP:FF PPU:  0,  0 CYC:2203
C7AD  F0 F9     BEQ $C7A8                       A:00 X:FF Y:00 P:26 SP:FF PPU:  0,  0 CYC:2205
C7A8  AD 02 20  LDA $2002 = 00                  A:00 X:FF Y:00 P:26 SP:FF PPU:  0,  0 CYC:2208
C7AB  29 80     AND #$80                        A:00 X:FF Y:00 P:26 SP:FF PPU:  0,  0 CYC:2212
C7AD  F0 F9     BEQ $C7A8                       A:00 X:FF Y:00 P:26 SP:FF PPU:  0,  0 CYC:2214
C7A8  AD 02 20  LDA $2002 = 00                  A:00 X:FF Y:00 P:26 SP:FF PPU:  0,  0 CYC:2217
C7AB  29 80     AND #$80                        A:00 X:FF Y:00 P:26 SP:FF PPU:  0,  0 CYC:2221
C7AD  F0 F9     BEQ $C7A8                       A:00 X:FF Y:00 P:26 SP:FF PPU:  0,  0 CYC:2223
C7A8  AD 02 20  LDA $2002 = 00                  A:00 X:FF Y:00 P:26 SP:FF PPU:  0,  0 CYC:2226
C7AB  29 80     AND #$80                        A:00 X:FF Y:00 P:26 SP:FF PPU:  0,  0 CYC:2230
C7AD  F0 F9     BEQ $C7A8                       A:00 X:FF Y:00 P:26 SP:FF PPU:  0,  0 CYC:2232
C7A8  AD 02 20  LDA $2002 = 00                  A:00 X:FF Y:00 P:26 SP:FF PPU:  0,  0 CYC:2235
C7AB  29 80     AND #$80                        A:00 X:FF Y:00 P:26 SP:FF PPU:  0,  0 CYC:2239
C7AD  F0 F9     BEQ $C7A8                       A:00 X:FF Y:00 P:26 SP:FF PPU:  0,  0 CYC:2241
C7A8  AD 02 20  LDA $2002 = 00                  A:00 X:FF Y:00 P:26 SP:FF PPU:  0,  0 CYC:2244
C7AB  29 80     AND #$80                        A:00 X:FF Y:00 P:26 SP:FF PPU:  0,  0 CYC:2248
C7AD  F0 F9     BEQ $C7A8                       A:00 X:FF Y:00 P:26 SP:FF PPU:  0,  0 CYC:2250
C7A8  AD 02 20  LDA $2002 = 00                  A:00 X:FF Y:00 P:26 SP:FF PPU:  0,  0 CYC:2253
C7AB  29 80     AND #$80                        A:00 X:FF Y:00 P:26 SP:FF PPU:  0,  0 CYC:2257
C7AD  F0 F9     BEQ $C7A8                       A:00 X:FF Y:00 P:26 SP:FF PPU:  0,  0 CYC:2259
C7A8  AD 02 20  LDA $2002 = 00                  A:00 X:FF Y:00 P:26 SP:FF PPU:  0,  0 CYC:2262
C7AB  29 80     AND #$80                        A:00 X:FF Y:00 P:26 SP:FF PPU:  0,  0 CYC:2266
C7AD  F0 F9     BEQ $C7A8                       A:00 X:FF Y:00 P:26 SP:FF PPU:  0,  0 CYC:2268
C7A8  AD 02 20  LDA $2002 = 00                  A:00 X:FF Y:00 P:26 SP:FF PPU:  0,  0 CYC:2271
C7AB  29 80     AND #$80                        A:00 X:FF Y:00 P:26 SP:FF PPU:  0,  0 CYC:2275
C7AD  F0 F9     BEQ $C7A8                       A:00 X:FF Y:00 P:26 SP:FF PPU:  0,  0 CYC:2277
C7A8  AD 02 20  LDA $2002 = 00                  A:00 X:FF Y:00 P:26 SP:FF PPU:  0,  0 CYC:2280
C7AB  29 80     AND #$80                        A:00 X:FF Y:00 P:26 SP:FF PPU:  0,  0 CYC:2284
C7AD  F0 F9     BEQ $C7A8                       A:00 X:FF Y:00 P:26 SP:FF PPU:  0,  0 CYC:2286
C7A8  AD 02 20  LDA $2002 = 00                  A:00 X:FF Y:00 P:26 SP:FF PPU:  0,  0 CYC:2289
C7AB  29 80     AND #$80                        A:00 X:FF Y:00 P:26 SP:FF PPU:  0,  0 CYC:2293
C7AD  F0 F9     BEQ $C7A8                       A:00 X:FF Y:00 P:26 SP:FF PPU:  0,  0 CYC:2295
C7A8  AD 02 20  LDA $2002 = 00                  A:00 X:FF Y:00 P:26 SP:FF PPU:  0,  0 CYC:2298
C7AB  29 80     AND #$80                        A:00 X:FF Y:00 P:26 SP:FF PPU:  0,  0 CYC:2302
C7AD  F0 F9     BEQ $C7A8                       A:00 X:FF Y:00 P:26 SP:FF PPU:  0,  0 CYC:2304
C7A8  AD 02 20  LDA $2002 = 00                  A:00 X:FF Y:00 P:26 SP:FF PPU:  0,  0 CYC:2307
C7AB  29 80     AND #$80                        A:00 X:FF Y:00 P:26 SP:FF PPU:  0,  0 CYC:2311
C7AD  F0 F9     BEQ $C7A8                       A:00 X:FF Y:00 P:26 SP:FF PPU:  0,  0 CYC:2313
C7A8  AD 02 20  LDA $2002 = 00                  A:00 X:FF Y:00 P:26 SP:FF PPU:  0,  0 CYC:2316
C7AB  29 80     AND #$80                        A:00 X:FF Y:00 P:26 SP:FF PPU:  0,  0 CYC:2320
C7AD  F0 F9     BEQ $C7A8                       A:00 X:FF Y:00 P:26 SP:FF PPU:  0,  0 CYC:2322
C7A8  AD 02 20  LDA $2002 = 00                  A:00 X:FF Y:00 P:26 SP:FF PPU:  0,  0 CYC:2325
C7AB  29 80     AND #$80                        A:00 X:FF Y:00 P:26 SP:FF PPU:  0,  0 CYC:2329
C7AD  F0 F9     BEQ $C7A8                       A:00 X:FF Y:00 P:26 SP:FF PPU:  0,  0 CYC:2331
C7A8  AD 02 20  LDA $2002 = 00                  A:00 X:FF Y:00 P:26 SP:FF PPU:  0,  0 CYC:2334
C7AB  29 80     AND #$80                        A:00 X:FF Y:00 P:26 SP:FF PPU:  0,  0 CYC:2338
C7AD  F0 F9     BEQ $C7A8                       A:00 X:FF Y:00 P:26 SP:FF PPU:  0,  0 CYC:2340
C7A8  AD 02 20  LDA $2002 = 00                  A:00 X:FF Y:00 P:26 SP:FF PPU:  0,  0 CYC:2343
C7AB  29 80     AND #$80                        A:00 X:FF Y:00 P:26 SP:FF PPU:  0,  0 CYC:2347
C7AD  F0 F9     BEQ $C7A8                       A:00 X:FF Y:00 P:26 SP:FF PPU:  0,  0 CYC:2349
C7A8  AD 02 20  LDA $2002 = 00                  A:00 X:FF Y:00 P:26 SP:FF PPU:  0,  0 CYC:2352
C7AB  29 80     AND #$80                        A:00 X:FF Y:00 P:26 SP:FF PPU:  0,  0 CYC:2356
C7AD  F0 F9     BEQ $C7A8                       A:00 X:FF Y:00 P:26 SP:FF PPU:  0,  0 CYC:2358
C7A8  AD 02 20  LDA $2002 = 00                  A:00 X:FF Y:00 P:26 SP:FF PPU:  0,  0 CYC:2361
C7AB  29 80     AND #$80                        A:00 X:FF Y:00 P:26 SP:FF PPU:  0,  0 CYC:2365
C7AD  F0 F9     BEQ $C7A8                       A:00 X:FF Y:00 P:26 SP:FF PPU:  0,  0 CYC:2367
C7A8  AD 02 20  LDA $2002 = 00                  A:00 X:FF Y:00 P:26 SP:FF PPU:  0,  0 CYC:2370
C7AB  29 80     AND #$80                        A:00 X:FF Y:00 P:26 SP:FF PPU:  0,  0 CYC:2374
C7AD  F0 F9     BEQ $C7A8                       A:00 X:FF Y:00 P:26 SP:FF PPU:  0,  0 CYC:2376
C7A8  AD 02 20  LDA $2002 = 00                  A:00 X:FF Y:00 P:26 SP:FF PPU:  0,  0 CYC:2379
C7AB  29 80     AND #$80                        A:00 X:FF Y:00 P:26 SP:FF PPU:  0,  0 CYC:2383
C7AD  F0 F9     BEQ $C7A8                       A:00 X:FF Y:00 P:26 SP:FF PPU:  0,  0 CYC:2385
C7A8  AD 02 20  LDA $2002 = 00                  A:00 X:FF Y:00 P:26 SP:FF PPU:  0,  0 CYC:2388
C7AB  29 80     AND #$80                        A:00 X:FF Y:00 P:26 SP:FF PPU:  0,  0 CYC:2392
C7AD  F0 F9     BEQ $C7A8                       A:00 X:FF Y:00 P:26 SP:FF PPU:  0,  0 CYC:2394
C7A8  AD 02 20  LDA $2002 = 00                  A:00 X:FF Y:00 P:26 SP:FF PPU:  0,  0 CYC:2397
C7AB  29 80     AND #$80                        A:00 X:FF Y:00 P:26 SP:FF PPU:  0,  0 CYC:2401
C7AD  F0 F9     BEQ $C7A8                       A:00 X:FF Y:00 P:26 SP:FF PPU:  0,  0 CYC:2403
C7A8  AD 02 20  LDA $2002 = 00                  A:00 X:FF Y:00 P:26 SP:FF PPU:  0,  0 CYC:2406
C7AB  29 80     AND #$80                        A:00 X:FF Y:00 P:26 SP:FF PPU:  0,  0 CYC:2410
C7AD  F0 F9     BEQ $C7A8                       A:00 X:FF Y:00 P:26 SP:FF PPU:  0,  0 CYC:2412
C7A8  AD 02 20  LDA $2002 = 00                  A:00 X:FF Y:00 P:26 SP:FF PPU:  0,  0 CYC:2415
C7AB  29 80     AND #$80                        A:00 X:FF Y:00 P:26 SP:FF PPU:  0,  0 CYC:2419
C7AD  F0 F9     BEQ $C7A8                       A:00 X:FF Y:00 P:26 SP:FF PPU:  0,  0 CYC:2421
C7A8  AD 02 20  LDA $2002 = 00                  A:00 X:FF Y:00 P:26 SP:FF PPU:  0,  0 CYC:2424
C7AB  29 80     AND #$80                        A:00 X:FF Y:00 P:26 SP:FF PPU:  0,  0 CYC:2428
C7AD  F0 F9     BEQ $C7A8                       A:00 X:FF Y:00 P:26 SP:FF PPU:  0,  0 CYC:2430
C7A8  AD 02 20  LDA $2002 = 00                  A:00 X:FF Y:00 P:26 SP:FF PPU:  0,  0 CYC:2433
C7AB  29 80     AND #$80                        A:00 X:FF Y:00 P:26 SP:FF PPU:  0,  0 CYC:2437
C7AD  F0 F9     BEQ $C7A8                       A:00 X:FF Y:00 P:26 SP:FF PPU:  0,  0 CYC:2439
C7A8  AD 02 20  LDA $2002 = 00                  A:00 X:FF Y:00 P:26 SP:FF PPU:  0,  0 CYC:2442
C7AB  29 80     AND #$80                        A:00 X:FF Y:00 P:26 SP:FF PPU:  0,  0 CYC:2446
C7AD  F0 F9     BEQ $C7A8                       A:00 X:FF Y:00 P:26 SP:FF PPU:  0,  0 CYC:2448
C7A8  AD 02 20  LDA $2002 = 00                  A:00 X:FF Y:00 P:26 SP:FF PPU:  0,  0 CYC:2451
C7AB  29 80     AND #$80                        A:00 X:FF Y:00 P:26 SP:FF PPU:  0,  0 CYC:2455
C7AD  F0 F9     BEQ $C7A8                       A:00 X:FF Y:00 P:26 SP:FF PPU:  0,  0 CYC:2457
C7A8  AD 02 20  LDA $2002 = 00                  A:00 X:FF Y:00 P:26 SP:FF PPU:  0,  0 CYC:2460
C7AB  29 80     AND #$80                        A:00 X:FF Y:00 P:26 SP:FF PPU:  0,  0 CYC:2464
C7AD  F0 F9     BEQ $C7A8                       A:00 X:FF Y:00 P:26 SP:FF PPU:  0,  0 CYC:2466
C7A8  AD 02 20  LDA $2002 = 00                  A:00 X:FF Y:00 P:26 SP:FF PPU:  0,  0 CYC:2469
C7AB  29 80     AND #$80                        A:00 X:FF Y:00 P:26 SP:FF PPU:  0,  0 CYC:2473
C7AD  F0 F9     BEQ $C7A8                       A:00 X:FF Y:00 P:26 SP:FF PPU:  0,  0 CYC:2475
C7A8  AD 02 20  LDA $2002 = 00                  A:00 X:FF Y:00 P:26 SP:FF PPU:  0,  0 CYC:2478
C7AB  29 80     AND #$80                        A:00 X:FF Y:00 P:26 SP:FF PPU:  0,  0 CYC:2482
C7AD  F0 F9     BEQ $C7A8                       A:00 X:FF Y:00 P:26 SP:FF PPU:  0,  0 CYC:2484
C7A8  AD 02 20  LDA $2002 = 00                  A:00 X:FF Y:00 P:26 SP:FF PPU:  0,  0 CYC:2487
C7AB  29 80     AND #$80                        A:00 X:FF Y:00 P:26 SP:FF PPU:  0,  0 CYC:2491
C7AD  F0 F9     BEQ $C7A8                       A:00 X:FF Y:00 P:26 SP:FF PPU:  0,  0 CYC:2493
C7A8  AD 02 20  LDA $2002 = 00                  A:00 X:FF Y:00 P:26 SP:FF PPU:  0,  0 CYC:2496
C7AB  29 80     AND #$80                        A:00 X:FF Y:00 P:26 SP:FF PPU:  0,  0 CYC:2500
C7AD  F0 F9     BEQ $C7A8                       A:00 X:FF Y:00 P:26 SP:FF PPU:  0,  0 CYC:2502
C7A8  AD 02 20  LDA $2002 = 00                  A:00 X:FF Y:00 P:26 SP:FF PPU:  0,  0 CYC:2505
C7AB  29 80     AND #$80                        A:00 X:FF Y:00 P:26 SP:FF PPU:  0,  0 CYC:2509
C7AD  F0 F9     BEQ $C7A8                       A:00 X:FF Y:00 P:26 SP:FF PPU:  0,  0 CYC:2511
C7A8  AD 02 20  LDA $2002 = 00                  A:00 X:FF Y:00 P:26 SP:FF PPU:  0,  0 CYC:2514
C7AB  29 80     AND #$80                        A:00 X:FF Y:00 P:26 SP:FF PPU:  0,  0 CYC:2518
C7AD  F0 F9     BEQ $C7A8                       A:00 X:FF Y:00 P:26 SP:FF PPU:  0,  0 CYC:2520
C7A8  AD 02 20  LDA $2002 = 00                  A:00 X:FF Y:00 P:26 SP:FF PPU:  0,  0 CYC:2523
C7AB  29 80     AND #$80                        A:00 X:FF Y:00 P:26 SP:FF PPU:  0,  0 CYC:2527
C7AD  F0 F9     BEQ $C7A8                       A:00 X:FF Y:00 P:26 SP:FF PPU:  0,  0 CYC:2529
C7A8  AD 02 20  LDA $2002 = 00                  A:00 X:FF Y:00 P:26 SP:FF PPU:  0,  0 CYC:2532
C7AB  29 80     AND #$80                        A:00 X:FF Y:00 P:26 SP:FF PPU:  0,  0 CYC:2536
C7AD  F0 F9     BEQ $C7A8                       A:00 X:FF Y:00 P:26 SP:FF PPU:  0,  0 CYC:2538
C7A8  AD 02 20  LDA $2002 = 00                  A:00 X:FF Y:00 P:26 SP:FF PPU:  0,  0 CYC:2541
C7AB  29 80     AND #$80                        A:00 X:FF Y:00 P:26 SP:FF PPU:  0,  0 CYC:2545
C7AD  F0 F9     BEQ $C7A8                       A:00 X:FF Y:00 P:26 SP:FF PPU:  0,  0 CYC:2547
C7A8  AD 02 20  LDA $2002 = 00                  A:00 X:FF Y:00 P:26 SP:FF PPU:  0,  0 CYC:2550
C7AB  29 80     AND #$80                        A:00 X:FF Y:00 P:26 SP:FF PPU:  0,  0 CYC:2554
C7AD  F0 F9     BEQ $C7A8                       A:00 X:FF Y:00 P:26 SP:FF PPU:  0,  0 CYC:2556
C7A8  AD 02 20  LDA $2002 = 00                  A:00 X:FF Y:00 P:26 SP:FF PPU:  0,  0 CYC:2559
C7AB  29 80     AND #$80                        A:00 X:FF Y:00 P:26 SP:FF PPU:  0,  0 CYC:2563
C7AD  F0 F9     BEQ $C7A8                       A:00 X:FF Y:00 P:26 SP:FF PPU:  0,  0 CYC:2565
C7A8  AD 02 20  LDA $2002 = 00                  A:00 X:FF Y:00 P:26 SP:FF PPU:  0,  0 CYC:2568
C7AB  29 80     AND #$80                        A:00 X:FF Y:00 P:26 SP:FF PPU:  0,  0 CYC:2572
C7AD  F0 F9     BEQ $C7A8                       A:00 X:FF Y:00 P:26 SP:FF PPU:  0,  0 CYC:2574
C7A8  AD 02 20  LDA $2002 = 00                  A:00 X:FF Y:00 P:26 SP:FF PPU:  0,  0 CYC:2577
C7AB  29 80     AND #$80                        A:00 X:FF Y:00 P:26 SP:FF PPU:  0,  0 CYC:2581
C7AD  F0 F9     BEQ $C7A8                       A:00 X:FF Y:00 P:26 SP:FF PPU:  0,  0 CYC:2583
C7A8  AD 02 20  LDA $2002 = 00                  A:00 X:FF Y:00 P:26 SP:FF PPU:  0,  0 CYC:2586
C7AB  29 80     AND #$80                        A:00 X:FF Y:00 P:26 SP:FF PPU:  0,  0 CYC:2590
C7AD  F0 F9     BEQ $C7A8                       A:00 X:FF Y:00 P:26 SP:FF PPU:  0,  0 CYC:2592
C7A8  AD 02 20  LDA $2002 = 00                  A:00 X:FF Y:00 P:26 SP:FF PPU:  0,  0 CYC:2595
C7AB  29 80     AND #$80                        A:00 X:FF Y:00 P:26 SP:FF PPU:  0,  0 CYC:2599
C7AD  F0 F9     BEQ $C7A8                       A:00 X:FF Y:00 P:26 SP:FF PPU:  0,  0 CYC:2601
C7A8  AD 02 20  LDA $2002 = 00                  A:00 X:FF Y:00 P:26 SP:FF PPU:  0,  0 CYC:2604
C7AB  29 80     AND #$80                        A:00 X:FF Y:00 P:26 SP:FF PPU:  0,  0 CYC:2608
C7AD  F0 F9     BEQ $C7A8                       A:00 X:FF Y:00 P:26 SP:FF PPU:  0,  0 CYC:2610
C7A8  AD 02 20  LDA $2002 = 00                  A:00 X:FF Y:00 P:26 SP:FF PPU:  0,  0 CYC:2613
C7AB  29 80     AND #$80                        A:00 X:FF Y:00 P:26 SP:FF PPU:  0,  0 CYC:2617
C7AD  F0 F9     BEQ $C7A8                       A:00 X:FF Y:00 P:26 SP:FF PPU:  0,  0 CYC:2619
C7A8  AD 02 20  LDA $2002 = 00                  A:00 X:FF Y:00 P:26 SP:FF PPU:  0,  0 CYC:2622
C7AB  29 80     AND #$80                        A:00 X:FF Y:00 P:26 SP:FF PPU:  0,  0 CYC:2626
C7AD  F0 F9     BEQ $C7A8                       A:00 X:FF Y:00 P:26 SP:FF PPU:  0,  0 CYC:2628
C7A8  AD 02 20  LDA $2002 = 00                  A:00 X:FF Y:00 P:26 SP:FF PPU:  0,  0 CYC:2631
C7AB  29 80     AND #$80                        A:00 X:FF Y:00 P:26 SP:FF PPU:  0,  0 CYC:2635
C7AD  F0 F9     BEQ $C7A8                       A:00 X:FF Y:00 P:26 SP:FF PPU:  0,  0 CYC:2637
C7A8  AD 02 20  LDA $2002 = 00                  A:00 X:FF Y:00 P:26 SP:FF PPU:  0,  0 CYC:2640
C7AB  29 80     AND #$80                        A:00 X:FF Y:00 P:26 SP:FF PPU:  0,  0 CYC:2644
C7AD  F0 F9     BEQ $C7A8                       A:00 X:FF Y:00 P:26 SP:FF PPU:  0,  0 CYC:2646
C7A8  AD 02 20  LDA $2002 = 00                  A:00 X:FF Y:00 P:26 SP:FF PPU:  0,  0 CYC:2649
C7AB  29 80     AND #$80                        A:00 X:FF Y:00 P:26 SP:FF PPU:  0,  0 CYC:2653
C7AD  F0 F9     BEQ $C7A8                       A:00 X:FF Y:00 P:26 SP:FF PPU:  0,  0 CYC:2655
C7A8  AD 02 20  LDA $2002 = 00                  A:00 X:FF Y:00 P:26 SP:FF PPU:  0,  0 CYC:2658
C7AB  29 80     AND #$80                        A:00 X:FF Y:00 P:26 SP:FF PPU:  0,  0 CYC:2662
C7AD  F0 F9     BEQ $C7A8                       A:00 X:FF Y:00 P:26 SP:FF PPU:  0,  0 CYC:2664
C7A8  AD 02 20  LDA $2002 = 00                  A:00 X:FF Y:00 P:26 SP:FF PPU:  0,  0 CYC:2667
C7AB  29 80     AND #$80                        A:00 X:FF Y:00 P:26 SP:FF PPU:  0,  0 CYC:2671
C7AD  F0 F9     BEQ $C7A8                       A:00 X:FF Y:00 P:26 SP:FF PPU:  0,  0 CYC:2673
C7A8  AD 02 20  LDA $2002 = 00                  A:00 X:FF Y:00 P:26 SP:FF PPU:  0,  0 CYC:2676
C7AB  29 80     AND #$80                        A:00 X:FF Y:00 P:26 SP:FF PPU:  0,  0 CYC:2680
C7AD  F0 F9     BEQ $C7A8                       A:00 X:FF Y:00 P:26 SP:FF PPU:  0,  0 CYC:2682
C7A8  AD 02 20  LDA $2002 = 00                  A:00 X:FF Y:00 P:26 SP:FF PPU:  0,  0 CYC:2685
C7AB  29 80     AND #$80                        A:00 X:FF Y:00 P:26 SP:FF PPU:  0,  0 CYC:2689
C7AD  F0 F9     BEQ $C7A8                       A:00 X:FF Y:00 P:26 SP:FF PPU:  0,  0 CYC:2691
C7A8  AD 02 20  LDA $2002 = 00                  A:00 X:FF Y:00 P:26 SP:FF PPU:  0,  0 CYC:2694
C7AB  29 80     AND #$80                        A:00 X:FF Y:00 P:26 SP:FF PPU:  0,  0 CYC:2698
C7AD  F0 F9     BEQ $C7A8                       A:00 X:FF Y:00 P:26 SP:FF PPU:  0,  0 CYC:2700
C7A8  AD 02 20  LDA $2002 = 00                  A:00 X:FF Y:00 P:26 SP:FF PPU:  0,  0 CYC:2703
C7AB  29 80     AND #$80                        A:00 X:FF Y:00 P:26 SP:FF PPU:  0,  0 CYC:2707
C7AD  F0 F9     BEQ $C7A8                       A:00 X:FF Y:00 P:26 SP:FF PPU:  0,  0 CYC:2709
C7A8  AD 02 20  LDA $2002 = 00                  A:00 X:FF Y:00 P:26 SP:FF PPU:  0,  0 CYC:2712
C7AB  29 80     AND #$80                        A:00 X:FF Y:00 P:26 SP:FF PPU:  0,  0 CYC:2716
C7AD  F0 F9     BEQ $C7A8                       A:00 X:FF Y:00 P:26 SP:FF PPU:  0,  0 CYC:2718
C7A8  AD 02 20  LDA $2002 = 00                  A:00 X:FF Y:00 P:26 SP:FF PPU:  0,  0 CYC:2721
C7AB  29 80     AND #$80                        A:00 X:FF Y:00 P:26 SP:FF PPU:  0,  0 CYC:2725
C7AD  F0 F9     BEQ $C7A8                       A:00 X:FF Y:00 P:26 SP:FF PPU:  0,  0 CYC:2727
C7A8  AD 02 20  LDA $2002 = 00                  A:00 X:FF Y:00 P:26 SP:FF PPU:  0,  0 CYC:2730
C7AB  29 80     AND #$80                        A:00 X:FF Y:00 P:26 SP:FF PPU:  0,  0 CYC:2734
C7AD  F0 F9     BEQ $C7A8                       A:00 X:FF Y:00 P:26 SP:FF PPU:  0,  0 CYC:2736
C7A8  AD 02 20  LDA $2002 = 00                  A:00 X:FF Y:00 P:26 SP:FF PPU:  0,  0 CYC:2739
C7AB  29 80     AND #$80                        A:00 X:FF Y:00 P:26 SP:FF PPU:  0,  0 CYC:2743
C7AD  F0 F9     BEQ $C7A8                       A:00 X:FF Y:00 P:26 SP:FF PPU:  0,  0 CYC:2745
C7A8  AD 02 20  LDA $2002 = 00                  A:00 X:FF Y:00 P:26 SP:FF PPU:  0,  0 CYC:2748
C7AB  29 80     AND #$80                        A:00 X:FF Y:00 P:26 SP:FF PPU:  0,  0 CYC:2752
C7AD  F0 F9     BEQ $C7A8                       A:00 X:FF Y:00 P:26 SP:FF PPU:  0,  0 CYC:2754
C7A8  AD 02 20  LDA $2002 = 00                  A:00 X:FF Y:00 P:26 SP:FF PPU:  0,  0 CYC:2757
C7AB  29 80     AND #$80                        A:00 X:FF Y:00 P:26 SP:FF PPU:  0,  0 CYC:2761
C7AD  F0 F9     BEQ $C7A8                       A:00 X:FF Y:00 P:26 SP:FF PPU:  0,  0 CYC:2763
C7A8  AD 02 20  LDA $2002 = 00                  A:00 X:FF Y:00 P:26 SP:FF PPU:  0,  0 CYC:2766
C7AB  29 80     AND #$80                        A:00 X:FF Y:00 P:26 SP:FF PPU:  0,  0 CYC:2770
C7AD  F0 F9     BEQ $C7A8                       A:00 X:FF Y:00 P:26 SP:FF PPU:  0,  0 CYC:2772
C7A8  AD 02 20  LDA $2002 = 00                  A:00 X:FF Y:00 P:26 SP:FF PPU:  0,  0 CYC:2775
C7AB  29 80     AND #$80                        A:00 X:FF Y:00 P:26 SP:FF PPU:  0,  0 CYC:2779
C7AD  F0 F9     BEQ $C7A8                       A:00 X:FF Y:00 P:26 SP:FF PPU:  0,  0 CYC:2781
C7A8  AD 02 20  LDA $2002 = 00                  A:00 X:FF Y:00 P:26 SP:FF PPU:  0,  0 CYC:2784
C7AB  29 80     AND #$80                        A:00 X:FF Y:00 P:26 SP:FF PPU:  0,  0 CYC:2788
C7AD  F0 F9     BEQ $C7A8                       A:00 X:FF Y:00 P:26 SP:FF PPU:  0,  0 CYC:2790
C7A8  AD 02 20  LDA $2002 = 00                  A:00 X:FF Y:00 P:26 SP:FF PPU:  0,  0 CYC:2793
C7AB  29 80     AND #$80                        A:00 X:FF Y:00 P:26 SP:FF PPU:  0,  0 CYC:2797
C7AD  F0 F9     BEQ $C7A8                       A:00 X:FF Y:00 P:26 SP:FF PPU:  0,  0 CYC:2799
C7A8  AD 02 20  LDA $2002 = 00                  A:00 X:FF Y:00 P:26 SP:FF PPU:  0,  0 CYC:2802
C7AB  29 80     AND #$80                        A:00 X:FF Y:00 P:26 SP:FF PPU:  0,  0 CYC:2806
C7AD  F0 F9     BEQ $C7A8                       A:00 X:FF Y:00 P:26 SP:FF PPU:  0,  0 CYC:2808
C7A8  AD 02 20  LDA $2002 = 00                  A:00 X:FF Y:00 P:26 SP:FF PPU:  0,  0 CYC:2811
C7AB  29 80     AND #$80                        A:00 X:FF Y:00 P:26 SP:FF PPU:  0,  0 CYC:2815
C7AD  F0 F9     BEQ $C7A8                       A:00 X:FF Y:00 P:26 SP:FF PPU:  0,  0 CYC:2817
C7A8  AD 02 20  LDA $2002 = 00                  A:00 X:FF Y:00 P:26 SP:FF PPU:  0,  0 CYC:2820
C7AB  29 80     AND #$80                        A:00 X:FF Y:00 P:26 SP:FF PPU:  0,  0 CYC:2824
C7AD  F0 F9     BEQ $C7A8                       A:00 X:FF Y:00 P:26 SP:FF PPU:  0,  0 CYC:2826
C7A8  AD 02 20  LDA $2002 = 00                  A:00 X:FF Y:00 P:26 SP:FF PPU:  0,  0 CYC:2829
C7AB  29 80     AND #$80                        A:00 X:FF Y:00 P:26 SP:FF PPU:  0,  0 CYC:2833
C7AD  F0 F9     BEQ $C7A8                       A:00 X:FF Y:00 P:26 SP:FF PPU:  0,  0 CYC:2835
C7A8  AD 02 20  LDA $2002 = 00                  A:00 X:FF Y:00 P:26 SP:FF PPU:  0,  0 CYC:2838
C7AB  29 80     AND #$80                        A:00 X:FF Y:00 P:26 SP:FF PPU:  0,  0 CYC:2842
C7AD  F0 F9     BEQ $C7A8                       A:00 X:FF Y:00 P:26 SP:FF PPU:  0,  0 CYC:2844
C7A8  AD 02 20  LDA $2002 = 00                  A:00 X:FF Y:00 P:26 SP:FF PPU:  0,  0 CYC:2847
C7AB  29 80     AND #$80                        A:00 X:FF Y:00 P:26 SP:FF PPU:  0,  0 CYC:2851
C7AD  F0 F9     BEQ $C7A8                       A:00 X:FF Y:00 P:26 SP:FF PPU:  0,  0 CYC:2853
C7A8  AD 02 20  LDA $2002 = 00                  A:00 X:FF Y:00 P:26 SP:FF PPU:  0,  0 CYC:2856
C7AB  29 80     AND #$80                        A:00 X:FF Y:00 P:26 SP:FF PPU:  0,  0 CYC:2860
C7AD  F0 F9     BEQ $C7A8                       A:00 X:FF Y:00 P:26 SP:FF PPU:  0,  0 CYC:2862
C7A8  AD 02 20  LDA $2002 = 00                  A:00 X:FF Y:00 P:26 SP:FF PPU:  0,  0 CYC:2865
C7AB  29 80     AND #$80                        A:00 X:FF Y:00 P:26 SP:FF PPU:  0,  0 CYC:2869
C7AD  F0 F9     BEQ $C7A8                       A:00 X:FF Y:00 P:26 SP:FF PPU:  0,  0 CYC:2871
C7A8  AD 02 20  LDA $2002 = 00                  A:00 X:FF Y:00 P:26 SP:FF PPU:  0,  0 CYC:2874
C7AB  29 80     AND #$80                        A:00 X:FF Y:00 P:26 SP:FF PPU:  0,  0 CYC:2878
C7AD  F0 F9     BEQ $C7A8                       A:00 X:FF Y:00 P:26 SP:FF PPU:  0,  0 CYC:2880
C7A8  AD 02 20  LDA $2002 = 00                  A:00 X:FF Y:00 P:26 SP:FF PPU:  0,  0 CYC:2883
C7AB  29 80     AND #$80                        A:00 X:FF Y:00 P:26 SP:FF PPU:  0,  0 CYC:2887
C7AD  F0 F9     BEQ $C7A8                       A:00 X:FF Y:00 P:26 SP:FF PPU:  0,  0 CYC:2889
C7A8  AD 02 20  LDA $2002 = 00                  A:00 X:FF Y:00 P:26 SP:FF PPU:  0,  0 CYC:2892
C7AB  29 80     AND #$80                        A:00 X:FF Y:00 P:26 SP:FF PPU:  0,  0 CYC:2896
C7AD  F0 F9     BEQ $C7A8                       A:00 X:FF Y:00 P:26 SP:FF PPU:  0,  0 CYC:2898
C7A8  AD 02 20  LDA $2002 = 00                  A:00 X:FF Y:00 P:26 SP:FF PPU:  0,  0 CYC:2901
C7AB  29 80     AND #$80                        A:00 X:FF Y:00 P:26 SP:FF PPU:  0,  0 CYC:2905
C7AD  F0 F9     BEQ $C7A8                       A:00 X:FF Y:00 P:26 SP:FF PPU:  0,  0 CYC:2907
C7A8  AD 02 20  LDA $2002 = 00                  A:00 X:FF Y:00 P:26 SP:FF PPU:  0,  0 CYC:2910
C7AB  29 80     AND #$80                        A:00 X:FF Y:00 P:26 SP:FF PPU:  0,  0 CYC:2914
C7AD  F0 F9     BEQ $C7A8                       A:00 X:FF Y:00 P:26 SP:FF PPU:  0,  0 CYC:2916
C7A8  AD 02 20  LDA $2002 = 00                  A:00 X:FF Y:00 P:26 SP:FF PPU:  0,  0 CYC:2919
C7AB  29 80     AND #$80                        A:00 X:FF Y:00 P:26 SP:FF PPU:  0,  0 CYC:2923
C7AD  F0 F9     BEQ $C7A8                       A:00 X:FF Y:00 P:26 SP:FF PPU:  0,  0 CYC:2925
C7A8  AD 02 20  LDA $2002 = 00                  A:00 X:FF Y:00 P:26 SP:FF PPU:  0,  0 CYC:2928
C7AB  29 80     AND #$80                        A:00 X:FF Y:00 P:26 SP:FF PPU:  0,  0 CYC:2932
C7AD  F0 F9     BEQ $C7A8                       A:00 X:FF Y:00 P:26 SP:FF PPU:  0,  0 CYC:2934
C7A8  AD 02 20  LDA $2002 = 00                  A:00 X:FF Y:00 P:26 SP:FF PPU:  0,  0 CYC:2937
C7AB  29 80     AND #$80                        A:00 X:FF Y:00 P:26 SP:FF PPU:  0,  0 CYC:2941
C7AD  F0 F9     BEQ $C7A8                       A:00 X:FF Y:00 P:26 SP:FF PPU:  0,  0 CYC:2943
C7A8  AD 02 20  LDA $2002 = 00                  A:00 X:FF Y:00 P:26 SP:FF PPU:  0,  0 CYC:2946
C7AB  29 80     AND #$80                        A:00 X:FF Y:00 P:26 SP:FF PPU:  0,  0 CYC:2950
C7AD  F0 F9     BEQ $C7A8                       A:00 X:FF Y:00 P:26 SP:FF PPU:  0,  0 CYC:2952
C7A8  AD 02 20  LDA $2002 = 00                  A:00 X:FF Y:00 P:26 SP:FF PPU:  0,  0 CYC:2955
C7AB  29 80     AND #$80                        A:00 X:FF Y:00 P:26 SP:FF PPU:  0,  0 CYC:2959
C7AD  F0 F9     BEQ $C7A8                       A:00 X:FF Y:00 P:26 SP:FF PPU:  0,  0 CYC:2961
C7A8  AD 02 20  LDA $2002 = 00                  A:00 X:FF Y:00 P:26 SP:FF PPU:  0,  0 CYC:2964
C7AB  29 80     AND #$80                        A:00 X:FF Y:00 P:26 SP:FF PPU:  0,  0 CYC:2968
C7AD  F0 F9     BEQ $C7A8                       A:00 X:FF Y:00 P:26 SP:FF PPU:  0,  0 CYC:2970
C7A8  AD 02 20  LDA $2002 = 00                  A:00 X:FF Y:00 P:26 SP:FF PPU:  0,  0 CYC:2973
C7AB  29 80     AND #$80                        A:00 X:FF Y:00 P:26 SP:FF PPU:  0,  0 CYC:2977
C7AD  F0 F9     BEQ $C7A8                       A:00 X:FF Y:00 P:26 SP:FF PPU:  0,  0 CYC:2979
C7A8  AD 02 20  LDA $2002 = 00                  A:00 X:FF Y:00 P:26 SP:FF PPU:  0,  0 CYC:2982
C7AB  29 80     AND #$80                        A:00 X:FF Y:00 P:26 SP:FF PPU:  0,  0 CYC:2986
C7AD  F0 F9     BEQ $C7A8                       A:00 X:FF Y:00 P:26 SP:FF PPU:  0,  0 CYC:2988
C7A8  AD 02 20  LDA $2002 = 00                  A:00 X:FF Y:00 P:26 SP:FF PPU:  0,  0 CYC:2991
C7AB  29 80     AND #$80                        A:00 X:FF Y:00 P:26 SP:FF PPU:  0,  0 CYC:2995
C7AD  F0 F9     BEQ $C7A8                       A:00 X:FF Y:00 P:26 SP:FF PPU:  0,  0 CYC:2997
C7A8  AD 02 20  LDA $2002 = 00                  A:00 X:FF Y:00 P:26 SP:FF PPU:  0,  0 CYC:3000
C7AB  29 80     AND #$80                        A:00 X:FF Y:00 P:26 SP:FF PPU:  0,  0 CYC:3004
C7AD  F0 F9     BEQ $C7A8                       A:00 X:FF Y:00 P:26 SP:FF PPU:  0,  0 CYC:3006
C7A8  AD 02 20  LDA $2002 = 00                  A:00 X:FF Y:00 P:26 SP:FF PPU:  0,  0 CYC:3009
C7AB  29 80     AND #$80                        A:00 X:FF Y:00 P:26 SP:FF PPU:  0,  0 CYC:3013
C7AD  F0 F9     BEQ $C7A8                       A:00 X:FF Y:00 P:26 SP:FF PPU:  0,  0 CYC:3015
C7A8  AD 02 20  LDA $2002 = 00                  A:00 X:FF Y:00 P:26 SP:FF PPU:  0,  0 CYC:3018
C7AB  29 80     AND #$80                        A:00 X:FF Y:00 P:26 SP:FF PPU:  0,  0 CYC:3022
C7AD  F0 F9     BEQ $C7A8                       A:00 X:FF Y:00 P:26 SP:FF PPU:  0,  0 CYC:3024
C7A8  AD 02 20  LDA $2002 = 00                  A:00 X:FF Y:00 P:26 SP:FF PPU:  0,  0 CYC:3027
C7AB  29 80     AND #$80                        A:00 X:FF Y:00 P:26 SP:FF PPU:  0,  0 CYC:3031
C7AD  F0 F9     BEQ $C7A8                       A:00 X:FF Y:00 P:26 SP:FF PPU:  0,  0 CYC:3033
C7A8  AD 02 20  LDA $2002 = 00                  A:00 X:FF Y:00 P:26 SP:FF PPU:  0,  0 CYC:3036
C7AB  29 80     AND #$80                        A:00 X:FF Y:00 P:26 SP:FF PPU:  0,  0 CYC:3040
C7AD  F0 F9     BEQ $C7A8                       A:00 X:FF Y:00 P:26 SP:FF PPU:  0,  0 CYC:3042
C7A8  AD 02 20  LDA $2002 = 00                  A:00 X:FF Y:00 P:26 SP:FF PPU:  0,  0 CYC:3045
C7AB  29 80     AND #$80                        A:00 X:FF Y:00 P:26 SP:FF PPU:  0,  0 CYC:3049
C7AD  F0 F9     BEQ $C7A8                       A:00 X:FF Y:00 P:26 SP:FF PPU:  0,  0 CYC:3051
C7A8  AD 02 20  LDA $2002 = 00                  A:00 X:FF Y:00 P:26 SP:FF PPU:  0,  0 CYC:3054
C7AB  29 80     AND #$80                        A:00 X:FF Y:00 P:26 SP:FF PPU:  0,  0 CYC:3058
C7AD  F0 F9     BEQ $C7A8                       A:00 X:FF Y:00 P:26 SP:FF PPU:  0,  0 CYC:3060
C7A8  AD 02 20  LDA $2002 = 00                  A:00 X:FF Y:00 P:26 SP:FF PPU:  0,  0 CYC:3063
C7AB  29 80     AND #$80                        A:00 X:FF Y:00 P:26 SP:FF PPU:  0,  0 CYC:3067
C7AD  F0 F9     BEQ $C7A8                       A:00 X:FF Y:00 P:26 SP:FF PPU:  0,  0 CYC:3069
C7A8  AD 02 20  LDA $2002 = 00                  A:00 X:FF Y:00 P:26 SP:FF PPU:  0,  0 CYC:3072
C7AB  29 80     AND #$80                        A:00 X:FF Y:00 P:26 SP:FF PPU:  0,  0 CYC:3076
C7AD  F0 F9     BEQ $C7A8                       A:00 X:FF Y:00 P:26 SP:FF PPU:  0,  0 CYC:3078
C7A8  AD 02 20  LDA $2002 = 00                  A:00 X:FF Y:00 P:26 SP:FF PPU:  0,  0 CYC:3081
C7AB  29 80     AND #$80                        A:00 X:FF Y:00 P:26 SP:FF PPU:  0,  0 CYC:3085
C7AD  F0 F9     BEQ $C7A8                       A:00 X:FF Y:00 P:26 SP:FF PPU:  0,  0 CYC:3087
C7A8  AD 02 20  LDA $2002 = 00                  A:00 X:FF Y:00 P:26 SP:FF PPU:  0,  0 CYC:3090
C7AB  29 80     AND #$80                        A:00 X:FF Y:00 P:26 SP:FF PPU:  0,  0 CYC:3094
C7AD  F0 F9     BEQ $C7A8                       A:00 X:FF Y:00 P:26 SP:FF PPU:  0,  0 CYC:3096
C7A8  AD 02 20  LDA $2002 = 00                  A:00 X:FF Y:00 P:26 SP:FF PPU:  0,  0 CYC:3099
C7AB  29 80     AND #$80                        A:00 X:FF Y:00 P:26 SP:FF PPU:  0,  0 CYC:3103
C7AD  F0 F9     BEQ $C7A8                       A:00 X:FF Y:00 P:26 SP:FF PPU:  0,  0 CYC:3105
C7A8  AD 02 20  LDA $2002 = 00                  A:00 X:FF Y:00 P:26 SP:FF PPU:  0,  0 CYC:3108
C7AB  29 80     AND #$80                        A:00 X:FF Y:00 P:26 SP:FF PPU:  0,  0 CYC:3112
C7AD  F0 F9     BEQ $C7A8                       A:00 X:FF Y:00 P:26 SP:FF PPU:  0,  0 CYC:3114
C7A8  AD 02 20  LDA $2002 = 00                  A:00 X:FF Y:00 P:26 SP:FF PPU:  0,  0 CYC:3117
C7AB  29 80     AND #$80                        A:00 X:FF Y:00 P:26 SP:FF PPU:  0,  0 CYC:3121
C7AD  F0 F9     BEQ $C7A8                       A:00 X:FF Y:00 P:26 SP:FF PPU:  0,  0 CYC:3123
C7A8  AD 02 20  LDA $2002 = 00                  A:00 X:FF Y:00 P:26 SP:FF PPU:  0,  0 CYC:3126
C7AB  29 80     AND #$80                        A:00 X:FF Y:00 P:26 SP:FF PPU:  0,  0 CYC:3130
C7AD  F0 F9     BEQ $C7A8                       A:00 X:FF Y:00 P:26 SP:FF PPU:  0,  0 CYC:3132
C7A8  AD 02 20  LDA $2002 = 00                  A:00 X:FF Y:00 P:26 SP:FF PPU:  0,  0 CYC:3135
C7AB  29 80     AND #$80                        A:00 X:FF Y:00 P:26 SP:FF PPU:  0,  0 CYC:3139
C7AD  F0 F9     BEQ $C7A8                       A:00 X:FF Y:00 P:26 SP:FF PPU:  0,  0 CYC:3141
C7A8  AD 02 20  LDA $2002 = 00                  A:00 X:FF Y:00 P:26 SP:FF PPU:  0,  0 CYC:3144
C7AB  29 80     AND #$80                        A:00 X:FF Y:00 P:26 SP:FF PPU:  0,  0 CYC:3148
C7AD  F0 F9     BEQ $C7A8                       A:00 X:FF Y:00 P:26 SP:FF PPU:  0,  0 CYC:3150
C7A8  AD 02 20  LDA $2002 = 00                  A:00 X:FF Y:00 P:26 SP:FF PPU:  0,  0 CYC:3153
C7AB  29 80     AND #$80                        A:00 X:FF Y:00 P:26 SP:FF PPU:  0,  0 CYC:3157
C7AD  F0 F9     BEQ $C7A8                       A:00 X:FF Y:00 P:26 SP:FF PPU:  0,  0 CYC:3159
C7A8  AD 02 20  LDA $2002 = 00                  A:00 X:FF Y:00 P:26 SP:FF PPU:  0,  0 CYC:3162
C7AB  29 80     AND #$80                        A:00 X:FF Y:00 P:26 SP:FF PPU:  0,  0 CYC:3166
C7AD  F0 F9     BEQ $C7A8                       A:00 X:FF Y:00 P:26 SP:FF PPU:  0,  0 CYC:3168
C7A8  AD 02 20  LDA $2002 = 00                  A:00 X:FF Y:00 P:26 SP:FF PPU:  0,  0 CYC:3171
C7AB  29 80     AND #$80                        A:00 X:FF Y:00 P:26 SP:FF PPU:  0,  0 CYC:3175
C7AD  F0 F9     BEQ $C7A8                       A:00 X:FF Y:00 P:26 SP:FF PPU:  0,  0 CYC:3177
C7A8  AD 02 20  LDA $2002 = 00                  A:00 X:FF Y:00 P:26 SP:FF PPU:  0,  0 CYC:3180
C7AB  29 80     AND #$80                        A:00 X:FF Y:00 P:26 SP:FF PPU:  0,  0 CYC:3184
C7AD  F0 F9     BEQ $C7A8                       A:00 X:FF Y:00 P:26 SP:FF PPU:  0,  0 CYC:3186
C7A8  AD 02 20  LDA $2002 = 00                  A:00 X:FF Y:00 P:26 SP:FF PPU:  0,  0 CYC:3189
C7AB  29 80     AND #$80                        A:00 X:FF Y:00 P:26 SP:FF PPU:  0,  0 CYC:3193
C7AD  F0 F9     BEQ $C7A8                       A:00 X:FF Y:00 P:26 SP:FF PPU:  0,  0 CYC:3195
C7A8  AD 02 20  LDA $2002 = 00                  A:00 X:FF Y:00 P:26 SP:FF PPU:  0,  0 CYC:3198
C7AB  29 80     AND #$80                        A:00 X:FF Y:00 P:26 SP:FF PPU:  0,  0 CYC:3202
C7AD  F0 F9     BEQ $C7A8                       A:00 X:FF Y:00 P:26 SP:FF PPU:  0,  0 CYC:3204
C7A8  AD 02 20  LDA $2002 = 00                  A:00 X:FF Y:00 P:26 SP:FF PPU:  0,  0 CYC:3207
C7AB  29 80     AND #$80                        A:00 X:FF Y:00 P:26 SP:FF PPU:  0,  0 CYC:3211
C7AD  F0 F9     BEQ $C7A8                       A:00 X:FF Y:00 P:26 SP:FF PPU:  0,  0 CYC:3213
C7A8  AD 02 20  LDA $2002 = 00                  A:00 X:FF Y:00 P:26 SP:FF PPU:  0,  0 CYC:3216
C7AB  29 80     AND #$80                        A:00 X:FF Y:00 P:26 SP:FF PPU:  0,  0 CYC:3220
C7AD  F0 F9     BEQ $C7A8                       A:00 X:FF Y:00 P:26 SP:FF PPU:  0,  0 CYC:3222
C7A8  AD 02 20  LDA $2002 = 00                  A:00 X:FF Y:00 P:26 SP:FF PPU:  0,  0 CYC:3225
C7AB  29 80     AND #$80                        A:00 X:FF Y:00 P:26 SP:FF PPU:  0,  0 CYC:3229
C7AD  F0 F9     BEQ $C7A8                       A:00 X:FF Y:00 P:26 SP:FF PPU:  0,  0 CYC:3231
C7A8  AD 02 20  LDA $2002 = 00                  A:00 X:FF Y:00 P:26 SP:FF PPU:  0,  0 CYC:3234
C7AB  29 80     AND #$80                        A:00 X:FF Y:00 P:26 SP:FF PPU:  0,  0 CYC:3238
C7AD  F0 F9     BEQ $C7A8                       A:00 X:FF Y:00 P:26 SP:FF PPU:  0,  0 CYC:3240
C7A8  AD 02 20  LDA $2002 = 00                  A:00 X:FF Y:00 P:26 SP:FF PPU:  0,  0 CYC:3243
C7AB  29 80     AND #$80                        A:00 X:FF Y:00 P:26 SP:FF PPU:  0,  0 CYC:3247
C7AD  F0 F9     BEQ $C7A8                       A:00 X:FF Y:00 P:26 SP:FF PPU:  0,  0 CYC:3249
C7A8  AD 02 20  LDA $2002 = 00                  A:00 X:FF Y:00 P:26 SP:FF PPU:  0,  0 CYC:3252
C7AB  29 80     AND #$80                        A:00 X:FF Y:00 P:26 SP:FF PPU:  0,  0 CYC:3256
C7AD  F0 F9     BEQ $C7A8                       A:00 X:FF Y:00 P:26 SP:FF PPU:  0,  0 CYC:3258
C7A8  AD 02 20  LDA $2002 = 00                  A:00 X:FF Y:00 P:26 SP:FF PPU:  0,  0 CYC:3261
C7AB  29 80     AND #$80                        A:00 X:FF Y:00 P:26 SP:FF PPU:  0,  0 CYC:3265
C7AD  F0 F9     BEQ $C7A8                       A:00 X:FF Y:00 P:26 SP:FF PPU:  0,  0 CYC:3267
C7A8  AD 02 20  LDA $2002 = 00                  A:00 X:FF Y:00 P:26 SP:FF PPU:  0,  0 CYC:3270
C7AB  29 80     AND #$80                        A:00 X:FF Y:00 P:26 SP:FF PPU:  0,  0 CYC:3274
C7AD  F0 F9     BEQ $C7A8                       A:00 X:FF Y:00 P:26 SP:FF PPU:  0,  0 CYC:3276
C7A8  AD 02 20  LDA $2002 = 00                  A:00 X:FF Y:00 P:26 SP:FF PPU:  0,  0 CYC:3279
C7AB  29 80     AND #$80                        A:00 X:FF Y:00 P:26 SP:FF PPU:  0,  0 CYC:3283
C7AD  F0 F9     BEQ $C7A8                       A:00 X:FF Y:00 P:26 SP:FF PPU:  0,  0 CYC:3285
C7A8  AD 02 20  LDA $2002 = 00                  A:00 X:FF Y:00 P:26 SP:FF PPU:  0,  0 CYC:3288
C7AB  29 80     AND #$80                        A:00 X:FF Y:00 P:26 SP:FF PPU:  0,  0 CYC:3292
C7AD  F0 F9     BEQ $C7A8                       A:00 X:FF Y:00 P:26 SP:FF PPU:  0,  0 CYC:3294
C7A8  AD 02 20  LDA $2002 = 00                  A:00 X:FF Y:00 P:26 SP:FF PPU:  0,  0 CYC:3297
C7AB  29 80     AND #$80                        A:00 X:FF Y:00 P:26 SP:FF PPU:  0,  0 CYC:3301
C7AD  F0 F9     BEQ $C7A8                       A:00 X:FF Y:00 P:26 SP:FF PPU:  0,  0 CYC:3303
C7A8  AD 02 20  LDA $2002 = 00                  A:00 X:FF Y:00 P:26 SP:FF PPU:  0,  0 CYC:3306
C7AB  29 80     AND #$80                        A:00 X:FF Y:00 P:26 SP:FF PPU:  0,  0 CYC:3310
C7AD  F0 F9     BEQ $C7A8                       A:00 X:FF Y:00 P:26 SP:FF PPU:  0,  0 CYC:3312
C7A8  AD 02 20  LDA $2002 = 00                  A:00 X:FF Y:00 P:26 SP:FF PPU:  0,  0 CYC:3315
C7AB  29 80     AND #$80                        A:00 X:FF Y:00 P:26 SP:FF PPU:  0,  0 CYC:3319
C7AD  F0 F9     BEQ $C7A8                       A:00 X:FF Y:00 P:26 SP:FF PPU:  0,  0 CYC:3321
C7A8  AD 02 20  LDA $2002 = 00                  A:00 X:FF Y:00 P:26 SP:FF PPU:  0,  0 CYC:3324
C7AB  29 80     AND #$80                        A:00 X:FF Y:00 P:26 SP:FF PPU:  0,  0 CYC:3328
C7AD  F0 F9     BEQ $C7A8                       A:00 X:FF Y:00 P:26 SP:FF PPU:  0,  0 CYC:3330
C7A8  AD 02 20  LDA $2002 = 00                  A:00 X:FF Y:00 P:26 SP:FF PPU:  0,  0 CYC:3333
C7AB  29 80     AND #$80                        A:00 X:FF Y:00 P:26 SP:FF PPU:  0,  0 CYC:3337
C7AD  F0 F9     BEQ $C7A8                       A:00 X:FF Y:00 P:26 SP:FF PPU:  0,  0 CYC:3339
C7A8  AD 02 20  LDA $2002 = 00                  A:00 X:FF Y:00 P:26 SP:FF PPU:  0,  0 CYC:3342
C7AB  29 80     AND #$80                        A:00 X:FF Y:00 P:26 SP:FF PPU:  0,  0 CYC:3346
C7AD  F0 F9     BEQ $C7A8                       A:00 X:FF Y:00 P:26 SP:FF PPU:  0,  0 CYC:3348
C7A8  AD 02 20  LDA $2002 = 00                  A:00 X:FF Y:00 P:26 SP:FF PPU:  0,  0 CYC:3351
C7AB  29 80     AND #$80                        A:00 X:FF Y:00 P:26 SP:FF PPU:  0,  0 CYC:3355
C7AD  F0 F9     BEQ $C7A8                       A:00 X:FF Y:00 P:26 SP:FF PPU:  0,  0 CYC:3357
C7A8  AD 02 20  LDA $2002 = 00                  A:00 X:FF Y:00 P:26 SP:FF PPU:  0,  0 CYC:3360
C7AB  29 80     AND #$80                        A:00 X:FF Y:00 P:26 SP:FF PPU:  0,  0 CYC:3364
C7AD  F0 F9     BEQ $C7A8                       A:00 X:FF Y:00 P:26 SP:FF PPU:  0,  0 CYC:3366
C7A8  AD 02 20  LDA $2002 = 00                  A:00 X:FF Y:00 P:26 SP:FF PPU:  0,  0 CYC:3369
C7AB  29 80     AND #$80                        A:00 X:FF Y:00 P:26 SP:FF PPU:  0,  0 CYC:3373
C7AD  F0 F9     BEQ $C7A8                       A:00 X:FF Y:00 P:26 SP:FF PPU:  0,  0 CYC:3375
C7A8  AD 02 20  LDA $2002 = 00                  A:00 X:FF Y:00 P:26 SP:FF PPU:  0,  0 CYC:3378
C7AB  29 80     AND #$80                        A:00 X:FF Y:00 P:26 SP:FF PPU:  0,  0 CYC:3382
C7AD  F0 F9     BEQ $C7A8                       A:00 X:FF Y:00 P:26 SP:FF PPU:  0,  0 CYC:3384
C7A8  AD 02 20  LDA $2002 = 00                  A:00 X:FF Y:00 P:26 SP:FF PPU:  0,  0 CYC:3387
C7AB  29 80     AND #$80                        A:00 X:FF Y:00 P:26 SP:FF PPU:  0,  0 CYC:3391
C7AD  F0 F9     BEQ $C7A8                       A:00 X:FF Y:00 P:26 SP:FF PPU:  0,  0 CYC:3393
C7A8  AD 02 20  LDA $2002 = 00                  A:00 X:FF Y:00 P:26 SP:FF PPU:  0,  0 CYC:3396
C7AB  29 80     AND #$80                        A:00 X:FF Y:00 P:26 SP:FF PPU:  0,  0 CYC:3400
C7AD  F0 F9     BEQ $C7A8                       A:00 X:FF Y:00 P:26 SP:FF PPU:  0,  0 CYC:3402
C7A8  AD 02 20  LDA $2002 = 00                  A:00 X:FF Y:00 P:26 SP:FF PPU:  0,  0 CYC:3405
C7AB  29 80     AND #$80                        A:00 X:FF Y:00 P:26 SP:FF PPU:  0,  0 CYC:3409
C7AD  F0 F9     BEQ $C7A8                       A:00 X:FF Y:00 P:26 SP:FF PPU:  0,  0 CYC:3411
C7A8  AD 02 20  LDA $2002 = 00                  A:00 X:FF Y:00 P:26 SP:FF PPU:  0,  0 CYC:3414
C7AB  29 80     AND #$80                        A:00 X:FF Y:00 P:26 SP:FF PPU:  0,  0 CYC:3418
C7AD  F0 F9     BEQ $C7A8                       A:00 X:FF Y:00 P:26 SP:FF PPU:  0,  0 CYC:3420
C7A8  AD 02 20  LDA $2002 = 00                  A:00 X:FF Y:00 P:26 SP:FF PPU:  0,  0 CYC:3423
C7AB  29 80     AND #$80                        A:00 X:FF Y:00 P:26 SP:FF PPU:  0,  0 CYC:3427
C7AD  F0 F9     BEQ $C7A8                       A:00 X:FF Y:00 P:26 SP:FF PPU:  0,  0 CYC:3429
C7A8  AD 02 20  LDA $2002 = 00                  A:00 X:FF Y:00 P:26 SP:FF PPU:  0,  0 CYC:3432
C7AB  29 80     AND #$80                        A:00 X:FF Y:00 P:26 SP:FF PPU:  0,  0 CYC:3436
C7AD  F0 F9     BEQ $C7A8                       A:00 X:FF Y:00 P:26 SP:FF PPU:  0,  0 CYC:3438
C7A8  AD 02 20  LDA $2002 = 00                  A:00 X:FF Y:00 P:26 SP:FF PPU:  0,  0 CYC:3441
C7AB  29 80     AND #$80                        A:00 X:FF Y:00 P:26 SP:FF PPU:  0,  0 CYC:3445
C7AD  F0 F9     BEQ $C7A8                       A:00 X:FF Y:00 P:26 SP:FF PPU:  0,  0 CYC:3447
C7A8  AD 02 20  LDA $2002 = 00                  A:00 X:FF Y:00 P:26 SP:FF PPU:  0,  0 CYC:3450
C7AB  29 80     AND #$80                        A:00 X:FF Y:00 P:26 SP:FF PPU:  0,  0 CYC:3454
C7AD  F0 F9     BEQ $C7A8                       A:00 X:FF Y:00 P:26 SP:FF PPU:  0,  0 CYC:3456
C7A8  AD 02 20  LDA $2002 = 00                  A:00 X:FF Y:00 P:26 SP:FF PPU:  0,  0 CYC:3459
C7AB  29 80     AND #$80                        A:00 X:FF Y:00 P:26 SP:FF PPU:  0,  0 CYC:3463
C7AD  F0 F9     BEQ $C7A8                       A:00 X:FF Y:00 P:26 SP:FF PPU:  0,  0 CYC:3465
C7A8  AD 02 20  LDA $2002 = 00                  A:00 X:FF Y:00 P:26 SP:FF PPU:  0,  0 CYC:3468
C7AB  29 80     AND #$80                        A:00 X:FF Y:00 P:26 SP:FF PPU:  0,  0 CYC:3472
C7AD  F0 F9     BEQ $C7A8                       A:00 X:FF Y:00 P:26 SP:FF PPU:  0,  0 CYC:3474
C7A8  AD 02 20  LDA $2002 = 00                  A:00 X:FF Y:00 P:26 SP:FF PPU:  0,  0 CYC:3477
C7AB  29 80     AND #$80                        A:00 X:FF Y:00 P:26 SP:FF PPU:  0,  0 CYC:3481
C7AD  F0 F9     BEQ $C7A8                       A:00 X:FF Y:00 P:26 SP:FF PPU:  0,  0 CYC:3483
C7A8  AD 02 20  LDA $2002 = 00                  A:00 X:FF Y:00 P:26 SP:FF PPU:  0,  0 CYC:3486
C7AB  29 80     AND #$80                        A:00 X:FF Y:00 P:26 SP:FF PPU:  0,  0 CYC:3490
C7AD  F0 F9     BEQ $C7A8                       A:00 X:FF Y:00 P:26 SP:FF PPU:  0,  0 CYC:3492
C7A8  AD 02 20  LDA $2002 = 00                  A:00 X:FF Y:00 P:26 SP:FF PPU:  0,  0 CYC:3495
C7AB  29 80     AND #$80                        A:00 X:FF Y:00 P:26 SP:FF PPU:  0,  0 CYC:3499
C7AD  F0 F9     BEQ $C7A8                       A:00 X:FF Y:00 P:26 SP:FF PPU:  0,  0 CYC:3501
C7A8  AD 02 20  LDA $2002 = 00                  A:00 X:FF Y:00 P:26 SP:FF PPU:  0,  0 CYC:3504
C7AB  29 80     AND #$80                        A:00 X:FF Y:00 P:26 SP:FF PPU:  0,  0 CYC:3508
C7AD  F0 F9     BEQ $C7A8                       A:00 X:FF Y:00 P:26 SP:FF PPU:  0,  0 CYC:3510
C7A8  AD 02 20  LDA $2002 = 00                  A:00 X:FF Y:00 P:26 SP:FF PPU:  0,  0 CYC:3513
C7AB  29 80     AND #$80                        A:00 X:FF Y:00 P:26 SP:FF PPU:  0,  0 CYC:3517
C7AD  F0 F9     BEQ $C7A8                       A:00 X:FF Y:00 P:26 SP:FF PPU:  0,  0 CYC:3519
C7A8  AD 02 20  LDA $2002 = 00                  A:00 X:FF Y:00 P:26 SP:FF PPU:  0,  0 CYC:3522
C7AB  29 80     AND #$80                        A:00 X:FF Y:00 P:26 SP:FF PPU:  0,  0 CYC:3526
C7AD  F0 F9     BEQ $C7A8                       A:00 X:FF Y:00 P:26 SP:FF PPU:  0,  0 CYC:3528
C7A8  AD 02 20  LDA $2002 = 00                  A:00 X:FF Y:00 P:26 SP:FF PPU:  0,  0 CYC:3531
C7AB  29 80     AND #$80                        A:00 X:FF Y:00 P:26 SP:FF PPU:  0,  0 CYC:3535
C7AD  F0 F9     BEQ $C7A8                       A:00 X:FF Y:00 P:26 SP:FF PPU:  0,  0 CYC:3537
C7A8  AD 02 20  LDA $2002 = 00                  A:00 X:FF Y:00 P:26 SP:FF PPU:  0,  0 CYC:3540
C7AB  29 80     AND #$80                        A:00 X:FF Y:00 P:26 SP:FF PPU:  0,  0 CYC:3544
C7AD  F0 F9     BEQ $C7A8                       A:00 X:FF Y:00 P:26 SP:FF PPU:  0,  0 CYC:3546
C7A8  AD 02 20  LDA $2002 = 00                  A:00 X:FF Y:00 P:26 SP:FF PPU:  0,  0 CYC:3549
C7AB  29 80     AND #$80                        A:00 X:FF Y:00 P:26 SP:FF PPU:  0,  0 CYC:3553
C7AD  F0 F9     BEQ $C7A8                       A:00 X:FF Y:00 P:26 SP:FF PPU:  0,  0 CYC:3555
C7A8  AD 02 20  LDA $2002 = 00                  A:00 X:FF Y:00 P:26 SP:FF PPU:  0,  0 CYC:3558
C7AB  29 80     AND #$80                        A:00 X:FF Y:00 P:26 SP:FF PPU:  0,  0 CYC:3562
C7AD  F0 F9     BEQ $C7A8                       A:00 X:FF Y:00 P:26 SP:FF PPU:  0,  0 CYC:3564
C7A8  AD 02 20  LDA $2002 = 00                  A:00 X:FF Y:00 P:26 SP:FF PPU:  0,  0 CYC:3567
C7AB  29 80     AND #$80                        A:00 X:FF Y:00 P:26 SP:FF PPU:  0,  0 CYC:3571
C7AD  F0 F9     BEQ $C7A8                       A:00 X:FF Y:00 P:26 SP:FF PPU:  0,  0 CYC:3573
C7A8  AD 02 20  LDA $2002 = 00                  A:00 X:FF Y:00 P:26 SP:FF PPU:  0,  0 CYC:3576
C7AB  29 80     AND #$80                        A:00 X:FF Y:00 P:26 SP:FF PPU:  0,  0 CYC:3580
C7AD  F0 F9     BEQ $C7A8                       A:00 X:FF Y:00 P:26 SP:FF PPU:  0,  0 CYC:3582
C7A8  AD 02 20  LDA $2002 = 00                  A:00 X:FF Y:00 P:26 SP:FF PPU:  0,  0 CYC:3585
C7AB  29 80     AND #$80                        A:00 X:FF Y:00 P:26 SP:FF PPU:  0,  0 CYC:3589
C7AD  F0 F9     BEQ $C7A8                       A:00 X:FF Y:00 P:26 SP:FF PPU:  0,  0 CYC:3591
C7A8  AD 02 20  LDA $2002 = 00                  A:00 X:FF Y:00 P:26 SP:FF PPU:  0,  0 CYC:3594
C7AB  29 80     AND #$80                        A:00 X:FF Y:00 P:26 SP:FF PPU:  0,  0 CYC:3598
C7AD  F0 F9     BEQ $C7A8                       A:00 X:FF Y:00 P:26 SP:FF PPU:  0,  0 CYC:3600
C7A8  AD 02 20  LDA $2002 = 00                  A:00 X:FF Y:00 P:26 SP:FF PPU:  0,  0 CYC:3603
C7AB  29 80     AND #$80                        A:00 X:FF Y:00 P:26 SP:FF PPU:  0,  0 CYC:3607
C7AD  F0 F9     BEQ $C7A8                       A:00 X:FF Y:00 P:26 SP:FF PPU:  0,  0 CYC:3609
C7A8  AD 02 20  LDA $2002 = 00                  A:00 X:FF Y:00 P:26 SP:FF PPU:  0,  0 CYC:3612
C7AB  29 80     AND #$80                        A:00 X:FF Y:00 P:26 SP:FF PPU:  0,  0 CYC:3616
C7AD  F0 F9     BEQ $C7A8                       A:00 X:FF Y:00 P:26 SP:FF PPU:  0,  0 CYC:3618
C7A8  AD 02 20  LDA $2002 = 00                  A:00 X:FF Y:00 P:26 SP:FF PPU:  0,  0 CYC:3621
C7AB  29 80     AND #$80                        A:00 X:FF Y:00 P:26 SP:FF PPU:  0,  0 CYC:3625
C7AD  F0 F9     BEQ $C7A8                       A:00 X:FF Y:00 P:26 SP:FF PPU:  0,  0 CYC:3627
C7A8  AD 02 20  LDA $2002 = 00                  A:00 X:FF Y:00 P:26 SP:FF PPU:  0,  0 CYC:3630
C7AB  29 80     AND #$80                        A:00 X:FF Y:00 P:26 SP:FF PPU:  0,  0 CYC:3634
C7AD  F0 F9     BEQ $C7A8                       A:00 X:FF Y:00 P:26 SP:FF PPU:  0,  0 CYC:3636
C7A8  AD 02 20  LDA $2002 = 00                  A:00 X:FF Y:00 P:26 SP:FF PPU:  0,  0 CYC:3639
C7AB  29 80     AND #$80                        A:00 X:FF Y:00 P:26 SP:FF PPU:  0,  0 CYC:3643
C7AD  F0 F9     BEQ $C7A8                       A:00 X:FF Y:00 P:26 SP:FF PPU:  0,  0 CYC:3645
C7A8  AD 02 20  LDA $2002 = 00                  A:00 X:FF Y:00 P:26 SP:FF PPU:  0,  0 CYC:3648
C7AB  29 80     AND #$80                        A:00 X:FF Y:00 P:26 SP:FF PPU:  0,  0 CYC:3652
C7AD  F0 F9     BEQ $C7A8                       A:00 X:FF Y:00 P:26 SP:FF PPU:  0,  0 CYC:3654
C7A8  AD 02 20  LDA $2002 = 00                  A:00 X:FF Y:00 P:26 SP:FF PPU:  0,  0 CYC:3657
C7AB  29 80     AND #$80                        A:00 X:FF Y:00 P:26 SP:FF PPU:  0,  0 CYC:3661
C7AD  F0 F9     BEQ $C7A8                       A:00 X:FF Y:00 P:26 SP:FF PPU:  0,  0 CYC:3663
C7A8  AD 02 20  LDA $2002 = 00                  A:00 X:FF Y:00 P:26 SP:FF PPU:  0,  0 CYC:3666
C7AB  29 80     AND #$80                        A:00 X:FF Y:00 P:26 SP:FF PPU:  0,  0 CYC:3670
C7AD  F0 F9     BEQ $C7A8                       A:00 X:FF Y:00 P:26 SP:FF PPU:  0,  0 CYC:3672
C7A8  AD 02 20  LDA $2002 = 00                  A:00 X:FF Y:00 P:26 SP:FF PPU:  0,  0 CYC:3675
C7AB  29 80     AND #$80                        A:00 X:FF Y:00 P:26 SP:FF PPU:  0,  0 CYC:3679
C7AD  F0 F9     BEQ $C7A8                       A:00 X:FF Y:00 P:26 SP:FF PPU:  0,  0 CYC:3681
C7A8  AD 02 20  LDA $2002 = 00                  A:00 X:FF Y:00 P:26 SP:FF PPU:  0,  0 CYC:3684
C7AB  29 80     AND #$80                        A:00 X:FF Y:00 P:26 SP:FF PPU:  0,  0 CYC:3688
C7AD  F0 F9     BEQ $C7A8                       A:00 X:FF Y:00 P:26 SP:FF PPU:  0,  0 CYC:3690
C7A8  AD 02 20  LDA $2002 = 00                  A:00 X:FF Y:00 P:26 SP:FF PPU:  0,  0 CYC:3693
C7AB  29 80     AND #$80                        A:00 X:FF Y:00 P:26 SP:FF PPU:  0,  0 CYC:3697
C7AD  F0 F9     BEQ $C7A8                       A:00 X:FF Y:00 P:26 SP:FF PPU:  0,  0 CYC:3699
C7A8  AD 02 20  LDA $2002 = 00                  A:00 X:FF Y:00 P:26 SP:FF PPU:  0,  0 CYC:3702
C7AB  29 80     AND #$80                        A:00 X:FF Y:00 P:26 SP:FF PPU:  0,  0 CYC:3706
C7AD  F0 F9     BEQ $C7A8                       A:00 X:FF Y:00 P:26 SP:FF PPU:  0,  0 CYC:3708
C7A8  AD 02 20  LDA $2002 = 00                  A:00 X:FF Y:00 P:26 SP:FF PPU:  0,  0 CYC:3711
C7AB  29 80     AND #$80                        A:00 X:FF Y:00 P:26 SP:FF PPU:  0,  0 CYC:3715
C7AD  F0 F9     BEQ $C7A8                       A:00 X:FF Y:00 P:26 SP:FF PPU:  0,  0 CYC:3717
C7A8  AD 02 20  LDA $2002 = 00                  A:00 X:FF Y:00 P:26 SP:FF PPU:  0,  0 CYC:3720
C7AB  29 80     AND #$80                        A:00 X:FF Y:00 P:26 SP:FF PPU:  0,  0 CYC:3724
C7AD  F0 F9     BEQ $C7A8                       A:00 X:FF Y:00 P:26 SP:FF PPU:  0,  0 CYC:3726
C7A8  AD 02 20  LDA $2002 = 00                  A:00 X:FF Y:00 P:26 SP:FF PPU:  0,  0 CYC:3729
C7AB  29 80     AND #$80                        A:00 X:FF Y:00 P:26 SP:FF PPU:  0,  0 CYC:3733
C7AD  F0 F9     BEQ $C7A8                       A:00 X:FF Y:00 P:26 SP:FF PPU:  0,  0 CYC:3735
C7A8  AD 02 20  LDA $2002 = 00                  A:00 X:FF Y:00 P:26 SP:FF PPU:  0,  0 CYC:3738
C7AB  29 80     AND #$80                        A:00 X:FF Y:00 P:26 SP:FF PPU:  0,  0 CYC:3742
C7AD  F0 F9     BEQ $C7A8                       A:00 X:FF Y:00 P:26 SP:FF PPU:  0,  0 CYC:3744
C7A8  AD 02 20  LDA $2002 = 00                  A:00 X:FF Y:00 P:26 SP:FF PPU:  0,  0 CYC:3747
C7AB  29 80     AND #$80                        A:00 X:FF Y:00 P:26 SP:FF PPU:  0,  0 CYC:3751
C7AD  F0 F9     BEQ $C7A8                       A:00 X:FF Y:00 P:26 SP:FF PPU:  0,  0 CYC:3753
C7A8  AD 02 20  LDA $2002 = 00                  A:00 X:FF Y:00 P:26 SP:FF PPU:  0,  0 CYC:3756
C7AB  29 80     AND #$80                        A:00 X:FF Y:00 P:26 SP:FF PPU:  0,  0 CYC:3760
C7AD  F0 F9     BEQ $C7A8                       A:00 X:FF Y:00 P:26 SP:FF PPU:  0,  0 CYC:3762
C7A8  AD 02 20  LDA $2002 = 00                  A:00 X:FF Y:00 P:26 SP:FF PPU:  0,  0 CYC:3765
C7AB  29 80     AND #$80                        A:00 X:FF Y:00 P:26 SP:FF PPU:  0,  0 CYC:3769
C7AD  F0 F9     BEQ $C7A8                       A:00 X:FF Y:00 P:26 SP:FF PPU:  0,  0 CYC:3771
C7A8  AD 02 20  LDA $2002 = 00                  A:00 X:FF Y:00 P:26 SP:FF PPU:  0,  0 CYC:3774
C7AB  29 80     AND #$80                        A:00 X:FF Y:00 P:26 SP:FF PPU:  0,  0 CYC:3778
C7AD  F0 F9     BEQ $C7A8                       A:00 X:FF Y:00 P:26 SP:FF PPU:  0,  0 CYC:3780
C7A8  AD 02 20  LDA $2002 = 00                  A:00 X:FF Y:00 P:26 SP:FF PPU:  0,  0 CYC:3783
C7AB  29 80     AND #$80                        A:00 X:FF Y:00 P:26 SP:FF PPU:  0,  0 CYC:3787
C7AD  F0 F9     BEQ $C7A8                       A:00 X:FF Y:00 P:26 SP:FF PPU:  0,  0 CYC:3789
C7A8  AD 02 20  LDA $2002 = 00                  A:00 X:FF Y:00 P:26 SP:FF PPU:  0,  0 CYC:3792
C7AB  29 80     AND #$80                        A:00 X:FF Y:00 P:26 SP:FF PPU:  0,  0 CYC:3796
C7AD  F0 F9     BEQ $C7A8                       A:00 X:FF Y:00 P:26 SP:FF PPU:  0,  0 CYC:3798
C7A8  AD 02 20  LDA $2002 = 00                  A:00 X:FF Y:00 P:26 SP:FF PPU:  0,  0 CYC:3801
C7AB  29 80     AND #$80                        A:00 X:FF Y:00 P:26 SP:FF PPU:  0,  0 CYC:3805
C7AD  F0 F9     BEQ $C7A8                       A:00 X:FF Y:00 P:26 SP:FF PPU:  0,  0 CYC:3807
C7A8  AD 02 20  LDA $2002 = 00                  A:00 X:FF Y:00 P:26 SP:FF PPU:  0,  0 CYC:3810
C7AB  29 80     AND #$80                        A:00 X:FF Y:00 P:26 SP:FF PPU:  0,  0 CYC:3814
C7AD  F0 F9     BEQ $C7A8                       A:00 X:FF Y:00 P:26 SP:FF PPU:  0,  0 CYC:3816
C7A8  AD 02 20  LDA $2002 = 00                  A:00 X:FF Y:00 P:26 SP:FF PPU:  0,  0 CYC:3819
C7AB  29 80     AND #$80                        A:00 X:FF Y:00 P:26 SP:FF PPU:  0,  0 CYC:3823
C7AD  F0 F9     BEQ $C7A8                       A:00 X:FF Y:00 P:26 SP:FF PPU:  0,  0 CYC:3825
C7A8  AD 02 20  LDA $2002 = 00                  A:00 X:FF Y:00 P:26 SP:FF PPU:  0,  0 CYC:3828
C7AB  29 80     AND #$80                        A:00 X:FF Y:00 P:26 SP:FF PPU:  0,  0 CYC:3832
C7AD  F0 F9     BEQ $C7A8                       A:00 X:FF Y:00 P:26 SP:FF PPU:  0,  0 CYC:3834
C7A8  AD 02 20  LDA $2002 = 00                  A:00 X:FF Y:00 P:26 SP:FF PPU:  0,  0 CYC:3837
C7AB  29 80     AND #$80                        A:00 X:FF Y:00 P:26 SP:FF PPU:  0,  0 CYC:3841
C7AD  F0 F9     BEQ $C7A8                       A:00 X:FF Y:00 P:26 SP:FF PPU:  0,  0 CYC:3843
C7A8  AD 02 20  LDA $2002 = 00                  A:00 X:FF Y:00 P:26 SP:FF PPU:  0,  0 CYC:3846
C7AB  29 80     AND #$80                        A:00 X:FF Y:00 P:26 SP:FF PPU:  0,  0 CYC:3850
C7AD  F0 F9     BEQ $C7A8                       A:00 X:FF Y:00 P:26 SP:FF PPU:  0,  0 CYC:3852
C7A8  AD 02 20  LDA $2002 = 00                  A:00 X:FF Y:00 P:26 SP:FF PPU:  0,  0 CYC:3855
C7AB  29 80     AND #$80                        A:00 X:FF Y:00 P:26 SP:FF PPU:  0,  0 CYC:3859
C7AD  F0 F9     BEQ $C7A8                       A:00 X:FF Y:00 P:26 SP:FF PPU:  0,  0 CYC:3861
C7A8  AD 02 20  LDA $2002 = 00                  A:00 X:FF Y:00 P:26 SP:FF PPU:  0,  0 CYC:3864
C7AB  29 80     AND #$80                        A:00 X:FF Y:00 P:26 SP:FF PPU:  0,  0 CYC:3868
C7AD  F0 F9     BEQ $C7A8                       A:00 X:FF Y:00 P:26 SP:FF PPU:  0,  0 CYC:3870
C7A8  AD 02 20  LDA $2002 = 00                  A:00 X:FF Y:00 P:26 SP:FF PPU:  0,  0 CYC:3873
C7AB  29 80     AND #$80                        A:00 X:FF Y:00 P:26 SP:FF PPU:  0,  0 CYC:3877
C7AD  F0 F9     BEQ $C7A8                       A:00 X:FF Y:00 P:26 SP:FF PPU:  0,  0 CYC:3879
C7A8  AD 02 20  LDA $2002 = 00                  A:00 X:FF Y:00 P:26 SP:FF PPU:  0,  0 CYC:3882
C7AB  29 80     AND #$80                        A:00 X:FF Y:00 P:26 SP:FF PPU:  0,  0 CYC:3886
C7AD  F0 F9     BEQ $C7A8                       A:00 X:FF Y:00 P:26 SP:FF PPU:  0,  0 CYC:3888
C7A8  AD 02 20  LDA $2002 = 00                  A:00 X:FF Y:00 P:26 SP:FF PPU:  0,  0 CYC:3891
C7AB  29 80     AND #$80                        A:00 X:FF Y:00 P:26 SP:FF PPU:  0,  0 CYC:3895
C7AD  F0 F9     BEQ $C7A8                       A:00 X:FF Y:00 P:26 SP:FF PPU:  0,  0 CYC:3897
C7A8  AD 02 20  LDA $2002 = 00                  A:00 X:FF Y:00 P:26 SP:FF PPU:  0,  0 CYC:3900
C7AB  29 80     AND #$80                        A:00 X:FF Y:00 P:26 SP:FF PPU:  0,  0 CYC:3904
C7AD  F0 F9     BEQ $C7A8                       A:00 X:FF Y:00 P:26 SP:FF PPU:  0,  0 CYC:3906
C7A8  AD 02 20  LDA $2002 = 00                  A:00 X:FF Y:00 P:26 SP:FF PPU:  0,  0 CYC:3909
C7AB  29 80     AND #$80                        A:00 X:FF Y:00 P:26 SP:FF PPU:  0,  0 CYC:3913
C7AD  F0 F9     BEQ $C7A8                       A:00 X:FF Y:00 P:26 SP:FF PPU:  0,  0 CYC:3915
C7A8  AD 02 20  LDA $2002 = 00                  A:00 X:FF Y:00 P:26 SP:FF PPU:  0,  0 CYC:3918
C7AB  29 80     AND #$80                        A:00 X:FF Y:00 P:26 SP:FF PPU:  0,  0 CYC:3922
C7AD  F0 F9     BEQ $C7A8                       A:00 X:FF Y:00 P:26 SP:FF PPU:  0,  0 CYC:3924
C7A8  AD 02 20  LDA $2002 = 00                  A:00 X:FF Y:00 P:26 SP:FF PPU:  0,  0 CYC:3927
C7AB  29 80     AND #$80                        A:00 X:FF Y:00 P:26 SP:FF PPU:  0,  0 CYC:3931
C7AD  F0 F9     BEQ $C7A8                       A:00 X:FF Y:00 P:26 SP:FF PPU:  0,  0 CYC:3933
C7A8  AD 02 20  LDA $2002 = 00                  A:00 X:FF Y:00 P:26 SP:FF PPU:  0,  0 CYC:3936
C7AB  29 80     AND #$80                        A:00 X:FF Y:00 P:26 SP:FF PPU:  0,  0 CYC:3940
C7AD  F0 F9     BEQ $C7A8                       A:00 X:FF Y:00 P:26 SP:FF PPU:  0,  0 CYC:3942
C7A8  AD 02 20  LDA $2002 = 00                  A:00 X:FF Y:00 P:26 SP:FF PPU:  0,  0 CYC:3945
C7AB  29 80     AND #$80                        A:00 X:FF Y:00 P:26 SP:FF PPU:  0,  0 CYC:3949
C7AD  F0 F9     BEQ $C7A8                       A:00 X:FF Y:00 P:26 SP:FF PPU:  0,  0 CYC:3951
C7A8  AD 02 20  LDA $2002 = 00                  A:00 X:FF Y:00 P:26 SP:FF PPU:  0,  0 CYC:3954
C7AB  29 80     AND #$80                        A:00 X:FF Y:00 P:26 SP:FF PPU:  0,  0 CYC:3958
C7AD  F0 F9     BEQ $C7A8                       A:00 X:FF Y:00 P:26 SP:FF PPU:  0,  0 CYC:3960
C7A8  AD 02 20  LDA $2002 = 00                  A:00 X:FF Y:00 P:26 SP:FF PPU:  0,  0 CYC:3963
C7AB  29 80     AND #$80                        A:00 X:FF Y:00 P:26 SP:FF PPU:  0,  0 CYC:3967
C7AD  F0 F9     BEQ $C7A8                       A:00 X:FF Y:00 P:26 SP:FF PPU:  0,  0 CYC:3969
C7A8  AD 02 20  LDA $2002 = 00                  A:00 X:FF Y:00 P:26 SP:FF PPU:  0,  0 CYC:3972
C7AB  29 80     AND #$80                        A:00 X:FF Y:00 P:26 SP:FF PPU:  0,  0 CYC:3976
C7AD  F0 F9     BEQ $C7A8                       A:00 X:FF Y:00 P:26 SP:FF PPU:  0,  0 CYC:3978
C7A8  AD 02 20  LDA $2002 = 00                  A:00 X:FF Y:00 P:26 SP:FF PPU:  0,  0 CYC:3981
C7AB  29 80     AND #$80                        A:00 X:FF Y:00 P:26 SP:FF PPU:  0,  0 CYC:3985
C7AD  F0 F9     BEQ $C7A8                       A:00 X:FF Y:00 P:26 SP:FF PPU:  0,  0 CYC:3987
C7A8  AD 02 20  LDA $2002 = 00                  A:00 X:FF Y:00 P:26 SP:FF PPU:  0,  0 CYC:3990
C7AB  29 80     AND #$80                        A:00 X:FF Y:00 P:26 SP:FF PPU:  0,  0 CYC:3994
C7AD  F0 F9     BEQ $C7A8                       A:00 X:FF Y:00 P:26 SP:FF PPU:  0,  0 CYC:3996
C7A8  AD 02 20  LDA $2002 = 00                  A:00 X:FF Y:00 P:26 SP:FF PPU:  0,  0 CYC:3999
C7AB  29 80     AND #$80                        A:00 X:FF Y:00 P:26 SP:FF PPU:  0,  0 CYC:4003
C7AD  F0 F9     BEQ $C7A8                       A:00 X:FF Y:00 P:26 SP:FF PPU:  0,  0 CYC:4005
C7A8  AD 02 20  LDA $2002 = 00                  A:00 X:FF Y:00 P:26 SP:FF PPU:  0,  0 CYC:4008
C7AB  29 80     AND #$80                        A:00 X:FF Y:00 P:26 SP:FF PPU:  0,  0 CYC:4012
C7AD  F0 F9     BEQ $C7A8                       A:00 X:FF Y:00 P:26 SP:FF PPU:  0,  0 CYC:4014
C7A8  AD 02 20  LDA $2002 = 00                  A:00 X:FF Y:00 P:26 SP:FF PPU:  0,  0 CYC:4017
C7AB  29 80     AND #$80                        A:00 X:FF Y:00 P:26 SP:FF PPU:  0,  0 CYC:4021
C7AD  F0 F9     BEQ $C7A8                       A:00 X:FF Y:00 P:26 SP:FF PPU:  0,  0 CYC:4023
C7A8  AD 02 20  LDA $2002 = 00                  A:00 X:FF Y:00 P:26 SP:FF PPU:  0,  0 CYC:4026
C7AB  29 80     AND #$80                        A:00 X:FF Y:00 P:26 SP:FF PPU:  0,  0 CYC:4030
C7AD  F0 F9     BEQ $C7A8                       A:00 X:FF Y:00 P:26 SP:FF PPU:  0,  0 CYC:4032
C7A8  AD 02 20  LDA $2002 = 00                  A:00 X:FF Y:00 P:26 SP:FF PPU:  0,  0 CYC:4035
C7AB  29 80     AND #$80                        A:00 X:FF Y:00 P:26 SP:FF PPU:  0,  0 CYC:4039
C7AD  F0 F9     BEQ $C7A8                       A:00 X:FF Y:00 P:26 SP:FF PPU:  0,  0 CYC:4041
C7A8  AD 02 20  LDA $2002 = 00                  A:00 X:FF Y:00 P:26 SP:FF PPU:  0,  0 CYC:4044
C7AB  29 80     AND #$80                        A:00 X:FF Y:00 P:26 SP:FF PPU:  0,  0 CYC:4048
C7AD  F0 F9     BEQ $C7A8                       A:00 X:FF Y:00 P:26 SP:FF PPU:  0,  0 CYC:4050
C7A8  AD 02 20  LDA $2002 = 00                  A:00 X:FF Y:00 P:26 SP:FF PPU:  0,  0 CYC:4053
C7AB  29 80     AND #$80                        A:00 X:FF Y:00 P:26 SP:FF PPU:  0,  0 CYC:4057
C7AD  F0 F9     BEQ $C7A8                       A:00 X:FF Y:00 P:26 SP:FF PPU:  0,  0 CYC:4059
C7A8  AD 02 20  LDA $2002 = 00                  A:00 X:FF Y:00 P:26 SP:FF PPU:  0,  0 CYC:4062
C7AB  29 80     AND #$80                        A:00 X:FF Y:00 P:26 SP:FF PPU:  0,  0 CYC:4066
C7AD  F0 F9     BEQ $C7A8                       A:00 X:FF Y:00 P:26 SP:FF PPU:  0,  0 CYC:4068
C7A8  AD 02 20  LDA $2002 = 00                  A:00 X:FF Y:00 P:26 SP:FF PPU:  0,  0 CYC:4071
C7AB  29 80     AND #$80                        A:00 X:FF Y:00 P:26 SP:FF PPU:  0,  0 CYC:4075
C7AD  F0 F9     BEQ $C7A8                       A:00 X:FF Y:00 P:26 SP:FF PPU:  0,  0 CYC:4077
C7A8  AD 02 20  LDA $2002 = 00                  A:00 X:FF Y:00 P:26 SP:FF PPU:  0,  0 CYC:4080
C7AB  29 80     AND #$80                        A:00 X:FF Y:00 P:26 SP:FF PPU:  0,  0 CYC:4084
C7AD  F0 F9     BEQ $C7A8                       A:00 X:FF Y:00 P:26 SP:FF PPU:  0,  0 CYC:4086
C7A8  AD 02 20  LDA $2002 = 00                  A:00 X:FF Y:00 P:26 SP:FF PPU:  0,  0 CYC:4089
C7AB  29 80     AND #$80                        A:00 X:FF Y:00 P:26 SP:FF PPU:  0,  0 CYC:4093
C7AD  F0 F9     BEQ $C7A8                       A:00 X:FF Y:00 P:26 SP:FF PPU:  0,  0 CYC:4095
C7A8  AD 02 20  LDA $2002 = 00                  A:00 X:FF Y:00 P:26 SP:FF PPU:  0,  0 CYC:4098
C7AB  29 80     AND #$80                        A:00 X:FF Y:00 P:26 SP:FF PPU:  0,  0 CYC:4102
C7AD  F0 F9     BEQ $C7A8                       A:00 X:FF Y:00 P:26 SP:FF PPU:  0,  0 CYC:4104
C7A8  AD 02 20  LDA $2002 = 00                  A:00 X:FF Y:00 P:26 SP:FF PPU:  0,  0 CYC:4107
C7AB  29 80     AND #$80                        A:00 X:FF Y:00 P:26 SP:FF PPU:  0,  0 CYC:4111
C7AD  F0 F9     BEQ $C7A8                       A:00 X:FF Y:00 P:26 SP:FF PPU:  0,  0 CYC:4113
C7A8  AD 02 20  LDA $2002 = 00                  A:00 X:FF Y:00 P:26 SP:FF PPU:  0,  0 CYC:4116
C7AB  29 80     AND #$80                        A:00 X:FF Y:00 P:26 SP:FF PPU:  0,  0 CYC:4120
C7AD  F0 F9     BEQ $C7A8                       A:00 X:FF Y:00 P:26 SP:FF PPU:  0,  0 CYC:4122
C7A8  AD 02 20  LDA $2002 = 00                  A:00 X:FF Y:00 P:26 SP:FF PPU:  0,  0 CYC:4125
C7AB  29 80     AND #$80                        A:00 X:FF Y:00 P:26 SP:FF PPU:  0,  0 CYC:4129
C7AD  F0 F9     BEQ $C7A8                       A:00 X:FF Y:00 P:26 SP:FF PPU:  0,  0 CYC:4131
C7A8  AD 02 20  LDA $2002 = 00                  A:00 X:FF Y:00 P:26 SP:FF PPU:  0,  0 CYC:4134
C7AB  29 80     AND #$80                        A:00 X:FF Y:00 P:26 SP:FF PPU:  0,  0 CYC:4138
C7AD  F0 F9     BEQ $C7A8                       A:00 X:FF Y:00 P:26 SP:FF PPU:  0,  0 CYC:4140
C7A8  AD 02 20  LDA $2002 = 00                  A:00 X:FF Y:00 P:26 SP:FF PPU:  0,  0 CYC:4143
C7AB  29 80     AND #$80                        A:00 X:FF Y:00 P:26 SP:FF PPU:  0,  0 CYC:4147
C7AD  F0 F9     BEQ $C7A8                       A:00 X:FF Y:00 P:26 SP:FF PPU:  0,  0 CYC:4149
C7A8  AD 02 20  LDA $2002 = 00                  A:00 X:FF Y:00 P:26 SP:FF PPU:  0,  0 CYC:4152
C7AB  29 80     AND #$80                        A:00 X:FF Y:00 P:26 SP:FF PPU:  0,  0 CYC:4156
C7AD  F0 F9     BEQ $C7A8                       A:00 X:FF Y:00 P:26 SP:FF PPU:  0,  0 CYC:4158
C7A8  AD 02 20  LDA $2002 = 00                  A:00 X:FF Y:00 P:26 SP:FF PPU:  0,  0 CYC:4161
C7AB  29 80     AND #$80                        A:00 X:FF Y:00 P:26 SP:FF PPU:  0,  0 CYC:4165
C7AD  F0 F9     BEQ $C7A8                       A:00 X:FF Y:00 P:26 SP:FF PPU:  0,  0 CYC:4167
C7A8  AD 02 20  LDA $2002 = 00                  A:00 X:FF Y:00 P:26 SP:FF PPU:  0,  0 CYC:4170
C7AB  29 80     AND #$80                        A:00 X:FF Y:00 P:26 SP:FF PPU:  0,  0 CYC:4174
C7AD  F0 F9     BEQ $C7A8                       A:00 X:FF Y:00 P:26 SP:FF PPU:  0,  0 CYC:4176
C7A8  AD 02 20  LDA $2002 = 00                  A:00 X:FF Y:00 P:26 SP:FF PPU:  0,  0 CYC:4179
C7AB  29 80     AND #$80                        A:00 X:FF Y:00 P:26 SP:FF PPU:  0,  0 CYC:4183
C7AD  F0 F9     BEQ $C7A8                       A:00 X:FF Y:00 P:26 SP:FF PPU:  0,  0 CYC:4185
C7A8  AD 02 20  LDA $2002 = 00                  A:00 X:FF Y:00 P:26 SP:FF PPU:  0,  0 CYC:4188
C7AB  29 80     AND #$80                        A:00 X:FF Y:00 P:26 SP:FF PPU:  0,  0 CYC:4192
C7AD  F0 F9     BEQ $C7A8                       A:00 X:FF Y:00 P:26 SP:FF PPU:  0,  0 CYC:4194
C7A8  AD 02 20  LDA $2002 = 00                  A:00 X:FF Y:00 P:26 SP:FF PPU:  0,  0 CYC:4197
C7AB  29 80     AND #$80                        A:00 X:FF Y:00 P:26 SP:FF PPU:  0,  0 CYC:4201
C7AD  F0 F9     BEQ $C7A8                       A:00 X:FF Y:00 P:26 SP:FF PPU:  0,  0 CYC:4203
C7A8  AD 02 20  LDA $2002 = 00                  A:00 X:FF Y:00 P:26 SP:FF PPU:  0,  0 CYC:4206
C7AB  29 80     AND #$80                        A:00 X:FF Y:00 P:26 SP:FF PPU:  0,  0 CYC:4210
C7AD  F0 F9     BEQ $C7A8                       A:00 X:FF Y:00 P:26 SP:FF PPU:  0,  0 CYC:4212
C7A8  AD 02 20  LDA $2002 = 00                  A:00 X:FF Y:00 P:26 SP:FF PPU:  0,  0 CYC:4215
C7AB  29 80     AND #$80                        A:00 X:FF Y:00 P:26 SP:FF PPU:  0,  0 CYC:4219
C7AD  F0 F9     BEQ $C7A8                       A:00 X:FF Y:00 P:26 SP:FF PPU:  0,  0 CYC:4221
C7A8  AD 02 20  LDA $2002 = 00                  A:00 X:FF Y:00 P:26 SP:FF PPU:  0,  0 CYC:4224
C7AB  29 80     AND #$80                        A:00 X:FF Y:00 P:26 SP:FF PPU:  0,  0 CYC:4228
C7AD  F0 F9     BEQ $C7A8                       A:00 X:FF Y:00 P:26 SP:FF PPU:  0,  0 CYC:4230
C7A8  AD 02 20  LDA $2002 = 00                  A:00 X:FF Y:00 P:26 SP:FF PPU:  0,  0 CYC:4233
C7AB  29 80     AND #$80                        A:00 X:FF Y:00 P:26 SP:FF PPU:  0,  0 CYC:4237
C7AD  F0 F9     BEQ $C7A8                       A:00 X:FF Y:00 P:26 SP:FF PPU:  0,  0 CYC:4239
C7A8  AD 02 20  LDA $2002 = 00                  A:00 X:FF Y:00 P:26 SP:FF PPU:  0,  0 CYC:4242
C7AB  29 80     AND #$80                        A:00 X:FF Y:00 P:26 SP:FF PPU:  0,  0 CYC:4246
C7AD  F0 F9     BEQ $C7A8                       A:00 X:FF Y:00 P:26 SP:FF PPU:  0,  0 CYC:4248
C7A8  AD 02 20  LDA $2002 = 00                  A:00 X:FF Y:00 P:26 SP:FF PPU:  0,  0 CYC:4251
C7AB  29 80     AND #$80                        A:00 X:FF Y:00 P:26 SP:FF PPU:  0,  0 CYC:4255
C7AD  F0 F9     BEQ $C7A8                       A:00 X:FF Y:00 P:26 SP:FF PPU:  0,  0 CYC:4257
C7A8  AD 02 20  LDA $2002 = 00                  A:00 X:FF Y:00 P:26 SP:FF PPU:  0,  0 CYC:4260
C7AB  29 80     AND #$80                        A:00 X:FF Y:00 P:26 SP:FF PPU:  0,  0 CYC:4264
C7AD  F0 F9     BEQ $C7A8                       A:00 X:FF Y:00 P:26 SP:FF PPU:  0,  0 CYC:4266
C7A8  AD 02 20  LDA $2002 = 00                  A:00 X:FF Y:00 P:26 SP:FF PPU:  0,  0 CYC:4269
C7AB  29 80     AND #$80                        A:00 X:FF Y:00 P:26 SP:FF PPU:  0,  0 CYC:4273
C7AD  F0 F9     BEQ $C7A8                       A:00 X:FF Y:00 P:26 SP:FF PPU:  0,  0 CYC:4275
C7A8  AD 02 20  LDA $2002 = 00                  A:00 X:FF Y:00 P:26 SP:FF PPU:  0,  0 CYC:4278
C7AB  29 80     AND #$80                        A:00 X:FF Y:00 P:26 SP:FF PPU:  0,  0 CYC:4282
C7AD  F0 F9     BEQ $C7A8                       A:00 X:FF Y:00 P:26 SP:FF PPU:  0,  0 CYC:4284
C7A8  AD 02 20  LDA $2002 = 00                  A:00 X:FF Y:00 P:26 SP:FF PPU:  0,  0 CYC:4287
C7AB  29 80     AND #$80                        A:00 X:FF Y:00 P:26 SP:FF PPU:  0,  0 CYC:4291
C7AD  F0 F9     BEQ $C7A8                       A:00 X:FF Y:00 P:26 SP:FF PPU:  0,  0 CYC:4293
C7A8  AD 02 20  LDA $2002 = 00                  A:00 X:FF Y:00 P:26 SP:FF PPU:  0,  0 CYC:4296
C7AB  29 80     AND #$80                        A:00 X:FF Y:00 P:26 SP:FF PPU:  0,  0 CYC:4300
C7AD  F0 F9     BEQ $C7A8                       A:00 X:FF Y:00 P:26 SP:FF PPU:  0,  0 CYC:4302
C7A8  AD 02 20  LDA $2002 = 00                  A:00 X:FF Y:00 P:26 SP:FF PPU:  0,  0 CYC:4305
C7AB  29 80     AND #$80                        A:00 X:FF Y:00 P:26 SP:FF PPU:  0,  0 CYC:4309
C7AD  F0 F9     BEQ $C7A8                       A:00 X:FF Y:00 P:26 SP:FF PPU:  0,  0 CYC:4311
C7A8  AD 02 20  LDA $2002 = 00                  A:00 X:FF Y:00 P:26 SP:FF PPU:  0,  0 CYC:4314
C7AB  29 80     AND #$80                        A:00 X:FF Y:00 P:26 SP:FF PPU:  0,  0 CYC:4318
C7AD  F0 F9     BEQ $C7A8                       A:00 X:FF Y:00 P:26 SP:FF PPU:  0,  0 CYC:4320
C7A8  AD 02 20  LDA $2002 = 00                  A:00 X:FF Y:00 P:26 SP:FF PPU:  0,  0 CYC:4323
C7AB  29 80     AND #$80                        A:00 X:FF Y:00 P:26 SP:FF PPU:  0,  0 CYC:4327
C7AD  F0 F9     BEQ $C7A8                       A:00 X:FF Y:00 P:26 SP:FF PPU:  0,  0 CYC:4329
C7A8  AD 02 20  LDA $2002 = 00                  A:00 X:FF Y:00 P:26 SP:FF PPU:  0,  0 CYC:4332
C7AB  29 80     AND #$80                        A:00 X:FF Y:00 P:26 SP:FF PPU:  0,  0 CYC:4336
C7AD  F0 F9     BEQ $C7A8                       A:00 X:FF Y:00 P:26 SP:FF PPU:  0,  0 CYC:4338
C7A8  AD 02 20  LDA $2002 = 00                  A:00 X:FF Y:00 P:26 SP:FF PPU:  0,  0 CYC:4341
C7AB  29 80     AND #$80                        A:00 X:FF Y:00 P:26 SP:FF PPU:  0,  0 CYC:4345
C7AD  F0 F9     BEQ $C7A8                       A:00 X:FF Y:00 P:26 SP:FF PPU:  0,  0 CYC:4347
C7A8  AD 02 20  LDA $2002 = 00                  A:00 X:FF Y:00 P:26 SP:FF PPU:  0,  0 CYC:4350
C7AB  29 80     AND #$80                        A:00 X:FF Y:00 P:26 SP:FF PPU:  0,  0 CYC:4354
C7AD  F0 F9     BEQ $C7A8                       A:00 X:FF Y:00 P:26 SP:FF PPU:  0,  0 CYC:4356
C7A8  AD 02 20  LDA $2002 = 00                  A:00 X:FF Y:00 P:26 SP:FF PPU:  0,  0 CYC:4359
C7AB  29 80     AND #$80                        A:00 X:FF Y:00 P:26 SP:FF PPU:  0,  0 CYC:4363
C7AD  F0 F9     BEQ $C7A8                       A:00 X:FF Y:00 P:26 SP:FF PPU:  0,  0 CYC:4365
C7A8  AD 02 20  LDA $2002 = 00                  A:00 X:FF Y:00 P:26 SP:FF PPU:  0,  0 CYC:4368
C7AB  29 80     AND #$80                        A:00 X:FF Y:00 P:26 SP:FF PPU:  0,  0 CYC:4372
C7AD  F0 F9     BEQ $C7A8                       A:00 X:FF Y:00 P:26 SP:FF PPU:  0,  0 CYC:4374
C7A8  AD 02 20  LDA $2002 = 00                  A:00 X:FF Y:00 P:26 SP:FF PPU:  0,  0 CYC:4377
C7AB  29 80     AND #$80                        A:00 X:FF Y:00 P:26 SP:FF PPU:  0,  0 CYC:4381
C7AD  F0 F9     BEQ $C7A8                       A:00 X:FF Y:00 P:26 SP:FF PPU:  0,  0 CYC:4383
C7A8  AD 02 20  LDA $2002 = 00                  A:00 X:FF Y:00 P:26 SP:FF PPU:  0,  0 CYC:4386
C7AB  29 80     AND #$80                        A:00 X:FF Y:00 P:26 SP:FF PPU:  0,  0 CYC:4390
C7AD  F0 F9     BEQ $C7A8                       A:00 X:FF Y:00 P:26 SP:FF PPU:  0,  0 CYC:4392
C7A8  AD 02 20  LDA $2002 = 00                  A:00 X:FF Y:00 P:26 SP:FF PPU:  0,  0 CYC:4395
C7AB  29 80     AND #$80                        A:00 X:FF Y:00 P:26 SP:FF PPU:  0,  0 CYC:4399
C7AD  F0 F9     BEQ $C7A8                       A:00 X:FF Y:00 P:26 SP:FF PPU:  0,  0 CYC:4401
C7A8  AD 02 20  LDA $2002 = 00                  A:00 X:FF Y:00 P:26 SP:FF PPU:  0,  0 CYC:4404
C7AB  29 80     AND #$80                        A:00 X:FF Y:00 P:26 SP:FF PPU:  0,  0 CYC:4408
C7AD  F0 F9     BEQ $C7A8                       A:00 X:FF Y:00 P:26 SP:FF PPU:  0,  0 CYC:4410
C7A8  AD 02 20  LDA $2002 = 00                  A:00 X:FF Y:00 P:26 SP:FF PPU:  0,  0 CYC:4413
C7AB  29 80     AND #$80                        A:00 X:FF Y:00 P:26 SP:FF PPU:  0,  0 CYC:4417
C7AD  F0 F9     BEQ $C7A8                       A:00 X:FF Y:00 P:26 SP:FF PPU:  0,  0 CYC:4419
C7A8  AD 02 20  LDA $2002 = 00                  A:00 X:FF Y:00 P:26 SP:FF PPU:  0,  0 CYC:4422
C7AB  29 80     AND #$80                        A:00 X:FF Y:00 P:26 SP:FF PPU:  0,  0 CYC:4426
C7AD  F0 F9     BEQ $C7A8                       A:00 X:FF Y:00 P:26 SP:FF PPU:  0,  0 CYC:4428
C7A8  AD 02 20  LDA $2002 = 00                  A:00 X:FF Y:00 P:26 SP:FF PPU:  0,  0 CYC:4431
C7AB  29 80     AND #$80                        A:00 X:FF Y:00 P:26 SP:FF PPU:  0,  0 CYC:4435
C7AD  F0 F9     BEQ $C7A8                       A:00 X:FF Y:00 P:26 SP:FF PPU:  0,  0 CYC:4437
C7A8  AD 02 20  LDA $2002 = 00                  A:00 X:FF Y:00 P:26 SP:FF PPU:  0,  0 CYC:4440
C7AB  29 80     AND #$80                        A:00 X:FF Y:00 P:26 SP:FF PPU:  0,  0 CYC:4444
C7AD  F0 F9     BEQ $C7A8                       A:00 X:FF Y:00 P:26 SP:FF PPU:  0,  0 CYC:4446
C7A8  AD 02 20  LDA $2002 = 00                  A:00 X:FF Y:00 P:26 SP:FF PPU:  0,  0 CYC:4449
C7AB  29 80     AND #$80                        A:00 X:FF Y:00 P:26 SP:FF PPU:  0,  0 CYC:4453
C7AD  F0 F9     BEQ $C7A8                       A:00 X:FF Y:00 P:26 SP:FF PPU:  0,  0 CYC:4455
C7A8  AD 02 20  LDA $2002 = 00                  A:00 X:FF Y:00 P:26 SP:FF PPU:  0,  0 CYC:4458
C7AB  29 80     AND #$80                        A:00 X:FF Y:00 P:26 SP:FF PPU:  0,  0 CYC:4462
C7AD  F0 F9     BEQ $C7A8                       A:00 X:FF Y:00 P:26 SP:FF PPU:  0,  0 CYC:4464
C7A8  AD 02 20  LDA $2002 = 00                  A:00 X:FF Y:00 P:26 SP:FF PPU:  0,  0 CYC:4467
C7AB  29 80     AND #$80                        A:00 X:FF Y:00 P:26 SP:FF PPU:  0,  0 CYC:4471
C7AD  F0 F9     BEQ $C7A8                       A:00 X:FF Y:00 P:26 SP:FF PPU:  0,  0 CYC:4473
C7A8  AD 02 20  LDA $2002 = 00                  A:00 X:FF Y:00 P:26 SP:FF PPU:  0,  0 CYC:4476
C7AB  29 80     AND #$80                        A:00 X:FF Y:00 P:26 SP:FF PPU:  0,  0 CYC:4480
C7AD  F0 F9     BEQ $C7A8                       A:00 X:FF Y:00 P:26 SP:FF PPU:  0,  0 CYC:4482
C7A8  AD 02 20  LDA $2002 = 00                  A:00 X:FF Y:00 P:26 SP:FF PPU:  0,  0 CYC:4485
C7AB  29 80     AND #$80                        A:00 X:FF Y:00 P:26 SP:FF PPU:  0,  0 CYC:4489
C7AD  F0 F9     BEQ $C7A8                       A:00 X:FF Y:00 P:26 SP:FF PPU:  0,  0 CYC:4491
C7A8  AD 02 20  LDA $2002 = 00                  A:00 X:FF Y:00 P:26 SP:FF PPU:  0,  0 CYC:4494
C7AB  29 80     AND #$80                        A:00 X:FF Y:00 P:26 SP:FF PPU:  0,  0 CYC:4498
C7AD  F0 F9     BEQ $C7A8                       A:00 X:FF Y:00 P:26 SP:FF PPU:  0,  0 CYC:4500
C7A8  AD 02 20  LDA $2002 = 00                  A:00 X:FF Y:00 P:26 SP:FF PPU:  0,  0 CYC:4503
C7AB  29 80     AND #$80                        A:00 X:FF Y:00 P:26 SP:FF PPU:  0,  0 CYC:4507
C7AD  F0 F9     BEQ $C7A8                       A:00 X:FF Y:00 P:26 SP:FF PPU:  0,  0 CYC:4509
C7A8  AD 02 20  LDA $2002 = 00                  A:00 X:FF Y:00 P:26 SP:FF PPU:  0,  0 CYC:4512
C7AB  29 80     AND #$80                        A:00 X:FF Y:00 P:26 SP:FF PPU:  0,  0 CYC:4516
C7AD  F0 F9     BEQ $C7A8                       A:00 X:FF Y:00 P:26 SP:FF PPU:  0,  0 CYC:4518
C7A8  AD 02 20  LDA $2002 = 00                  A:00 X:FF Y:00 P:26 SP:FF PPU:  0,  0 CYC:4521
C7AB  29 80     AND #$80                        A:00 X:FF Y:00 P:26 SP:FF PPU:  0,  0 CYC:4525
C7AD  F0 F9     BEQ $C7A8                       A:00 X:FF Y:00 P:26 SP:FF PPU:  0,  0 CYC:4527
C7A8  AD 02 20  LDA $2002 = 00                  A:00 X:FF Y:00 P:26 SP:FF PPU:  0,  0 CYC:4530
C7AB  29 80     AND #$80                        A:00 X:FF Y:00 P:26 SP:FF PPU:  0,  0 CYC:4534
C7AD  F0 F9     BEQ $C7A8                       A:00 X:FF Y:00 P:26 SP:FF PPU:  0,  0 CYC:4536
C7A8  AD 02 20  LDA $2002 = 00                  A:00 X:FF Y:00 P:26 SP:FF PPU:  0,  0 CYC:4539
C7AB  29 80     AND #$80                        A:00 X:FF Y:00 P:26 SP:FF PPU:  0,  0 CYC:4543
C7AD  F0 F9     BEQ $C7A8                       A:00 X:FF Y:00 P:26 SP:FF PPU:  0,  0 CYC:4545
C7A8  AD 02 20  LDA $2002 = 00                  A:00 X:FF Y:00 P:26 SP:FF PPU:  0,  0 CYC:4548
C7AB  29 80     AND #$80                        A:00 X:FF Y:00 P:26 SP:FF PPU:  0,  0 CYC:4552
C7AD  F0 F9     BEQ $C7A8                       A:00 X:FF Y:00 P:26 SP:FF PPU:  0,  0 CYC:4554
C7A8  AD 02 20  LDA $2002 = 00                  A:00 X:FF Y:00 P:26 SP:FF PPU:  0,  0 CYC:4557
C7AB  29 80     AND #$80                        A:00 X:FF Y:00 P:26 SP:FF PPU:  0,  0 CYC:4561
C7AD  F0 F9     BEQ $C7A8                       A:00 X:FF Y:00 P:26 SP:FF PPU:  0,  0 CYC:4563
C7A8  AD 02 20  LDA $2002 = 00                  A:00 X:FF Y:00 P:26 SP:FF PPU:  0,  0 CYC:4566
C7AB  29 80     AND #$80                        A:00 X:FF Y:00 P:26 SP:FF PPU:  0,  0 CYC:4570
C7AD  F0 F9     BEQ $C7A8                       A:00 X:FF Y:00 P:26 SP:FF PPU:  0,  0 CYC:4572
C7A8  AD 02 20  LDA $2002 = 00                  A:00 X:FF Y:00 P:26 SP:FF PPU:  0,  0 CYC:4575
C7AB  29 80     AND #$80                        A:00 X:FF Y:00 P:26 SP:FF PPU:  0,  0 CYC:4579
C7AD  F0 F9     BEQ $C7A8                       A:00 X:FF Y:00 P:26 SP:FF PPU:  0,  0 CYC:4581
C7A8  AD 02 20  LDA $2002 = 00                  A:00 X:FF Y:00 P:26 SP:FF PPU:  0,  0 CYC:4584
C7AB  29 80     AND #$80                        A:00 X:FF Y:00 P:26 SP:FF PPU:  0,  0 CYC:4588
C7AD  F0 F9     BEQ $C7A8                       A:00 X:FF Y:00 P:26 SP:FF PPU:  0,  0 CYC:4590
C7A8  AD 02 20  LDA $2002 = 00                  A:00 X:FF Y:00 P:26 SP:FF PPU:  0,  0 CYC:4593
C7AB  29 80     AND #$80                        A:00 X:FF Y:00 P:26 SP:FF PPU:  0,  0 CYC:4597
C7AD  F0 F9     BEQ $C7A8                       A:00 X:FF Y:00 P:26 SP:FF PPU:  0,  0 CYC:4599
C7A8  AD 02 20  LDA $2002 = 00                  A:00 X:FF Y:00 P:26 SP:FF PPU:  0,  0 CYC:4602
C7AB  29 80     AND #$80                        A:00 X:FF Y:00 P:26 SP:FF PPU:  0,  0 CYC:4606
C7AD  F0 F9     BEQ $C7A8                       A:00 X:FF Y:00 P:26 SP:FF PPU:  0,  0 CYC:4608
C7A8  AD 02 20  LDA $2002 = 00                  A:00 X:FF Y:00 P:26 SP:FF PPU:  0,  0 CYC:4611
C7AB  29 80     AND #$80                        A:00 X:FF Y:00 P:26 SP:FF PPU:  0,  0 CYC:4615
C7AD  F0 F9     BEQ $C7A8                       A:00 X:FF Y:00 P:26 SP:FF PPU:  0,  0 CYC:4617
C7A8  AD 02 20  LDA $2002 = 00                  A:00 X:FF Y:00 P:26 SP:FF PPU:  0,  0 CYC:4620
C7AB  29 80     AND #$80                        A:00 X:FF Y:00 P:26 SP:FF PPU:  0,  0 CYC:4624
C7AD  F0 F9     BEQ $C7A8                       A:00 X:FF Y:00 P:26 SP:FF PPU:  0,  0 CYC:4626
C7A8  AD 02 20  LDA $2002 = 00                  A:00 X:FF Y:00 P:26 SP:FF PPU:  0,  0 CYC:4629
C7AB  29 80     AND #$80                        A:00 X:FF Y:00 P:26 SP:FF PPU:  0,  0 CYC:4633
C7AD  F0 F9     BEQ $C7A8                       A:00 X:FF Y:00 P:26 SP:FF PPU:  0,  0 CYC:4635
C7A8  AD 02 20  LDA $2002 = 00                  A:00 X:FF Y:00 P:26 SP:FF PPU:  0,  0 CYC:4638
C7AB  29 80     AND #$80                        A:00 X:FF Y:00 P:26 SP:FF PPU:  0,  0 CYC:4642
C7AD  F0 F9     BEQ $C7A8                       A:00 X:FF Y:00 P:26 SP:FF PPU:  0,  0 CYC:4644
C7A8  AD 02 20  LDA $2002 = 00                  A:00 X:FF Y:00 P:26 SP:FF PPU:  0,  0 CYC:4647
C7AB  29 80     AND #$80                        A:00 X:FF Y:00 P:26 SP:FF PPU:  0,  0 CYC:4651
C7AD  F0 F9     BEQ $C7A8                       A:00 X:FF Y:00 P:26 SP:FF PPU:  0,  0 CYC:4653
C7A8  AD 02 20  LDA $2002 = 00                  A:00 X:FF Y:00 P:26 SP:FF PPU:  0,  0 CYC:4656
C7AB  29 80     AND #$80                        A:00 X:FF Y:00 P:26 SP:FF PPU:  0,  0 CYC:4660
C7AD  F0 F9     BEQ $C7A8                       A:00 X:FF Y:00 P:26 SP:FF PPU:  0,  0 CYC:4662
C7A8  AD 02 20  LDA $2002 = 00                  A:00 X:FF Y:00 P:26 SP:FF PPU:  0,  0 CYC:4665
C7AB  29 80     AND #$80                        A:00 X:FF Y:00 P:26 SP:FF PPU:  0,  0 CYC:4669
C7AD  F0 F9     BEQ $C7A8                       A:00 X:FF Y:00 P:26 SP:FF PPU:  0,  0 CYC:4671
C7A8  AD 02 20  LDA $2002 = 00                  A:00 X:FF Y:00 P:26 SP:FF PPU:  0,  0 CYC:4674
C7AB  29 80     AND #$80                        A:00 X:FF Y:00 P:26 SP:FF PPU:  0,  0 CYC:4678
C7AD  F0 F9     BEQ $C7A8                       A:00 X:FF Y:00 P:26 SP:FF PPU:  0,  0 CYC:4680
C7A8  AD 02 20  LDA $2002 = 00                  A:00 X:FF Y:00 P:26 SP:FF PPU:  0,  0 CYC:4683
C7AB  29 80     AND #$80                        A:00 X:FF Y:00 P:26 SP:FF PPU:  0,  0 CYC:4687
C7AD  F0 F9     BEQ $C7A8                       A:00 X:FF Y:00 P:26 SP:FF PPU:  0,  0 CYC:4689
C7A8  AD 02 20  LDA $2002 = 00                  A:00 X:FF Y:00 P:26 SP:FF PPU:  0,  0 CYC:4692
C7AB  29 80     AND #$80                        A:00 X:FF Y:00 P:26 SP:FF PPU:  0,  0 CYC:4696
C7AD  F0 F9     BEQ $C7A8                       A:00 X:FF Y:00 P:26 SP:FF PPU:  0,  0 CYC:4698
C7A8  AD 02 20  LDA $2002 = 00                  A:00 X:FF Y:00 P:26 SP:FF PPU:  0,  0 CYC:4701
C7AB  29 80     AND #$80                        A:00 X:FF Y:00 P:26 SP:FF PPU:  0,  0 CYC:4705
C7AD  F0 F9     BEQ $C7A8                       A:00 X:FF Y:00 P:26 SP:FF PPU:  0,  0 CYC:4707
C7A8  AD 02 20  LDA $2002 = 00                  A:00 X:FF Y:00 P:26 SP:FF PPU:  0,  0 CYC:4710
C7AB  29 80     AND #$80                        A:00 X:FF Y:00 P:26 SP:FF PPU:  0,  0 CYC:4714
C7AD  F0 F9     BEQ $C7A8                       A:00 X:FF Y:00 P:26 SP:FF PPU:  0,  0 CYC:4716
C7A8  AD 02 20  LDA $2002 = 00                  A:00 X:FF Y:00 P:26 SP:FF PPU:  0,  0 CYC:4719
C7AB  29 80     AND #$80                        A:00 X:FF Y:00 P:26 SP:FF PPU:  0,  0 CYC:4723
C7AD  F0 F9     BEQ $C7A8                       A:00 X:FF Y:00 P:26 SP:FF PPU:  0,  0 CYC:4725
C7A8  AD 02 20  LDA $2002 = 00                  A:00 X:FF Y:00 P:26 SP:FF PPU:  0,  0 CYC:4728
C7AB  29 80     AND #$80                        A:00 X:FF Y:00 P:26 SP:FF PPU:  0,  0 CYC:4732
C7AD  F0 F9     BEQ $C7A8                       A:00 X:FF Y:00 P:26 SP:FF PPU:  0,  0 CYC:4734
C7A8  AD 02 20  LDA $2002 = 00                  A:00 X:FF Y:00 P:26 SP:FF PPU:  0,  0 CYC:4737
C7AB  29 80     AND #$80                        A:00 X:FF Y:00 P:26 SP:FF PPU:  0,  0 CYC:4741
C7AD  F0 F9     BEQ $C7A8                       A:00 X:FF Y:00 P:26 SP:FF PPU:  0,  0 CYC:4743
C7A8  AD 02 20  LDA $2002 = 00                  A:00 X:FF Y:00 P:26 SP:FF PPU:  0,  0 CYC:4746
C7AB  29 80     AND #$80                        A:00 X:FF Y:00 P:26 SP:FF PPU:  0,  0 CYC:4750
C7AD  F0 F9     BEQ $C7A8                       A:00 X:FF Y:00 P:26 SP:FF PPU:  0,  0 CYC:4752
C7A8  AD 02 20  LDA $2002 = 00                  A:00 X:FF Y:00 P:26 SP:FF PPU:  0,  0 CYC:4755
C7AB  29 80     AND #$80                        A:00 X:FF Y:00 P:26 SP:FF PPU:  0,  0 CYC:4759
C7AD  F0 F9     BEQ $C7A8                       A:00 X:FF Y:00 P:26 SP:FF PPU:  0,  0 CYC:4761
C7A8  AD 02 20  LDA $2002 = 00                  A:00 X:FF Y:00 P:26 SP:FF PPU:  0,  0 CYC:4764
C7AB  29 80     AND #$80                        A:00 X:FF Y:00 P:26 SP:FF PPU:  0,  0 CYC:4768
C7AD  F0 F9     BEQ $C7A8                       A:00 X:FF Y:00 P:26 SP:FF PPU:  0,  0 CYC:4770
C7A8  AD 02 20  LDA $2002 = 00                  A:00 X:FF Y:00 P:26 SP:FF PPU:  0,  0 CYC:4773
C7AB  29 80     AND #$80                        A:00 X:FF Y:00 P:26 SP:FF PPU:  0,  0 CYC:4777
C7AD  F0 F9     BEQ $C7A8                       A:00 X:FF Y:00 P:26 SP:FF PPU:  0,  0 CYC:4779
C7A8  AD 02 20  LDA $2002 = 00                  A:00 X:FF Y:00 P:26 SP:FF PPU:  0,  0 CYC:4782
C7AB  29 80     AND #$80                        A:00 X:FF Y:00 P:26 SP:FF PPU:  0,  0 CYC:4786
C7AD  F0 F9     BEQ $C7A8                       A:00 X:FF Y:00 P:26 SP:FF PPU:  0,  0 CYC:4788
C7A8  AD 02 20  LDA $2002 = 00                  A:00 X:FF Y:00 P:26 SP:FF PPU:  0,  0 CYC:4791
C7AB  29 80     AND #$80                        A:00 X:FF Y:00 P:26 SP:FF PPU:  0,  0 CYC:4795
C7AD  F0 F9     BEQ $C7A8                       A:00 X:FF Y:00 P:26 SP:FF PPU:  0,  0 CYC:4797
C7A8  AD 02 20  LDA $2002 = 00                  A:00 X:FF Y:00 P:26 SP:FF PPU:  0,  0 CYC:4800
C7AB  29 80     AND #$80                        A:00 X:FF Y:00 P:26 SP:FF PPU:  0,  0 CYC:4804
C7AD  F0 F9     BEQ $C7A8                       A:00 X:FF Y:00 P:26 SP:FF PPU:  0,  0 CYC:4806
C7A8  AD 02 20  LDA $2002 = 00                  A:00 X:FF Y:00 P:26 SP:FF PPU:  0,  0 CYC:4809
C7AB  29 80     AND #$80                        A:00 X:FF Y:00 P:26 SP:FF PPU:  0,  0 CYC:4813
C7AD  F0 F9     BEQ $C7A8                       A:00 X:FF Y:00 P:26 SP:FF PPU:  0,  0 CYC:4815
C7A8  AD 02 20  LDA $2002 = 00                  A:00 X:FF Y:00 P:26 SP:FF PPU:  0,  0 CYC:4818
C7AB  29 80     AND #$80                        A:00 X:FF Y:00 P:26 SP:FF PPU:  0,  0 CYC:4822
C7AD  F0 F9     BEQ $C7A8                       A:00 X:FF Y:00 P:26 SP:FF PPU:  0,  0 CYC:4824
C7A8  AD 02 20  LDA $2002 = 00                  A:00 X:FF Y:00 P:26 SP:FF PPU:  0,  0 CYC:4827
C7AB  29 80     AND #$80                        A:00 X:FF Y:00 P:26 SP:FF PPU:  0,  0 CYC:4831
C7AD  F0 F9     BEQ $C7A8                       A:00 X:FF Y:00 P:26 SP:FF PPU:  0,  0 CYC:4833
C7A8  AD 02 20  LDA $2002 = 00                  A:00 X:FF Y:00 P:26 SP:FF PPU:  0,  0 CYC:4836
C7AB  29 80     AND #$80                        A:00 X:FF Y:00 P:26 SP:FF PPU:  0,  0 CYC:4840
C7AD  F0 F9     BEQ $C7A8                       A:00 X:FF Y:00 P:26 SP:FF PPU:  0,  0 CYC:4842
C7A8  AD 02 20  LDA $2002 = 00                  A:00 X:FF Y:00 P:26 SP:FF PPU:  0,  0 CYC:4845
C7AB  29 80     AND #$80                        A:00 X:FF Y:00 P:26 SP:FF PPU:  0,  0 CYC:4849
C7AD  F0 F9     BEQ $C7A8                       A:00 X:FF Y:00 P:26 SP:FF PPU:  0,  0 CYC:4851
C7A8  AD 02 20  LDA $2002 = 00                  A:00 X:FF Y:00 P:26 SP:FF PPU:  0,  0 CYC:4854
C7AB  29 80     AND #$80                        A:00 X:FF Y:00 P:26 SP:FF PPU:  0,  0 CYC:4858
C7AD  F0 F9     BEQ $C7A8                       A:00 X:FF Y:00 P:26 SP:FF PPU:  0,  0 CYC:4860
C7A8  AD 02 20  LDA $2002 = 00                  A:00 X:FF Y:00 P:26 SP:FF PPU:  0,  0 CYC:4863
C7AB  29 80     AND #$80                        A:00 X:FF Y:00 P:26 SP:FF PPU:  0,  0 CYC:4867
C7AD  F0 F9     BEQ $C7A8                       A:00 X:FF Y:00 P:26 SP:FF PPU:  0,  0 CYC:4869
C7A8  AD 02 20  LDA $2002 = 00                  A:00 X:FF Y:00 P:26 SP:FF PPU:  0,  0 CYC:4872
C7AB  29 80     AND #$80                        A:00 X:FF Y:00 P:26 SP:FF PPU:  0,  0 CYC:4876
C7AD  F0 F9     BEQ $C7A8                       A:00 X:FF Y:00 P:26 SP:FF PPU:  0,  0 CYC:4878
C7A8  AD 02 20  LDA $2002 = 00                  A:00 X:FF Y:00 P:26 SP:FF PPU:  0,  0 CYC:4881
C7AB  29 80     AND #$80                        A:00 X:FF Y:00 P:26 SP:FF PPU:  0,  0 CYC:4885
C7AD  F0 F9     BEQ $C7A8                       A:00 X:FF Y:00 P:26 SP:FF PPU:  0,  0 CYC:4887
C7A8  AD 02 20  LDA $2002 = 00                  A:00 X:FF Y:00 P:26 SP:FF PPU:  0,  0 CYC:4890
C7AB  29 80     AND #$80                        A:00 X:FF Y:00 P:26 SP:FF PPU:  0,  0 CYC:4894
C7AD  F0 F9     BEQ $C7A8                       A:00 X:FF Y:00 P:26 SP:FF PPU:  0,  0 CYC:4896
C7A8  AD 02 20  LDA $2002 = 00                  A:00 X:FF Y:00 P:26 SP:FF PPU:  0,  0 CYC:4899
C7AB  29 80     AND #$80                        A:00 X:FF Y:00 P:26 SP:FF PPU:  0,  0 CYC:4903
C7AD  F0 F9     BEQ $C7A8                       A:00 X:FF Y:00 P:26 SP:FF PPU:  0,  0 CYC:4905
C7A8  AD 02 20  LDA $2002 = 00                  A:00 X:FF Y:00 P:26 SP:FF PPU:  0,  0 CYC:4908
C7AB  29 80     AND #$80                        A:00 X:FF Y:00 P:26 SP:FF PPU:  0,  0 CYC:4912
C7AD  F0 F9     BEQ $C7A8                       A:00 X:FF Y:00 P:26 SP:FF PPU:  0,  0 CYC:4914
C7A8  AD 02 20  LDA $2002 = 00                  A:00 X:FF Y:00 P:26 SP:FF PPU:  0,  0 CYC:4917
C7AB  29 80     AND #$80                        A:00 X:FF Y:00 P:26 SP:FF PPU:  0,  0 CYC:4921
C7AD  F0 F9     BEQ $C7A8                       A:00 X:FF Y:00 P:26 SP:FF PPU:  0,  0 CYC:4923
C7A8  AD 02 20  LDA $2002 = 00                  A:00 X:FF Y:00 P:26 SP:FF PPU:  0,  0 CYC:4926
C7AB  29 80     AND #$80                        A:00 X:FF Y:00 P:26 SP:FF PPU:  0,  0 CYC:4930
C7AD  F0 F9     BEQ $C7A8                       A:00 X:FF Y:00 P:26 SP:FF PPU:  0,  0 CYC:4932
C7A8  AD 02 20  LDA $2002 = 00                  A:00 X:FF Y:00 P:26 SP:FF PPU:  0,  0 CYC:4935
C7AB  29 80     AND #$80                        A:00 X:FF Y:00 P:26 SP:FF PPU:  0,  0 CYC:4939
C7AD  F0 F9     BEQ $C7A8                       A:00 X:FF Y:00 P:26 SP:FF PPU:  0,  0 CYC:4941
C7A8  AD 02 20  LDA $2002 = 00                  A:00 X:FF Y:00 P:26 SP:FF PPU:  0,  0 CYC:4944
C7AB  29 80     AND #$80                        A:00 X:FF Y:00 P:26 SP:FF PPU:  0,  0 CYC:4948
C7AD  F0 F9     BEQ $C7A8                       A:00 X:FF Y:00 P:26 SP:FF PPU:  0,  0 CYC:4950
C7A8  AD 02 20  LDA $2002 = 00                  A:00 X:FF Y:00 P:26 SP:FF PPU:  0,  0 CYC:4953
C7AB  29 80     AND #$80                        A:00 X:FF Y:00 P:26 SP:FF PPU:  0,  0 CYC:4957
C7AD  F0 F9     BEQ $C7A8                       A:00 X:FF Y:00 P:26 SP:FF PPU:  0,  0 CYC:4959
C7A8  AD 02 20  LDA $2002 = 00                  A:00 X:FF Y:00 P:26 SP:FF PPU:  0,  0 CYC:4962
C7AB  29 80     AND #$80                        A:00 X:FF Y:00 P:26 SP:FF PPU:  0,  0 CYC:4966
C7AD  F0 F9     BEQ $C7A8                       A:00 X:FF Y:00 P:26 SP:FF PPU:  0,  0 CYC:4968
C7A8  AD 02 20  LDA $2002 = 00                  A:00 X:FF Y:00 P:26 SP:FF PPU:  0,  0 CYC:4971
C7AB  29 80     AND #$80                        A:00 X:FF Y:00 P:26 SP:FF PPU:  0,  0 CYC:4975
C7AD  F0 F9     BEQ $C7A8                       A:00 X:FF Y:00 P:26 SP:FF PPU:  0,  0 CYC:4977
C7A8  AD 02 20  LDA $2002 = 00                  A:00 X:FF Y:00 P:26 SP:FF PPU:  0,  0 CYC:4980
C7AB  29 80     AND #$80                        A:00 X:FF Y:00 P:26 SP:FF PPU:  0,  0 CYC:4984
C7AD  F0 F9     BEQ $C7A8                       A:00 X:FF Y:00 P:26 SP:FF PPU:  0,  0 CYC:4986
C7A8  AD 02 20  LDA $2002 = 00                  A:00 X:FF Y:00 P:26 SP:FF PPU:  0,  0 CYC:4989
C7AB  29 80     AND #$80                        A:00 X:FF Y:00 P:26 SP:FF PPU:  0,  0 CYC:4993
C7AD  F0 F9     BEQ $C7A8                       A:00 X:FF Y:00 P:26 SP:FF PPU:  0,  0 CYC:4995
C7A8  AD 02 20  LDA $2002 = 00                  A:00 X:FF Y:00 P:26 SP:FF PPU:  0,  0 CYC:4998
C7AB  29 80     AND #$80                        A:00 X:FF Y:00 P:26 SP:FF PPU:  0,  0 CYC:5002
C7AD  F0 F9     BEQ $C7A8                       A:00 X:FF Y:00 P:26 SP:FF PPU:  0,  0 CYC:5004
C7A8  AD 02 20  LDA $2002 = 00                  A:00 X:FF Y:00 P:26 SP:FF PPU:  0,  0 CYC:5007
C7AB  29 80     AND #$80                        A:00 X:FF Y:00 P:26 SP:FF PPU:  0,  0 CYC:5011
C7AD  F0 F9     BEQ $C7A8                       A:00 X:FF Y:00 P:26 SP:FF PPU:  0,  0 CYC:5013
C7A8  AD 02 20  LDA $2002 = 00                  A:00 X:FF Y:00 P:26 SP:FF PPU:  0,  0 CYC:5016
C7AB  29 80     AND #$80                        A:00 X:FF Y:00 P:26 SP:FF PPU:  0,  0 CYC:5020
C7AD  F0 F9     BEQ $C7A8                       A:00 X:FF Y:00 P:26 SP:FF PPU:  0,  0 CYC:5022
C7A8  AD 02 20  LDA $2002 = 00                  A:00 X:FF Y:00 P:26 SP:FF PPU:  0,  0 CYC:5025
C7AB  29 80     AND #$80                        A:00 X:FF Y:00 P:26 SP:FF PPU:  0,  0 CYC:5029
C7AD  F0 F9     BEQ $C7A8                       A:00 X:FF Y:00 P:26 SP:FF PPU:  0,  0 CYC:5031
C7A8  AD 02 20  LDA $2002 = 00                  A:00 X:FF Y:00 P:26 SP:FF PPU:  0,  0 CYC:5034
C7AB  29 80     AND #$80                        A:00 X:FF Y:00 P:26 SP:FF PPU:  0,  0 CYC:5038
C7AD  F0 F9     BEQ $C7A8                       A:00 X:FF Y:00 P:26 SP:FF PPU:  0,  0 CYC:5040
C7A8  AD 02 20  LDA $2002 = 00                  A:00 X:FF Y:00 P:26 SP:FF PPU:  0,  0 CYC:5043
C7AB  29 80     AND #$80                        A:00 X:FF Y:00 P:26 SP:FF PPU:  0,  0 CYC:5047
C7AD  F0 F9     BEQ $C7A8                       A:00 X:FF Y:00 P:26 SP:FF PPU:  0,  0 CYC:5049
C7A8  AD 02 20  LDA $2002 = 00                  A:00 X:FF Y:00 P:26 SP:FF PPU:  0,  0 CYC:5052
C7AB  29 80     AND #$80                        A:00 X:FF Y:00 P:26 SP:FF PPU:  0,  0 CYC:5056
C7AD  F0 F9     BEQ $C7A8                       A:00 X:FF Y:00 P:26 SP:FF PPU:  0,  0 CYC:5058
C7A8  AD 02 20  LDA $2002 = 00                  A:00 X:FF Y:00 P:26 SP:FF PPU:  0,  0 CYC:5061
C7AB  29 80     AND #$80                        A:00 X:FF Y:00 P:26 SP:FF PPU:  0,  0 CYC:5065
C7AD  F0 F9     BEQ $C7A8                       A:00 X:FF Y:00 P:26 SP:FF PPU:  0,  0 CYC:5067
C7A8  AD 02 20  LDA $2002 = 00                  A:00 X:FF Y:00 P:26 SP:FF PPU:  0,  0 CYC:5070
C7AB  29 80     AND #$80                        A:00 X:FF Y:00 P:26 SP:FF PPU:  0,  0 CYC:5074
C7AD  F0 F9     BEQ $C7A8                       A:00 X:FF Y:00 P:26 SP:FF PPU:  0,  0 CYC:5076
C7A8  AD 02 20  LDA $2002 = 00                  A:00 X:FF Y:00 P:26 SP:FF PPU:  0,  0 CYC:5079
C7AB  29 80     AND #$80                        A:00 X:FF Y:00 P:26 SP:FF PPU:  0,  0 CYC:5083
C7AD  F0 F9     BEQ $C7A8                       A:00 X:FF Y:00 P:26 SP:FF PPU:  0,  0 CYC:5085
C7A8  AD 02 20  LDA $2002 = 00                  A:00 X:FF Y:00 P:26 SP:FF PPU:  0,  0 CYC:5088
C7AB  29 80     AND #$80                        A:00 X:FF Y:00 P:26 SP:FF PPU:  0,  0 CYC:5092
C7AD  F0 F9     BEQ $C7A8                       A:00 X:FF Y:00 P:26 SP:FF PPU:  0,  0 CYC:5094
C7A8  AD 02 20  LDA $2002 = 00                  A:00 X:FF Y:00 P:26 SP:FF PPU:  0,  0 CYC:5097
C7AB  29 80     AND #$80                        A:00 X:FF Y:00 P:26 SP:FF PPU:  0,  0 CYC:5101
C7AD  F0 F9     BEQ $C7A8                       A:00 X:FF Y:00 P:26 SP:FF PPU:  0,  0 CYC:5103
C7A8  AD 02 20  LDA $2002 = 00                  A:00 X:FF Y:00 P:26 SP:FF PPU:  0,  0 CYC:5106
C7AB  29 80     AND #$80                        A:00 X:FF Y:00 P:26 SP:FF PPU:  0,  0 CYC:5110
C7AD  F0 F9     BEQ $C7A8                       A:00 X:FF Y:00 P:26 SP:FF PPU:  0,  0 CYC:5112
C7A8  AD 02 20  LDA $2002 = 00                  A:00 X:FF Y:00 P:26 SP:FF PPU:  0,  0 CYC:5115
C7AB  29 80     AND #$80                        A:00 X:FF Y:00 P:26 SP:FF PPU:  0,  0 CYC:5119
C7AD  F0 F9     BEQ $C7A8                       A:00 X:FF Y:00 P:26 SP:FF PPU:  0,  0 CYC:5121
C7A8  AD 02 20  LDA $2002 = 00                  A:00 X:FF Y:00 P:26 SP:FF PPU:  0,  0 CYC:5124
C7AB  29 80     AND #$80                        A:00 X:FF Y:00 P:26 SP:FF PPU:  0,  0 CYC:5128
C7AD  F0 F9     BEQ $C7A8                       A:00 X:FF Y:00 P:26 SP:FF PPU:  0,  0 CYC:5130
C7A8  AD 02 20  LDA $2002 = 00                  A:00 X:FF Y:00 P:26 SP:FF PPU:  0,  0 CYC:5133
C7AB  29 80     AND #$80                        A:00 X:FF Y:00 P:26 SP:FF PPU:  0,  0 CYC:5137
C7AD  F0 F9     BEQ $C7A8                       A:00 X:FF Y:00 P:26 SP:FF PPU:  0,  0 CYC:5139
C7A8  AD 02 20  LDA $2002 = 00                  A:00 X:FF Y:00 P:26 SP:FF PPU:  0,  0 CYC:5142
C7AB  29 80     AND #$80                        A:00 X:FF Y:00 P:26 SP:FF PPU:  0,  0 CYC:5146
C7AD  F0 F9     BEQ $C7A8                       A:00 X:FF Y:00 P:26 SP:FF PPU:  0,  0 CYC:5148
C7A8  AD 02 20  LDA $2002 = 00                  A:00 X:FF Y:00 P:26 SP:FF PPU:  0,  0 CYC:5151
C7AB  29 80     AND #$80                        A:00 X:FF Y:00 P:26 SP:FF PPU:  0,  0 CYC:5155
C7AD  F0 F9     BEQ $C7A8                       A:00 X:FF Y:00 P:26 SP:FF PPU:  0,  0 CYC:5157
C7A8  AD 02 20  LDA $2002 = 00                  A:00 X:FF Y:00 P:26 SP:FF PPU:  0,  0 CYC:5160
C7AB  29 80     AND #$80                        A:00 X:FF Y:00 P:26 SP:FF PPU:  0,  0 CYC:5164
C7AD  F0 F9     BEQ $C7A8                       A:00 X:FF Y:00 P:26 SP:FF PPU:  0,  0 CYC:5166
C7A8  AD 02 20  LDA $2002 = 00                  A:00 X:FF Y:00 P:26 SP:FF PPU:  0,  0 CYC:5169
C7AB  29 80     AND #$80                        A:00 X:FF Y:00 P:26 SP:FF PPU:  0,  0 CYC:5173
C7AD  F0 F9     BEQ $C7A8                       A:00 X:FF Y:00 P:26 SP:FF PPU:  0,  0 CYC:5175
C7A8  AD 02 20  LDA $2002 = 00                  A:00 X:FF Y:00 P:26 SP:FF PPU:  0,  0 CYC:5178
C7AB  29 80     AND #$80                        A:00 X:FF Y:00 P:26 SP:FF PPU:  0,  0 CYC:5182
C7AD  F0 F9     BEQ $C7A8                       A:00 X:FF Y:00 P:26 SP:FF PPU:  0,  0 CYC:5184
C7A8  AD 02 20  LDA $2002 = 00                  A:00 X:FF Y:00 P:26 SP:FF PPU:  0,  0 CYC:5187
C7AB  29 80     AND #$80                        A:00 X:FF Y:00 P:26 SP:FF PPU:  0,  0 CYC:5191
C7AD  F0 F9     BEQ $C7A8                       A:00 X:FF Y:00 P:26 SP:FF PPU:  0,  0 CYC:5193
C7A8  AD 02 20  LDA $2002 = 00                  A:00 X:FF Y:00 P:26 SP:FF PPU:  0,  0 CYC:5196
C7AB  29 80     AND #$80                        A:00 X:FF Y:00 P:26 SP:FF PPU:  0,  0 CYC:5200
C7AD  F0 F9     BEQ $C7A8                       A:00 X:FF Y:00 P:26 SP:FF PPU:  0,  0 CYC:5202
C7A8  AD 02 20  LDA $2002 = 00                  A:00 X:FF Y:00 P:26 SP:FF PPU:  0,  0 CYC:5205
C7AB  29 80     AND #$80                        A:00 X:FF Y:00 P:26 SP:FF PPU:  0,  0 CYC:5209
C7AD  F0 F9     BEQ $C7A8                       A:00 X:FF Y:00 P:26 SP:FF PPU:  0,  0 CYC:5211
C7A8  AD 02 20  LDA $2002 = 00                  A:00 X:FF Y:00 P:26 SP:FF PPU:  0,  0 CYC:5214
C7AB  29 80     AND #$80                        A:00 X:FF Y:00 P:26 SP:FF PPU:  0,  0 CYC:5218
C7AD  F0 F9     BEQ $C7A8                       A:00 X:FF Y:00 P:26 SP:FF PPU:  0,  0 CYC:5220
C7A8  AD 02 20  LDA $2002 = 00                  A:00 X:FF Y:00 P:26 SP:FF PPU:  0,  0 CYC:5223
C7AB  29 80     AND #$80                        A:00 X:FF Y:00 P:26 SP:FF PPU:  0,  0 CYC:5227
C7AD  F0 F9     BEQ $C7A8                       A:00 X:FF Y:00 P:26 SP:FF PPU:  0,  0 CYC:5229
C7A8  AD 02 20  LDA $2002 = 00                  A:00 X:FF Y:00 P:26 SP:FF PPU:  0,  0 CYC:5232
C7AB  29 80     AND #$80                        A:00 X:FF Y:00 P:26 SP:FF PPU:  0,  0 CYC:5236
C7AD  F0 F9     BEQ $C7A8                       A:00 X:FF Y:00 P:26 SP:FF PPU:  0,  0 CYC:5238
C7A8  AD 02 20  LDA $2002 = 00                  A:00 X:FF Y:00 P:26 SP:FF PPU:  0,  0 CYC:5241
C7AB  29 80     AND #$80                        A:00 X:FF Y:00 P:26 SP:FF PPU:  0,  0 CYC:5245
C7AD  F0 F9     BEQ $C7A8                       A:00 X:FF Y:00 P:26 SP:FF PPU:  0,  0 CYC:5247
C7A8  AD 02 20  LDA $2002 = 00                  A:00 X:FF Y:00 P:26 SP:FF PPU:  0,  0 CYC:5250
C7AB  29 80     AND #$80                        A:00 X:FF Y:00 P:26 SP:FF PPU:  0,  0 CYC:5254
C7AD  F0 F9     BEQ $C7A8                       A:00 X:FF Y:00 P:26 SP:FF PPU:  0,  0 CYC:5256
C7A8  AD 02 20  LDA $2002 = 00                  A:00 X:FF Y:00 P:26 SP:FF PPU:  0,  0 CYC:5259
C7AB  29 80     AND #$80                        A:00 X:FF Y:00 P:26 SP:FF PPU:  0,  0 CYC:5263
C7AD  F0 F9     BEQ $C7A8                       A:00 X:FF Y:00 P:26 SP:FF PPU:  0,  0 CYC:5265
C7A8  AD 02 20  LDA $2002 = 00                  A:00 X:FF Y:00 P:26 SP:FF PPU:  0,  0 CYC:5268
C7AB  29 80     AND #$80                        A:00 X:FF Y:00 P:26 SP:FF PPU:  0,  0 CYC:5272
C7AD  F0 F9     BEQ $C7A8                       A:00 X:FF Y:00 P:26 SP:FF PPU:  0,  0 CYC:5274
C7A8  AD 02 20  LDA $2002 = 00                  A:00 X:FF Y:00 P:26 SP:FF PPU:  0,  0 CYC:5277
C7AB  29 80     AND #$80                        A:00 X:FF Y:00 P:26 SP:FF PPU:  0,  0 CYC:5281
C7AD  F0 F9     BEQ $C7A8                       A:00 X:FF Y:00 P:26 SP:FF PPU:  0,  0 CYC:5283
C7A8  AD 02 20  LDA $2002 = 00                  A:00 X:FF Y:00 P:26 SP:FF PPU:  0,  0 CYC:5286
C7AB  29 80     AND #$80                        A:00 X:FF Y:00 P:26 SP:FF PPU:  0,  0 CYC:5290
C7AD  F0 F9     BEQ $C7A8                       A:00 X:FF Y:00 P:26 SP:FF PPU:  0,  0 CYC:5292
C7A8  AD 02 20  LDA $2002 = 00                  A:00 X:FF Y:00 P:26 SP:FF PPU:  0,  0 CYC:5295
C7AB  29 80     AND #$80                        A:00 X:FF Y:00 P:26 SP:FF PPU:  0,  0 CYC:5299
C7AD  F0 F9     BEQ $C7A8                       A:00 X:FF Y:00 P:26 SP:FF PPU:  0,  0 CYC:5301
C7A8  AD 02 20  LDA $2002 = 00                  A:00 X:FF Y:00 P:26 SP:FF PPU:  0,  0 CYC:5304
C7AB  29 80     AND #$80                        A:00 X:FF Y:00 P:26 SP:FF PPU:  0,  0 CYC:5308
C7AD  F0 F9     BEQ $C7A8                       A:00 X:FF Y:00 P:26 SP:FF PPU:  0,  0 CYC:5310
C7A8  AD 02 20  LDA $2002 = 00                  A:00 X:FF Y:00 P:26 SP:FF PPU:  0,  0 CYC:5313
C7AB  29 80     AND #$80                        A:00 X:FF Y:00 P:26 SP:FF PPU:  0,  0 CYC:5317
C7AD  F0 F9     BEQ $C7A8                       A:00 X:FF Y:00 P:26 SP:FF PPU:  0,  0 CYC:5319
C7A8  AD 02 20  LDA $2002 = 00                  A:00 X:FF Y:00 P:26 SP:FF PPU:  0,  0 CYC:5322
C7AB  29 80     AND #$80                        A:00 X:FF Y:00 P:26 SP:FF PPU:  0,  0 CYC:5326
C7AD  F0 F9     BEQ $C7A8                       A:00 X:FF Y:00 P:26 SP:FF PPU:  0,  0 CYC:5328
C7A8  AD 02 20  LDA $2002 = 00                  A:00 X:FF Y:00 P:26 SP:FF PPU:  0,  0 CYC:5331
C7AB  29 80     AND #$80                        A:00 X:FF Y:00 P:26 SP:FF PPU:  0,  0 CYC:5335
C7AD  F0 F9     BEQ $C7A8                       A:00 X:FF Y:00 P:26 SP:FF PPU:  0,  0 CYC:5337
C7A8  AD 02 20  LDA $2002 = 00                  A:00 X:FF Y:00 P:26 SP:FF PPU:  0,  0 CYC:5340
C7AB  29 80     AND #$80                        A:00 X:FF Y:00 P:26 SP:FF PPU:  0,  0 CYC:5344
C7AD  F0 F9     BEQ $C7A8                       A:00 X:FF Y:00 P:26 SP:FF PPU:  0,  0 CYC:5346
C7A8  AD 02 20  LDA $2002 = 00                  A:00 X:FF Y:00 P:26 SP:FF PPU:  0,  0 CYC:5349
C7AB  29 80     AND #$80                        A:00 X:FF Y:00 P:26 SP:FF PPU:  0,  0 CYC:5353
C7AD  F0 F9     BEQ $C7A8                       A:00 X:FF Y:00 P:26 SP:FF PPU:  0,  0 CYC:5355
C7A8  AD 02 20  LDA $2002 = 00                  A:00 X:FF Y:00 P:26 SP:FF PPU:  0,  0 CYC:5358
C7AB  29 80     AND #$80                        A:00 X:FF Y:00 P:26 SP:FF PPU:  0,  0 CYC:5362
C7AD  F0 F9     BEQ $C7A8                       A:00 X:FF Y:00 P:26 SP:FF PPU:  0,  0 CYC:5364
C7A8  AD 02 20  LDA $2002 = 00                  A:00 X:FF Y:00 P:26 SP:FF PPU:  0,  0 CYC:5367
C7AB  29 80     AND #$80                        A:00 X:FF Y:00 P:26 SP:FF PPU:  0,  0 CYC:5371
C7AD  F0 F9     BEQ $C7A8                       A:00 X:FF Y:00 P:26 SP:FF PPU:  0,  0 CYC:5373
C7A8  AD 02 20  LDA $2002 = 00                  A:00 X:FF Y:00 P:26 SP:FF PPU:  0,  0 CYC:5376
C7AB  29 80     AND #$80                        A:00 X:FF Y:00 P:26 SP:FF PPU:  0,  0 CYC:5380
C7AD  F0 F9     BEQ $C7A8                       A:00 X:FF Y:00 P:26 SP:FF PPU:  0,  0 CYC:5382
C7A8  AD 02 20  LDA $2002 = 00                  A:00 X:FF Y:00 P:26 SP:FF PPU:  0,  0 CYC:5385
C7AB  29 80     AND #$80                        A:00 X:FF Y:00 P:26 SP:FF PPU:  0,  0 CYC:5389
C7AD  F0 F9     BEQ $C7A8                       A:00 X:FF Y:00 P:26 SP:FF PPU:  0,  0 CYC:5391
C7A8  AD 02 20  LDA $2002 = 00                  A:00 X:FF Y:00 P:26 SP:FF PPU:  0,  0 CYC:5394
C7AB  29 80     AND #$80                        A:00 X:FF Y:00 P:26 SP:FF PPU:  0,  0 CYC:5398
C7AD  F0 F9     BEQ $C7A8                       A:00 X:FF Y:00 P:26 SP:FF PPU:  0,  0 CYC:5400
C7A8  AD 02 20  LDA $2002 = 00                  A:00 X:FF Y:00 P:26 SP:FF PPU:  0,  0 CYC:5403
C7AB  29 80     AND #$80                        A:00 X:FF Y:00 P:26 SP:FF PPU:  0,  0 CYC:5407
C7AD  F0 F9     BEQ $C7A8                       A:00 X:FF Y:00 P:26 SP:FF PPU:  0,  0 CYC:5409
C7A8  AD 02 20  LDA $2002 = 00                  A:00 X:FF Y:00 P:26 SP:FF PPU:  0,  0 CYC:5412
C7AB  29 80     AND #$80                        A:00 X:FF Y:00 P:26 SP:FF PPU:  0,  0 CYC:5416
C7AD  F0 F9     BEQ $C7A8                       A:00 X:FF Y:00 P:26 SP:FF PPU:  0,  0 CYC:5418
C7A8  AD 02 20  LDA $2002 = 00                  A:00 X:FF Y:00 P:26 SP:FF PPU:  0,  0 CYC:5421
C7AB  29 80     AND #$80                        A:00 X:FF Y:00 P:26 SP:FF PPU:  0,  0 CYC:5425
C7AD  F0 F9     BEQ $C7A8                       A:00 X:FF Y:00 P:26 SP:FF PPU:  0,  0 CYC:5427
C7A8  AD 02 20  LDA $2002 = 00                  A:00 X:FF Y:00 P:26 SP:FF PPU:  0,  0 CYC:5430
C7AB  29 80     AND #$80                        A:00 X:FF Y:00 P:26 SP:FF PPU:  0,  0 CYC:5434
C7AD  F0 F9     BEQ $C7A8                       A:00 X:FF Y:00 P:26 SP:FF PPU:  0,  0 CYC:5436
C7A8  AD 02 20  LDA $2002 = 00                  A:00 X:FF Y:00 P:26 SP:FF PPU:  0,  0 CYC:5439
C7AB  29 80     AND #$80                        A:00 X:FF Y:00 P:26 SP:FF PPU:  0,  0 CYC:5443
C7AD  F0 F9     BEQ $C7A8                       A:00 X:FF Y:00 P:26 SP:FF PPU:  0,  0 CYC:5445
C7A8  AD 02 20  LDA $2002 = 00                  A:00 X:FF Y:00 P:26 SP:FF PPU:  0,  0 CYC:5448
C7AB  29 80     AND #$80                        A:00 X:FF Y:00 P:26 SP:FF PPU:  0,  0 CYC:5452
C7AD  F0 F9     BEQ $C7A8                       A:00 X:FF Y:00 P:26 SP:FF PPU:  0,  0 CYC:5454
C7A8  AD 02 20  LDA $2002 = 00                  A:00 X:FF Y:00 P:26 SP:FF PPU:  0,  0 CYC:5457
C7AB  29 80     AND #$80                        A:00 X:FF Y:00 P:26 SP:FF PPU:  0,  0 CYC:5461
C7AD  F0 F9     BEQ $C7A8                       A:00 X:FF Y:00 P:26 SP:FF PPU:  0,  0 CYC:5463
C7A8  AD 02 20  LDA $2002 = 00                  A:00 X:FF Y:00 P:26 SP:FF PPU:  0,  0 CYC:5466
C7AB  29 80     AND #$80                        A:00 X:FF Y:00 P:26 SP:FF PPU:  0,  0 CYC:5470
C7AD  F0 F9     BEQ $C7A8                       A:00 X:FF Y:00 P:26 SP:FF PPU:  0,  0 CYC:5472
C7A8  AD 02 20  LDA $2002 = 00                  A:00 X:FF Y:00 P:26 SP:FF PPU:  0,  0 CYC:5475
C7AB  29 80     AND #$80                        A:00 X:FF Y:00 P:26 SP:FF PPU:  0,  0 CYC:5479
C7AD  F0 F9     BEQ $C7A8                       A:00 X:FF Y:00 P:26 SP:FF PPU:  0,  0 CYC:5481
C7A8  AD 02 20  LDA $2002 = 00                  A:00 X:FF Y:00 P:26 SP:FF PPU:  0,  0 CYC:5484
C7AB  29 80     AND #$80                        A:00 X:FF Y:00 P:26 SP:FF PPU:  0,  0 CYC:5488
C7AD  F0 F9     BEQ $C7A8                       A:00 X:FF Y:00 P:26 SP:FF PPU:  0,  0 CYC:5490
C7A8  AD 02 20  LDA $2002 = 00                  A:00 X:FF Y:00 P:26 SP:FF PPU:  0,  0 CYC:5493
C7AB  29 80     AND #$80                        A:00 X:FF Y:00 P:26 SP:FF PPU:  0,  0 CYC:5497
C7AD  F0 F9     BEQ $C7A8                       A:00 X:FF Y:00 P:26 SP:FF PPU:  0,  0 CYC:5499
C7A8  AD 02 20  LDA $2002 = 00                  A:00 X:FF Y:00 P:26 SP:FF PPU:  0,  0 CYC:5502
C7AB  29 80     AND #$80                        A:00 X:FF Y:00 P:26 SP:FF PPU:  0,  0 CYC:5506
C7AD  F0 F9     BEQ $C7A8                       A:00 X:FF Y:00 P:26 SP:FF PPU:  0,  0 CYC:5508
C7A8  AD 02 20  LDA $2002 = 00                  A:00 X:FF Y:00 P:26 SP:FF PPU:  0,  0 CYC:5511
C7AB  29 80     AND #$80                        A:00 X:FF Y:00 P:26 SP:FF PPU:  0,  0 CYC:5515
C7AD  F0 F9     BEQ $C7A8                       A:00 X:FF Y:00 P:26 SP:FF PPU:  0,  0 CYC:5517
C7A8  AD 02 20  LDA $2002 = 00                  A:00 X:FF Y:00 P:26 SP:FF PPU:  0,  0 CYC:5520
C7AB  29 80     AND #$80                        A:00 X:FF Y:00 P:26 SP:FF PPU:  0,  0 CYC:5524
C7AD  F0 F9     BEQ $C7A8                       A:00 X:FF Y:00 P:26 SP:FF PPU:  0,  0 CYC:5526
C7A8  AD 02 20  LDA $2002 = 00                  A:00 X:FF Y:00 P:26 SP:FF PPU:  0,  0 CYC:5529
C7AB  29 80     AND #$80                        A:00 X:FF Y:00 P:26 SP:FF PPU:  0,  0 CYC:5533
C7AD  F0 F9     BEQ $C7A8                       A:00 X:FF Y:00 P:26 SP:FF PPU:  0,  0 CYC:5535
C7A8  AD 02 20  LDA $2002 = 00                  A:00 X:FF Y:00 P:26 SP:FF PPU:  0,  0 CYC:5538
C7AB  29 80     AND #$80                        A:00 X:FF Y:00 P:26 SP:FF PPU:  0,  0 CYC:5542
C7AD  F0 F9     BEQ $C7A8                       A:00 X:FF Y:00 P:26 SP:FF PPU:  0,  0 CYC:5544
C7A8  AD 02 20  LDA $2002 = 00                  A:00 X:FF Y:00 P:26 SP:FF PPU:  0,  0 CYC:5547
C7AB  29 80     AND #$80                        A:00 X:FF Y:00 P:26 SP:FF PPU:  0,  0 CYC:5551
C7AD  F0 F9     BEQ $C7A8                       A:00 X:FF Y:00 P:26 SP:FF PPU:  0,  0 CYC:5553
C7A8  AD 02 20  LDA $2002 = 00                  A:00 X:FF Y:00 P:26 SP:FF PPU:  0,  0 CYC:5556
C7AB  29 80     AND #$80                        A:00 X:FF Y:00 P:26 SP:FF PPU:  0,  0 CYC:5560
C7AD  F0 F9     BEQ $C7A8                       A:00 X:FF Y:00 P:26 SP:FF PPU:  0,  0 CYC:5562
C7A8  AD 02 20  LDA $2002 = 00                  A:00 X:FF Y:00 P:26 SP:FF PPU:  0,  0 CYC:5565
C7AB  29 80     AND #$80                        A:00 X:FF Y:00 P:26 SP:FF PPU:  0,  0 CYC:5569
C7AD  F0 F9     BEQ $C7A8                       A:00 X:FF Y:00 P:26 SP:FF PPU:  0,  0 CYC:5571
C7A8  AD 02 20  LDA $2002 = 00                  A:00 X:FF Y:00 P:26 SP:FF PPU:  0,  0 CYC:5574
C7AB  29 80     AND #$80                        A:00 X:FF Y:00 P:26 SP:FF PPU:  0,  0 CYC:5578
C7AD  F0 F9     BEQ $C7A8                       A:00 X:FF Y:00 P:26 SP:FF PPU:  0,  0 CYC:5580
C7A8  AD 02 20  LDA $2002 = 00                  A:00 X:FF Y:00 P:26 SP:FF PPU:  0,  0 CYC:5583
C7AB  29 80     AND #$80                        A:00 X:FF Y:00 P:26 SP:FF PPU:  0,  0 CYC:5587
C7AD  F0 F9     BEQ $C7A8                       A:00 X:FF Y:00 P:26 SP:FF PPU:  0,  0 CYC:5589
C7A8  AD 02 20  LDA $2002 = 00                  A:00 X:FF Y:00 P:26 SP:FF PPU:  0,  0 CYC:5592
C7AB  29 80     AND #$80                        A:00 X:FF Y:00 P:26 SP:FF PPU:  0,  0 CYC:5596
C7AD  F0 F9     BEQ $C7A8                       A:00 X:FF Y:00 P:26 SP:FF PPU:  0,  0 CYC:5598
C7A8  AD 02 20  LDA $2002 = 00                  A:00 X:FF Y:00 P:26 SP:FF PPU:  0,  0 CYC:5601
C7AB  29 80     AND #$80                        A:00 X:FF Y:00 P:26 SP:FF PPU:  0,  0 CYC:5605
C7AD  F0 F9     BEQ $C7A8                       A:00 X:FF Y:00 P:26 SP:FF PPU:  0,  0 CYC:5607
C7A8  AD 02 20  LDA $2002 = 00                  A:00 X:FF Y:00 P:26 SP:FF PPU:  0,  0 CYC:5610
C7AB  29 80     AND #$80                        A:00 X:FF Y:00 P:26 SP:FF PPU:  0,  0 CYC:5614
C7AD  F0 F9     BEQ $C7A8                       A:00 X:FF Y:00 P:26 SP:FF PPU:  0,  0 CYC:5616
C7A8  AD 02 20  LDA $2002 = 00                  A:00 X:FF Y:00 P:26 SP:FF PPU:  0,  0 CYC:5619
C7AB  29 80     AND #$80                        A:00 X:FF Y:00 P:26 SP:FF PPU:  0,  0 CYC:5623
C7AD  F0 F9     BEQ $C7A8                       A:00 X:FF Y:00 P:26 SP:FF PPU:  0,  0 CYC:5625
C7A8  AD 02 20  LDA $2002 = 00                  A:00 X:FF Y:00 P:26 SP:FF PPU:  0,  0 CYC:5628
C7AB  29 80     AND #$80                        A:00 X:FF Y:00 P:26 SP:FF PPU:  0,  0 CYC:5632
C7AD  F0 F9     BEQ $C7A8                       A:00 X:FF Y:00 P:26 SP:FF PPU:  0,  0 CYC:5634
C7A8  AD 02 20  LDA $2002 = 00                  A:00 X:FF Y:00 P:26 SP:FF PPU:  0,  0 CYC:5637
C7AB  29 80     AND #$80                        A:00 X:FF Y:00 P:26 SP:FF PPU:  0,  0 CYC:5641
C7AD  F0 F9     BEQ $C7A8                       A:00 X:FF Y:00 P:26 SP:FF PPU:  0,  0 CYC:5643
C7A8  AD 02 20  LDA $2002 = 00                  A:00 X:FF Y:00 P:26 SP:FF PPU:  0,  0 CYC:5646
C7AB  29 80     AND #$80                        A:00 X:FF Y:00 P:26 SP:FF PPU:  0,  0 CYC:5650
C7AD  F0 F9     BEQ $C7A8                       A:00 X:FF Y:00 P:26 SP:FF PPU:  0,  0 CYC:5652
C7A8  AD 02 20  LDA $2002 = 00                  A:00 X:FF Y:00 P:26 SP:FF PPU:  0,  0 CYC:5655
C7AB  29 80     AND #$80                        A:00 X:FF Y:00 P:26 SP:FF PPU:  0,  0 CYC:5659
C7AD  F0 F9     BEQ $C7A8                       A:00 X:FF Y:00 P:26 SP:FF PPU:  0,  0 CYC:5661
C7A8  AD 02 20  LDA $2002 = 00                  A:00 X:FF Y:00 P:26 SP:FF PPU:  0,  0 CYC:5664
C7AB  29 80     AND #$80                        A:00 X:FF Y:00 P:26 SP:FF PPU:  0,  0 CYC:5668
C7AD  F0 F9     BEQ $C7A8                       A:00 X:FF Y:00 P:26 SP:FF PPU:  0,  0 CYC:5670
C7A8  AD 02 20  LDA $2002 = 00                  A:00 X:FF Y:00 P:26 SP:FF PPU:  0,  0 CYC:5673
C7AB  29 80     AND #$80                        A:00 X:FF Y:00 P:26 SP:FF PPU:  0,  0 CYC:5677
C7AD  F0 F9     BEQ $C7A8                       A:00 X:FF Y:00 P:26 SP:FF PPU:  0,  0 CYC:5679
C7A8  AD 02 20  LDA $2002 = 00                  A:00 X:FF Y:00 P:26 SP:FF PPU:  0,  0 CYC:5682
C7AB  29 80     AND #$80                        A:00 X:FF Y:00 P:26 SP:FF PPU:  0,  0 CYC:5686
C7AD  F0 F9     BEQ $C7A8                       A:00 X:FF Y:00 P:26 SP:FF PPU:  0,  0 CYC:5688
C7A8  AD 02 20  LDA $2002 = 00                  A:00 X:FF Y:00 P:26 SP:FF PPU:  0,  0 CYC:5691
C7AB  29 80     AND #$80                        A:00 X:FF Y:00 P:26 SP:FF PPU:  0,  0 CYC:5695
C7AD  F0 F9     BEQ $C7A8                       A:00 X:FF Y:00 P:26 SP:FF PPU:  0,  0 CYC:5697
C7A8  AD 02 20  LDA $2002 = 00                  A:00 X:FF Y:00 P:26 SP:FF PPU:  0,  0 CYC:5700
C7AB  29 80     AND #$80                        A:00 X:FF Y:00 P:26 SP:FF PPU:  0,  0 CYC:5704
C7AD  F0 F9     BEQ $C7A8                       A:00 X:FF Y:00 P:26 SP:FF PPU:  0,  0 CYC:5706
C7A8  AD 02 20  LDA $2002 = 00                  A:00 X:FF Y:00 P:26 SP:FF PPU:  0,  0 CYC:5709
C7AB  29 80     AND #$80                        A:00 X:FF Y:00 P:26 SP:FF PPU:  0,  0 CYC:5713
C7AD  F0 F9     BEQ $C7A8                       A:00 X:FF Y:00 P:26 SP:FF PPU:  0,  0 CYC:5715
C7A8  AD 02 20  LDA $2002 = 00                  A:00 X:FF Y:00 P:26 SP:FF PPU:  0,  0 CYC:5718
C7AB  29 80     AND #$80                        A:00 X:FF Y:00 P:26 SP:FF PPU:  0,  0 CYC:5722
C7AD  F0 F9     BEQ $C7A8                       A:00 X:FF Y:00 P:26 SP:FF PPU:  0,  0 CYC:5724
C7A8  AD 02 20  LDA $2002 = 00                  A:00 X:FF Y:00 P:26 SP:FF PPU:  0,  0 CYC:5727
C7AB  29 80     AND #$80                        A:00 X:FF Y:00 P:26 SP:FF PPU:  0,  0 CYC:5731
C7AD  F0 F9     BEQ $C7A8                       A:00 X:FF Y:00 P:26 SP:FF PPU:  0,  0 CYC:5733
C7A8  AD 02 20  LDA $2002 = 00                  A:00 X:FF Y:00 P:26 SP:FF PPU:  0,  0 CYC:5736
C7AB  29 80     AND #$80                        A:00 X:FF Y:00 P:26 SP:FF PPU:  0,  0 CYC:5740
C7AD  F0 F9     BEQ $C7A8                       A:00 X:FF Y:00 P:26 SP:FF PPU:  0,  0 CYC:5742
C7A8  AD 02 20  LDA $2002 = 00                  A:00 X:FF Y:00 P:26 SP:FF PPU:  0,  0 CYC:5745
C7AB  29 80     AND #$80                        A:00 X:FF Y:00 P:26 SP:FF PPU:  0,  0 CYC:5749
C7AD  F0 F9     BEQ $C7A8                       A:00 X:FF Y:00 P:26 SP:FF PPU:  0,  0 CYC:5751
C7A8  AD 02 20  LDA $2002 = 00                  A:00 X:FF Y:00 P:26 SP:FF PPU:  0,  0 CYC:5754
C7AB  29 80     AND #$80                        A:00 X:FF Y:00 P:26 SP:FF PPU:  0,  0 CYC:5758
C7AD  F0 F9     BEQ $C7A8                       A:00 X:FF Y:00 P:26 SP:FF PPU:  0,  0 CYC:5760
C7A8  AD 02 20  LDA $2002 = 00                  A:00 X:FF Y:00 P:26 SP:FF PPU:  0,  0 CYC:5763
C7AB  29 80     AND #$80                        A:00 X:FF Y:00 P:26 SP:FF PPU:  0,  0 CYC:5767
C7AD  F0 F9     BEQ $C7A8                       A:00 X:FF Y:00 P:26 SP:FF PPU:  0,  0 CYC:5769
C7A8  AD 02 20  LDA $2002 = 00                  A:00 X:FF Y:00 P:26 SP:FF PPU:  0,  0 CYC:5772
C7AB  29 80     AND #$80                        A:00 X:FF Y:00 P:26 SP:FF PPU:  0,  0 CYC:5776
C7AD  F0 F9     BEQ $C7A8                       A:00 X:FF Y:00 P:26 SP:FF PPU:  0,  0 CYC:5778
C7A8  AD 02 20  LDA $2002 = 00                  A:00 X:FF Y:00 P:26 SP:FF PPU:  0,  0 CYC:5781
C7AB  29 80     AND #$80                        A:00 X:FF Y:00 P:26 SP:FF PPU:  0,  0 CYC:5785
C7AD  F0 F9     BEQ $C7A8                       A:00 X:FF Y:00 P:26 SP:FF PPU:  0,  0 CYC:5787
C7A8  AD 02 20  LDA $2002 = 00                  A:00 X:FF Y:00 P:26 SP:FF PPU:  0,  0 CYC:5790
C7AB  29 80     AND #$80                        A:00 X:FF Y:00 P:26 SP:FF PPU:  0,  0 CYC:5794
C7AD  F0 F9     BEQ $C7A8                       A:00 X:FF Y:00 P:26 SP:FF PPU:  0,  0 CYC:5796
C7A8  AD 02 20  LDA $2002 = 00                  A:00 X:FF Y:00 P:26 SP:FF PPU:  0,  0 CYC:5799
C7AB  29 80     AND #$80                        A:00 X:FF Y:00 P:26 SP:FF PPU:  0,  0 CYC:5803
C7AD  F0 F9     BEQ $C7A8                       A:00 X:FF Y:00 P:26 SP:FF PPU:  0,  0 CYC:5805
C7A8  AD 02 20  LDA $2002 = 00                  A:00 X:FF Y:00 P:26 SP:FF PPU:  0,  0 CYC:5808
C7AB  29 80     AND #$80                        A:00 X:FF Y:00 P:26 SP:FF PPU:  0,  0 CYC:5812
C7AD  F0 F9     BEQ $C7A8                       A:00 X:FF Y:00 P:26 SP:FF PPU:  0,  0 CYC:5814
C7A8  AD 02 20  LDA $2002 = 00                  A:00 X:FF Y:00 P:26 SP:FF PPU:  0,  0 CYC:5817
C7AB  29 80     AND #$80                        A:00 X:FF Y:00 P:26 SP:FF PPU:  0,  0 CYC:5821
C7AD  F0 F9     BEQ $C7A8                       A:00 X:FF Y:00 P:26 SP:FF PPU:  0,  0 CYC:5823
C7A8  AD 02 20  LDA $2002 = 00                  A:00 X:FF Y:00 P:26 SP:FF PPU:  0,  0 CYC:5826
C7AB  29 80     AND #$80                        A:00 X:FF Y:00 P:26 SP:FF PPU:  0,  0 CYC:5830
C7AD  F0 F9     BEQ $C7A8                       A:00 X:FF Y:00 P:26 SP:FF PPU:  0,  0 CYC:5832
C7A8  AD 02 20  LDA $2002 = 00                  A:00 X:FF Y:00 P:26 SP:FF PPU:  0,  0 CYC:5835
C7AB  29 80     AND #$80                        A:00 X:FF Y:00 P:26 SP:FF PPU:  0,  0 CYC:5839
C7AD  F0 F9     BEQ $C7A8                       A:00 X:FF Y:00 P:26 SP:FF PPU:  0,  0 CYC:5841
C7A8  AD 02 20  LDA $2002 = 00                  A:00 X:FF Y:00 P:26 SP:FF PPU:  0,  0 CYC:5844
C7AB  29 80     AND #$80                        A:00 X:FF Y:00 P:26 SP:FF PPU:  0,  0 CYC:5848
C7AD  F0 F9     BEQ $C7A8                       A:00 X:FF Y:00 P:26 SP:FF PPU:  0,  0 CYC:5850
C7A8  AD 02 20  LDA $2002 = 00                  A:00 X:FF Y:00 P:26 SP:FF PPU:  0,  0 CYC:5853
C7AB  29 80     AND #$80                        A:00 X:FF Y:00 P:26 SP:FF PPU:  0,  0 CYC:5857
C7AD  F0 F9     BEQ $C7A8                       A:00 X:FF Y:00 P:26 SP:FF PPU:  0,  0 CYC:5859
C7A8  AD 02 20  LDA $2002 = 00                  A:00 X:FF Y:00 P:26 SP:FF PPU:  0,  0 CYC:5862
C7AB  29 80     AND #$80                        A:00 X:FF Y:00 P:26 SP:FF PPU:  0,  0 CYC:5866
C7AD  F0 F9     BEQ $C7A8                       A:00 X:FF Y:00 P:26 SP:FF PPU:  0,  0 CYC:5868
C7A8  AD 02 20  LDA $2002 = 00                  A:00 X:FF Y:00 P:26 SP:FF PPU:  0,  0 CYC:5871
C7AB  29 80     AND #$80                        A:00 X:FF Y:00 P:26 SP:FF PPU:  0,  0 CYC:5875
C7AD  F0 F9     BEQ $C7A8                       A:00 X:FF Y:00 P:26 SP:FF PPU:  0,  0 CYC:5877
C7A8  AD 02 20  LDA $2002 = 00                  A:00 X:FF Y:00 P:26 SP:FF PPU:  0,  0 CYC:5880
C7AB  29 80     AND #$80                        A:00 X:FF Y:00 P:26 SP:FF PPU:  0,  0 CYC:5884
C7AD  F0 F9     BEQ $C7A8                       A:00 X:FF Y:00 P:26 SP:FF PPU:  0,  0 CYC:5886
C7A8  AD 02 20  LDA $2002 = 00                  A:00 X:FF Y:00 P:26 SP:FF PPU:  0,  0 CYC:5889
C7AB  29 80     AND #$80                        A:00 X:FF Y:00 P:26 SP:FF PPU:  0,  0 CYC:5893
C7AD  F0 F9     BEQ $C7A8                       A:00 X:FF Y:00 P:26 SP:FF PPU:  0,  0 CYC:5895
C7A8  AD 02 20  LDA $2002 = 00                  A:00 X:FF Y:00 P:26 SP:FF PPU:  0,  0 CYC:5898
C7AB  29 80     AND #$80                        A:00 X:FF Y:00 P:26 SP:FF PPU:  0,  0 CYC:5902
C7AD  F0 F9     BEQ $C7A8                       A:00 X:FF Y:00 P:26 SP:FF PPU:  0,  0 CYC:5904
C7A8  AD 02 20  LDA $2002 = 00                  A:00 X:FF Y:00 P:26 SP:FF PPU:  0,  0 CYC:5907
C7AB  29 80     AND #$80                        A:00 X:FF Y:00 P:26 SP:FF PPU:  0,  0 CYC:5911
C7AD  F0 F9     BEQ $C7A8                       A:00 X:FF Y:00 P:26 SP:FF PPU:  0,  0 CYC:5913
C7A8  AD 02 20  LDA $2002 = 00                  A:00 X:FF Y:00 P:26 SP:FF PPU:  0,  0 CYC:5916
C7AB  29 80     AND #$80                        A:00 X:FF Y:00 P:26 SP:FF PPU:  0,  0 CYC:5920
C7AD  F0 F9     BEQ $C7A8                       A:00 X:FF Y:00 P:26 SP:FF PPU:  0,  0 CYC:5922
C7A8  AD 02 20  LDA $2002 = 00                  A:00 X:FF Y:00 P:26 SP:FF PPU:  0,  0 CYC:5925
C7AB  29 80     AND #$80                        A:00 X:FF Y:00 P:26 SP:FF PPU:  0,  0 CYC:5929
C7AD  F0 F9     BEQ $C7A8                       A:00 X:FF Y:00 P:26 SP:FF PPU:  0,  0 CYC:5931
C7A8  AD 02 20  LDA $2002 = 00                  A:00 X:FF Y:00 P:26 SP:FF PPU:  0,  0 CYC:5934
C7AB  29 80     AND #$80                        A:00 X:FF Y:00 P:26 SP:FF PPU:  0,  0 CYC:5938
C7AD  F0 F9     BEQ $C7A8                       A:00 X:FF Y:00 P:26 SP:FF PPU:  0,  0 CYC:5940
C7A8  AD 02 20  LDA $2002 = 00                  A:00 X:FF Y:00 P:26 SP:FF PPU:  0,  0 CYC:5943
C7AB  29 80     AND #$80                        A:00 X:FF Y:00 P:26 SP:FF PPU:  0,  0 CYC:5947
C7AD  F0 F9     BEQ $C7A8                       A:00 X:FF Y:00 P:26 SP:FF PPU:  0,  0 CYC:5949
C7A8  AD 02 20  LDA $2002 = 00                  A:00 X:FF Y:00 P:26 SP:FF PPU:  0,  0 CYC:5952
C7AB  29 80     AND #$80                        A:00 X:FF Y:00 P:26 SP:FF PPU:  0,  0 CYC:5956
C7AD  F0 F9     BEQ $C7A8                       A:00 X:FF Y:00 P:26 SP:FF PPU:  0,  0 CYC:5958
C7A8  AD 02 20  LDA $2002 = 00                  A:00 X:FF Y:00 P:26 SP:FF PPU:  0,  0 CYC:5961
C7AB  29 80     AND #$80                        A:00 X:FF Y:00 P:26 SP:FF PPU:  0,  0 CYC:5965
C7AD  F0 F9     BEQ $C7A8                       A:00 X:FF Y:00 P:26 SP:FF PPU:  0,  0 CYC:5967
C7A8  AD 02 20  LDA $2002 = 00                  A:00 X:FF Y:00 P:26 SP:FF PPU:  0,  0 CYC:5970
C7AB  29 80     AND #$80                        A:00 X:FF Y:00 P:26 SP:FF PPU:  0,  0 CYC:5974
C7AD  F0 F9     BEQ $C7A8                       A:00 X:FF Y:00 P:26 SP:FF PPU:  0,  0 CYC:5976
C7A8  AD 02 20  LDA $2002 = 00                  A:00 X:FF Y:00 P:26 SP:FF PPU:  0,  0 CYC:5979
C7AB  29 80     AND #$80                        A:00 X:FF Y:00 P:26 SP:FF PPU:  0,  0 CYC:5983
C7AD  F0 F9     BEQ $C7A8                       A:00 X:FF Y:00 P:26 SP:FF PPU:  0,  0 CYC:5985
C7A8  AD 02 20  LDA $2002 = 00                  A:00 X:FF Y:00 P:26 SP:FF PPU:  0,  0 CYC:5988
C7AB  29 80     AND #$80                        A:00 X:FF Y:00 P:26 SP:FF PPU:  0,  0 CYC:5992
C7AD  F0 F9     BEQ $C7A8                       A:00 X:FF Y:00 P:26 SP:FF PPU:  0,  0 CYC:5994
C7A8  AD 02 20  LDA $2002 = 00                  A:00 X:FF Y:00 P:26 SP:FF PPU:  0,  0 CYC:5997
C7AB  29 80     AND #$80                        A:00 X:FF Y:00 P:26 SP:FF PPU:  0,  0 CYC:6001
C7AD  F0 F9     BEQ $C7A8                       A:00 X:FF Y:00 P:26 SP:FF PPU:  0,  0 CYC:6003
C7A8  AD 02 20  LDA $2002 = 00                  A:00 X:FF Y:00 P:26 SP:FF PPU:  0,  0 CYC:6006
C7AB  29 80     AND #$80                        A:00 X:FF Y:00 P:26 SP:FF PPU:  0,  0 CYC:6010
C7AD  F0 F9     BEQ $C7A8                       A:00 X:FF Y:00 P:26 SP:FF PPU:  0,  0 CYC:6012
C7A8  AD 02 20  LDA $2002 = 00                  A:00 X:FF Y:00 P:26 SP:FF PPU:  0,  0 CYC:6015
C7AB  29 80     AND #$80                        A:00 X:FF Y:00 P:26 SP:FF PPU:  0,  0 CYC:6019
C7AD  F0 F9     BEQ $C7A8                       A:00 X:FF Y:00 P:26 SP:FF PPU:  0,  0 CYC:6021
C7A8  AD 02 20  LDA $2002 = 00                  A:00 X:FF Y:00 P:26 SP:FF PPU:  0,  0 CYC:6024
C7AB  29 80     AND #$80                        A:00 X:FF Y:00 P:26 SP:FF PPU:  0,  0 CYC:6028
C7AD  F0 F9     BEQ $C7A8                       A:00 X:FF Y:00 P:26 SP:FF PPU:  0,  0 CYC:6030
C7A8  AD 02 20  LDA $2002 = 00                  A:00 X:FF Y:00 P:26 SP:FF PPU:  0,  0 CYC:6033
C7AB  29 80     AND #$80                        A:00 X:FF Y:00 P:26 SP:FF PPU:  0,  0 CYC:6037
C7AD  F0 F9     BEQ $C7A8                       A:00 X:FF Y:00 P:26 SP:FF PPU:  0,  0 CYC:6039
C7A8  AD 02 20  LDA $2002 = 00                  A:00 X:FF Y:00 P:26 SP:FF PPU:  0,  0 CYC:6042
C7AB  29 80     AND #$80                        A:00 X:FF Y:00 P:26 SP:FF PPU:  0,  0 CYC:6046
C7AD  F0 F9     BEQ $C7A8                       A:00 X:FF Y:00 P:26 SP:FF PPU:  0,  0 CYC:6048
C7A8  AD 02 20  LDA $2002 = 00                  A:00 X:FF Y:00 P:26 SP:FF PPU:  0,  0 CYC:6051
C7AB  29 80     AND #$80                        A:00 X:FF Y:00 P:26 SP:FF PPU:  0,  0 CYC:6055
C7AD  F0 F9     BEQ $C7A8                       A:00 X:FF Y:00 P:26 SP:FF PPU:  0,  0 CYC:6057
C7A8  AD 02 20  LDA $2002 = 00                  A:00 X:FF Y:00 P:26 SP:FF PPU:  0,  0 CYC:6060
C7AB  29 80     AND #$80                        A:00 X:FF Y:00 P:26 SP:FF PPU:  0,  0 CYC:6064
C7AD  F0 F9     BEQ $C7A8                       A:00 X:FF Y:00 P:26 SP:FF PPU:  0,  0 CYC:6066
C7A8  AD 02 20  LDA $2002 = 00                  A:00 X:FF Y:00 P:26 SP:FF PPU:  0,  0 CYC:6069
C7AB  29 80     AND #$80                        A:00 X:FF Y:00 P:26 SP:FF PPU:  0,  0 CYC:6073
C7AD  F0 F9     BEQ $C7A8                       A:00 X:FF Y:00 P:26 SP:FF PPU:  0,  0 CYC:6075
C7A8  AD 02 20  LDA $2002 = 00                  A:00 X:FF Y:00 P:26 SP:FF PPU:  0,  0 CYC:6078
C7AB  29 80     AND #$80                        A:00 X:FF Y:00 P:26 SP:FF PPU:  0,  0 CYC:6082
C7AD  F0 F9     BEQ $C7A8                       A:00 X:FF Y:00 P:26 SP:FF PPU:  0,  0 CYC:6084
C7A8  AD 02 20  LDA $2002 = 00                  A:00 X:FF Y:00 P:26 SP:FF PPU:  0,  0 CYC:6087
C7AB  29 80     AND #$80                        A:00 X:FF Y:00 P:26 SP:FF PPU:  0,  0 CYC:6091
C7AD  F0 F9     BEQ $C7A8                       A:00 X:FF Y:00 P:26 SP:FF PPU:  0,  0 CYC:6093
C7A8  AD 02 20  LDA $2002 = 00                  A:00 X:FF Y:00 P:26 SP:FF PPU:  0,  0 CYC:6096
C7AB  29 80     AND #$80                        A:00 X:FF Y:00 P:26 SP:FF PPU:  0,  0 CYC:6100
C7AD  F0 F9     BEQ $C7A8                       A:00 X:FF Y:00 P:26 SP:FF PPU:  0,  0 CYC:6102
C7A8  AD 02 20  LDA $2002 = 00                  A:00 X:FF Y:00 P:26 SP:FF PPU:  0,  0 CYC:6105
C7AB  29 80     AND #$80                        A:00 X:FF Y:00 P:26 SP:FF PPU:  0,  0 CYC:6109
C7AD  F0 F9     BEQ $C7A8                       A:00 X:FF Y:00 P:26 SP:FF PPU:  0,  0 CYC:6111
C7A8  AD 02 20  LDA $2002 = 00                  A:00 X:FF Y:00 P:26 SP:FF PPU:  0,  0 CYC:6114
C7AB  29 80     AND #$80                        A:00 X:FF Y:00 P:26 SP:FF PPU:  0,  0 CYC:6118
C7AD  F0 F9     BEQ $C7A8                       A:00 X:FF Y:00 P:26 SP:FF PPU:  0,  0 CYC:6120
C7A8  AD 02 20  LDA $2002 = 00                  A:00 X:FF Y:00 P:26 SP:FF PPU:  0,  0 CYC:6123
C7AB  29 80     AND #$80                        A:00 X:FF Y:00 P:26 SP:FF PPU:  0,  0 CYC:6127
C7AD  F0 F9     BEQ $C7A8                       A:00 X:FF Y:00 P:26 SP:FF PPU:  0,  0 CYC:6129
C7A8  AD 02 20  LDA $2002 = 00                  A:00 X:FF Y:00 P:26 SP:FF PPU:  0,  0 CYC:6132
C7AB  29 80     AND #$80                        A:00 X:FF Y:00 P:26 SP:FF PPU:  0,  0 CYC:6136
C7AD  F0 F9     BEQ $C7A8                       A:00 X:FF Y:00 P:26 SP:FF PPU:  0,  0 CYC:6138
C7A8  AD 02 20  LDA $2002 = 00                  A:00 X:FF Y:00 P:26 SP:FF PPU:  0,  0 CYC:6141
C7AB  29 80     AND #$80                        A:00 X:FF Y:00 P:26 SP:FF PPU:  0,  0 CYC:6145
C7AD  F0 F9     BEQ $C7A8                       A:00 X:FF Y:00 P:26 SP:FF PPU:  0,  0 CYC:6147
C7A8  AD 02 20  LDA $2002 = 00                  A:00 X:FF Y:00 P:26 SP:FF PPU:  0,  0 CYC:6150
C7AB  29 80     AND #$80                        A:00 X:FF Y:00 P:26 SP:FF PPU:  0,  0 CYC:6154
C7AD  F0 F9     BEQ $C7A8                       A:00 X:FF Y:00 P:26 SP:FF PPU:  0,  0 CYC:6156
C7A8  AD 02 20  LDA $2002 = 00                  A:00 X:FF Y:00 P:26 SP:FF PPU:  0,  0 CYC:6159
C7AB  29 80     AND #$80                        A:00 X:FF Y:00 P:26 SP:FF PPU:  0,  0 CYC:6163
C7AD  F0 F9     BEQ $C7A8                       A:00 X:FF Y:00 P:26 SP:FF PPU:  0,  0 CYC:6165
C7A8  AD 02 20  LDA $2002 = 00                  A:00 X:FF Y:00 P:26 SP:FF PPU:  0,  0 CYC:6168
C7AB  29 80     AND #$80                        A:00 X:FF Y:00 P:26 SP:FF PPU:  0,  0 CYC:6172
C7AD  F0 F9     BEQ $C7A8                       A:00 X:FF Y:00 P:26 SP:FF PPU:  0,  0 CYC:6174
C7A8  AD 02 20  LDA $2002 = 00                  A:00 X:FF Y:00 P:26 SP:FF PPU:  0,  0 CYC:6177
C7AB  29 80     AND #$80                        A:00 X:FF Y:00 P:26 SP:FF PPU:  0,  0 CYC:6181
C7AD  F0 F9     BEQ $C7A8                       A:00 X:FF Y:00 P:26 SP:FF PPU:  0,  0 CYC:6183
C7A8  AD 02 20  LDA $2002 = 00                  A:00 X:FF Y:00 P:26 SP:FF PPU:  0,  0 CYC:6186
C7AB  29 80     AND #$80                        A:00 X:FF Y:00 P:26 SP:FF PPU:  0,  0 CYC:6190
C7AD  F0 F9     BEQ $C7A8                       A:00 X:FF Y:00 P:26 SP:FF PPU:  0,  0 CYC:6192
C7A8  AD 02 20  LDA $2002 = 00                  A:00 X:FF Y:00 P:26 SP:FF PPU:  0,  0 CYC:6195
C7AB  29 80     AND #$80                        A:00 X:FF Y:00 P:26 SP:FF PPU:  0,  0 CYC:6199
C7AD  F0 F9     BEQ $C7A8                       A:00 X:FF Y:00 P:26 SP:FF PPU:  0,  0 CYC:6201
C7A8  AD 02 20  LDA $2002 = 00                  A:00 X:FF Y:00 P:26 SP:FF PPU:  0,  0 CYC:6204
C7AB  29 80     AND #$80                        A:00 X:FF Y:00 P:26 SP:FF PPU:  0,  0 CYC:6208
C7AD  F0 F9     BEQ $C7A8                       A:00 X:FF Y:00 P:26 SP:FF PPU:  0,  0 CYC:6210
C7A8  AD 02 20  LDA $2002 = 00                  A:00 X:FF Y:00 P:26 SP:FF PPU:  0,  0 CYC:6213
C7AB  29 80     AND #$80                        A:00 X:FF Y:00 P:26 SP:FF PPU:  0,  0 CYC:6217
C7AD  F0 F9     BEQ $C7A8                       A:00 X:FF Y:00 P:26 SP:FF PPU:  0,  0 CYC:6219
C7A8  AD 02 20  LDA $2002 = 00                  A:00 X:FF Y:00 P:26 SP:FF PPU:  0,  0 CYC:6222
C7AB  29 80     AND #$80                        A:00 X:FF Y:00 P:26 SP:FF PPU:  0,  0 CYC:6226
C7AD  F0 F9     BEQ $C7A8                       A:00 X:FF Y:00 P:26 SP:FF PPU:  0,  0 CYC:6228
C7A8  AD 02 20  LDA $2002 = 00                  A:00 X:FF Y:00 P:26 SP:FF PPU:  0,  0 CYC:6231
C7AB  29 80     AND #$80                        A:00 X:FF Y:00 P:26 SP:FF PPU:  0,  0 CYC:6235
C7AD  F0 F9     BEQ $C7A8                       A:00 X:FF Y:00 P:26 SP:FF PPU:  0,  0 CYC:6237
C7A8  AD 02 20  LDA $2002 = 00                  A:00 X:FF Y:00 P:26 SP:FF PPU:  0,  0 CYC:6240
C7AB  29 80     AND #$80                        A:00 X:FF Y:00 P:26 SP:FF PPU:  0,  0 CYC:6244
C7AD  F0 F9     BEQ $C7A8                       A:00 X:FF Y:00 P:26 SP:FF PPU:  0,  0 CYC:6246
C7A8  AD 02 20  LDA $2002 = 00                  A:00 X:FF Y:00 P:26 SP:FF PPU:  0,  0 CYC:6249
C7AB  29 80     AND #$80                        A:00 X:FF Y:00 P:26 SP:FF PPU:  0,  0 CYC:6253
C7AD  F0 F9     BEQ $C7A8                       A:00 X:FF Y:00 P:26 SP:FF PPU:  0,  0 CYC:6255
C7A8  AD 02 20  LDA $2002 = 00                  A:00 X:FF Y:00 P:26 SP:FF PPU:  0,  0 CYC:6258
C7AB  29 80     AND #$80                        A:00 X:FF Y:00 P:26 SP:FF PPU:  0,  0 CYC:6262
C7AD  F0 F9     BEQ $C7A8                       A:00 X:FF Y:00 P:26 SP:FF PPU:  0,  0 CYC:6264
C7A8  AD 02 20  LDA $2002 = 00                  A:00 X:FF Y:00 P:26 SP:FF PPU:  0,  0 CYC:6267
C7AB  29 80     AND #$80                        A:00 X:FF Y:00 P:26 SP:FF PPU:  0,  0 CYC:6271
C7AD  F0 F9     BEQ $C7A8                       A:00 X:FF Y:00 P:26 SP:FF PPU:  0,  0 CYC:6273
C7A8  AD 02 20  LDA $2002 = 00                  A:00 X:FF Y:00 P:26 SP:FF PPU:  0,  0 CYC:6276
C7AB  29 80     AND #$80                        A:00 X:FF Y:00 P:26 SP:FF PPU:  0,  0 CYC:6280
C7AD  F0 F9     BEQ $C7A8                       A:00 X:FF Y:00 P:26 SP:FF PPU:  0,  0 CYC:6282
C7A8  AD 02 20  LDA $2002 = 00                  A:00 X:FF Y:00 P:26 SP:FF PPU:  0,  0 CYC:6285
C7AB  29 80     AND #$80                        A:00 X:FF Y:00 P:26 SP:FF PPU:  0,  0 CYC:6289
C7AD  F0 F9     BEQ $C7A8                       A:00 X:FF Y:00 P:26 SP:FF PPU:  0,  0 CYC:6291
C7A8  AD 02 20  LDA $2002 = 00                  A:00 X:FF Y:00 P:26 SP:FF PPU:  0,  0 CYC:6294
C7AB  29 80     AND #$80                        A:00 X:FF Y:00 P:26 SP:FF PPU:  0,  0 CYC:6298
C7AD  F0 F9     BEQ $C7A8                       A:00 X:FF Y:00 P:26 SP:FF PPU:  0,  0 CYC:6300
C7A8  AD 02 20  LDA $2002 = 00                  A:00 X:FF Y:00 P:26 SP:FF PPU:  0,  0 CYC:6303
C7AB  29 80     AND #$80                        A:00 X:FF Y:00 P:26 SP:FF PPU:  0,  0 CYC:6307
C7AD  F0 F9     BEQ $C7A8                       A:00 X:FF Y:00 P:26 SP:FF PPU:  0,  0 CYC:6309
C7A8  AD 02 20  LDA $2002 = 00                  A:00 X:FF Y:00 P:26 SP:FF PPU:  0,  0 CYC:6312
C7AB  29 80     AND #$80                        A:00 X:FF Y:00 P:26 SP:FF PPU:  0,  0 CYC:6316
C7AD  F0 F9     BEQ $C7A8                       A:00 X:FF Y:00 P:26 SP:FF PPU:  0,  0 CYC:6318
C7A8  AD 02 20  LDA $2002 = 00                  A:00 X:FF Y:00 P:26 SP:FF PPU:  0,  0 CYC:6321
C7AB  29 80     AND #$80                        A:00 X:FF Y:00 P:26 SP:FF PPU:  0,  0 CYC:6325
C7AD  F0 F9     BEQ $C7A8                       A:00 X:FF Y:00 P:26 SP:FF PPU:  0,  0 CYC:6327
C7A8  AD 02 20  LDA $2002 = 00                  A:00 X:FF Y:00 P:26 SP:FF PPU:  0,  0 CYC:6330
C7AB  29 80     AND #$80                        A:00 X:FF Y:00 P:26 SP:FF PPU:  0,  0 CYC:6334
C7AD  F0 F9     BEQ $C7A8                       A:00 X:FF Y:00 P:26 SP:FF PPU:  0,  0 CYC:6336
C7A8  AD 02 20  LDA $2002 = 00                  A:00 X:FF Y:00 P:26 SP:FF PPU:  0,  0 CYC:6339
C7AB  29 80     AND #$80                        A:00 X:FF Y:00 P:26 SP:FF PPU:  0,  0 CYC:6343
C7AD  F0 F9     BEQ $C7A8                       A:00 X:FF Y:00 P:26 SP:FF PPU:  0,  0 CYC:6345
C7A8  AD 02 20  LDA $2002 = 00                  A:00 X:FF Y:00 P:26 SP:FF PPU:  0,  0 CYC:6348
C7AB  29 80     AND #$80                        A:00 X:FF Y:00 P:26 SP:FF PPU:  0,  0 CYC:6352
C7AD  F0 F9     BEQ $C7A8                       A:00 X:FF Y:00 P:26 SP:FF PPU:  0,  0 CYC:6354
C7A8  AD 02 20  LDA $2002 = 00                  A:00 X:FF Y:00 P:26 SP:FF PPU:  0,  0 CYC:6357
C7AB  29 80     AND #$80                        A:00 X:FF Y:00 P:26 SP:FF PPU:  0,  0 CYC:6361
C7AD  F0 F9     BEQ $C7A8                       A:00 X:FF Y:00 P:26 SP:FF PPU:  0,  0 CYC:6363
C7A8  AD 02 20  LDA $2002 = 00                  A:00 X:FF Y:00 P:26 SP:FF PPU:  0,  0 CYC:6366
C7AB  29 80     AND #$80                        A:00 X:FF Y:00 P:26 SP:FF PPU:  0,  0 CYC:6370
C7AD  F0 F9     BEQ $C7A8                       A:00 X:FF Y:00 P:26 SP:FF PPU:  0,  0 CYC:6372
C7A8  AD 02 20  LDA $2002 = 00                  A:00 X:FF Y:00 P:26 SP:FF PPU:  0,  0 CYC:6375
C7AB  29 80     AND #$80                        A:00 X:FF Y:00 P:26 SP:FF PPU:  0,  0 CYC:6379
C7AD  F0 F9     BEQ $C7A8                       A:00 X:FF Y:00 P:26 SP:FF PPU:  0,  0 CYC:6381
C7A8  AD 02 20  LDA $2002 = 00                  A:00 X:FF Y:00 P:26 SP:FF PPU:  0,  0 CYC:6384
C7AB  29 80     AND #$80                        A:00 X:FF Y:00 P:26 SP:FF PPU:  0,  0 CYC:6388
C7AD  F0 F9     BEQ $C7A8                       A:00 X:FF Y:00 P:26 SP:FF PPU:  0,  0 CYC:6390
C7A8  AD 02 20  LDA $2002 = 00                  A:00 X:FF Y:00 P:26 SP:FF PPU:  0,  0 CYC:6393
C7AB  29 80     AND #$80                        A:00 X:FF Y:00 P:26 SP:FF PPU:  0,  0 CYC:6397
C7AD  F0 F9     BEQ $C7A8                       A:00 X:FF Y:00 P:26 SP:FF PPU:  0,  0 CYC:6399
C7A8  AD 02 20  LDA $2002 = 00                  A:00 X:FF Y:00 P:26 SP:FF PPU:  0,  0 CYC:6402
C7AB  29 80     AND #$80                        A:00 X:FF Y:00 P:26 SP:FF PPU:  0,  0 CYC:6406
C7AD  F0 F9     BEQ $C7A8                       A:00 X:FF Y:00 P:26 SP:FF PPU:  0,  0 CYC:6408
C7A8  AD 02 20  LDA $2002 = 00                  A:00 X:FF Y:00 P:26 SP:FF PPU:  0,  0 CYC:6411
C7AB  29 80     AND #$80                        A:00 X:FF Y:00 P:26 SP:FF PPU:  0,  0 CYC:6415
C7AD  F0 F9     BEQ $C7A8                       A:00 X:FF Y:00 P:26 SP:FF PPU:  0,  0 CYC:6417
C7A8  AD 02 20  LDA $2002 = 00                  A:00 X:FF Y:00 P:26 SP:FF PPU:  0,  0 CYC:6420
C7AB  29 80     AND #$80                        A:00 X:FF Y:00 P:26 SP:FF PPU:  0,  0 CYC:6424
C7AD  F0 F9     BEQ $C7A8                       A:00 X:FF Y:00 P:26 SP:FF PPU:  0,  0 CYC:6426
C7A8  AD 02 20  LDA $2002 = 00                  A:00 X:FF Y:00 P:26 SP:FF PPU:  0,  0 CYC:6429
C7AB  29 80     AND #$80                        A:00 X:FF Y:00 P:26 SP:FF PPU:  0,  0 CYC:6433
C7AD  F0 F9     BEQ $C7A8                       A:00 X:FF Y:00 P:26 SP:FF PPU:  0,  0 CYC:6435
C7A8  AD 02 20  LDA $2002 = 00                  A:00 X:FF Y:00 P:26 SP:FF PPU:  0,  0 CYC:6438
C7AB  29 80     AND #$80                        A:00 X:FF Y:00 P:26 SP:FF PPU:  0,  0 CYC:6442
C7AD  F0 F9     BEQ $C7A8                       A:00 X:FF Y:00 P:26 SP:FF PPU:  0,  0 CYC:6444
C7A8  AD 02 20  LDA $2002 = 00                  A:00 X:FF Y:00 P:26 SP:FF PPU:  0,  0 CYC:6447
C7AB  29 80     AND #$80                        A:00 X:FF Y:00 P:26 SP:FF PPU:  0,  0 CYC:6451
C7AD  F0 F9     BEQ $C7A8                       A:00 X:FF Y:00 P:26 SP:FF PPU:  0,  0 CYC:6453
C7A8  AD 02 20  LDA $2002 = 00                  A:00 X:FF Y:00 P:26 SP:FF PPU:  0,  0 CYC:6456
C7AB  29 80     AND #$80                        A:00 X:FF Y:00 P:26 SP:FF PPU:  0,  0 CYC:6460
C7AD  F0 F9     BEQ $C7A8                       A:00 X:FF Y:00 P:26 SP:FF PPU:  0,  0 CYC:6462
C7A8  AD 02 20  LDA $2002 = 00                  A:00 X:FF Y:00 P:26 SP:FF PPU:  0,  0 CYC:6465
C7AB  29 80     AND #$80                        A:00 X:FF Y:00 P:26 SP:FF PPU:  0,  0 CYC:6469
C7AD  F0 F9     BEQ $C7A8                       A:00 X:FF Y:00 P:26 SP:FF PPU:  0,  0 CYC:6471
C7A8  AD 02 20  LDA $2002 = 00                  A:00 X:FF Y:00 P:26 SP:FF PPU:  0,  0 CYC:6474
C7AB  29 80     AND #$80                        A:00 X:FF Y:00 P:26 SP:FF PPU:  0,  0 CYC:6478
C7AD  F0 F9     BEQ $C7A8                       A:00 X:FF Y:00 P:26 SP:FF PPU:  0,  0 CYC:6480
C7A8  AD 02 20  LDA $2002 = 00                  A:00 X:FF Y:00 P:26 SP:FF PPU:  0,  0 CYC:6483
C7AB  29 80     AND #$80                        A:00 X:FF Y:00 P:26 SP:FF PPU:  0,  0 CYC:6487
C7AD  F0 F9     BEQ $C7A8                       A:00 X:FF Y:00 P:26 SP:FF PPU:  0,  0 CYC:6489
C7A8  AD 02 20  LDA $2002 = 00                  A:00 X:FF Y:00 P:26 SP:FF PPU:  0,  0 CYC:6492
C7AB  29 80     AND #$80                        A:00 X:FF Y:00 P:26 SP:FF PPU:  0,  0 CYC:6496
C7AD  F0 F9     BEQ $C7A8                       A:00 X:FF Y:00 P:26 SP:FF PPU:  0,  0 CYC:6498
C7A8  AD 02 20  LDA $2002 = 00                  A:00 X:FF Y:00 P:26 SP:FF PPU:  0,  0 CYC:6501
C7AB  29 80     AND #$80                        A:00 X:FF Y:00 P:26 SP:FF PPU:  0,  0 CYC:6505
C7AD  F0 F9     BEQ $C7A8                       A:00 X:FF Y:00 P:26 SP:FF PPU:  0,  0 CYC:6507
C7A8  AD 02 20  LDA $2002 = 00                  A:00 X:FF Y:00 P:26 SP:FF PPU:  0,  0 CYC:6510
C7AB  29 80     AND #$80                        A:00 X:FF Y:00 P:26 SP:FF PPU:  0,  0 CYC:6514
C7AD  F0 F9     BEQ $C7A8                       A:00 X:FF Y:00 P:26 SP:FF PPU:  0,  0 CYC:6516
C7A8  AD 02 20  LDA $2002 = 00                  A:00 X:FF Y:00 P:26 SP:FF PPU:  0,  0 CYC:6519
C7AB  29 80     AND #$80                        A:00 X:FF Y:00 P:26 SP:FF PPU:  0,  0 CYC:6523
C7AD  F0 F9     BEQ $C7A8                       A:00 X:FF Y:00 P:26 SP:FF PPU:  0,  0 CYC:6525
C7A8  AD 02 20  LDA $2002 = 00                  A:00 X:FF Y:00 P:26 SP:FF PPU:  0,  0 CYC:6528
C7AB  29 80     AND #$80                        A:00 X:FF Y:00 P:26 SP:FF PPU:  0,  0 CYC:6532
C7AD  F0 F9     BEQ $C7A8                       A:00 X:FF Y:00 P:26 SP:FF PPU:  0,  0 CYC:6534
C7A8  AD 02 20  LDA $2002 = 00                  A:00 X:FF Y:00 P:26 SP:FF PPU:  0,  0 CYC:6537
C7AB  29 80     AND #$80                        A:00 X:FF Y:00 P:26 SP:FF PPU:  0,  0 CYC:6541
C7AD  F0 F9     BEQ $C7A8                       A:00 X:FF Y:00 P:26 SP:FF PPU:  0,  0 CYC:6543
C7A8  AD 02 20  LDA $2002 = 00                  A:00 X:FF Y:00 P:26 SP:FF PPU:  0,  0 CYC:6546
C7AB  29 80     AND #$80                        A:00 X:FF Y:00 P:26 SP:FF PPU:  0,  0 CYC:6550
C7AD  F0 F9     BEQ $C7A8                       A:00 X:FF Y:00 P:26 SP:FF PPU:  0,  0 CYC:6552
C7A8  AD 02 20  LDA $2002 = 00                  A:00 X:FF Y:00 P:26 SP:FF PPU:  0,  0 CYC:6555
C7AB  29 80     AND #$80                        A:00 X:FF Y:00 P:26 SP:FF PPU:  0,  0 CYC:6559
C7AD  F0 F9     BEQ $C7A8                       A:00 X:FF Y:00 P:26 SP:FF PPU:  0,  0 CYC:6561
C7A8  AD 02 20  LDA $2002 = 00                  A:00 X:FF Y:00 P:26 SP:FF PPU:  0,  0 CYC:6564
C7AB  29 80     AND #$80                        A:00 X:FF Y:00 P:26 SP:FF PPU:  0,  0 CYC:6568
C7AD  F0 F9     BEQ $C7A8                       A:00 X:FF Y:00 P:26 SP:FF PPU:  0,  0 CYC:6570
C7A8  AD 02 20  LDA $2002 = 00                  A:00 X:FF Y:00 P:26 SP:FF PPU:  0,  0 CYC:6573
C7AB  29 80     AND #$80                        A:00 X:FF Y:00 P:26 SP:FF PPU:  0,  0 CYC:6577
C7AD  F0 F9     BEQ $C7A8                       A:00 X:FF Y:00 P:26 SP:FF PPU:  0,  0 CYC:6579
C7A8  AD 02 20  LDA $2002 = 00                  A:00 X:FF Y:00 P:26 SP:FF PPU:  0,  0 CYC:6582
C7AB  29 80     AND #$80                        A:00 X:FF Y:00 P:26 SP:FF PPU:  0,  0 CYC:6586
C7AD  F0 F9     BEQ $C7A8                       A:00 X:FF Y:00 P:26 SP:FF PPU:  0,  0 CYC:6588
C7A8  AD 02 20  LDA $2002 = 00                  A:00 X:FF Y:00 P:26 SP:FF PPU:  0,  0 CYC:6591
C7AB  29 80     AND #$80                        A:00 X:FF Y:00 P:26 SP:FF PPU:  0,  0 CYC:6595
C7AD  F0 F9     BEQ $C7A8                       A:00 X:FF Y:00 P:26 SP:FF PPU:  0,  0 CYC:6597
C7A8  AD 02 20  LDA $2002 = 00                  A:00 X:FF Y:00 P:26 SP:FF PPU:  0,  0 CYC:6600
C7AB  29 80     AND #$80                        A:00 X:FF Y:00 P:26 SP:FF PPU:  0,  0 CYC:6604
C7AD  F0 F9     BEQ $C7A8                       A:00 X:FF Y:00 P:26 SP:FF PPU:  0,  0 CYC:6606
C7A8  AD 02 20  LDA $2002 = 00                  A:00 X:FF Y:00 P:26 SP:FF PPU:  0,  0 CYC:6609
C7AB  29 80     AND #$80                        A:00 X:FF Y:00 P:26 SP:FF PPU:  0,  0 CYC:6613
C7AD  F0 F9     BEQ $C7A8                       A:00 X:FF Y:00 P:26 SP:FF PPU:  0,  0 CYC:6615
C7A8  AD 02 20  LDA $2002 = 00                  A:00 X:FF Y:00 P:26 SP:FF PPU:  0,  0 CYC:6618
C7AB  29 80     AND #$80                        A:00 X:FF Y:00 P:26 SP:FF PPU:  0,  0 CYC:6622
C7AD  F0 F9     BEQ $C7A8                       A:00 X:FF Y:00 P:26 SP:FF PPU:  0,  0 CYC:6624
C7A8  AD 02 20  LDA $2002 = 00                  A:00 X:FF Y:00 P:26 SP:FF PPU:  0,  0 CYC:6627
C7AB  29 80     AND #$80                        A:00 X:FF Y:00 P:26 SP:FF PPU:  0,  0 CYC:6631
C7AD  F0 F9     BEQ $C7A8                       A:00 X:FF Y:00 P:26 SP:FF PPU:  0,  0 CYC:6633
C7A8  AD 02 20  LDA $2002 = 00                  A:00 X:FF Y:00 P:26 SP:FF PPU:  0,  0 CYC:6636
C7AB  29 80     AND #$80                        A:00 X:FF Y:00 P:26 SP:FF PPU:  0,  0 CYC:6640
C7AD  F0 F9     BEQ $C7A8                       A:00 X:FF Y:00 P:26 SP:FF PPU:  0,  0 CYC:6642
C7A8  AD 02 20  LDA $2002 = 00                  A:00 X:FF Y:00 P:26 SP:FF PPU:  0,  0 CYC:6645
C7AB  29 80     AND #$80                        A:00 X:FF Y:00 P:26 SP:FF PPU:  0,  0 CYC:6649
C7AD  F0 F9     BEQ $C7A8                       A:00 X:FF Y:00 P:26 SP:FF PPU:  0,  0 CYC:6651
C7A8  AD 02 20  LDA $2002 = 00                  A:00 X:FF Y:00 P:26 SP:FF PPU:  0,  0 CYC:6654
C7AB  29 80     AND #$80                        A:00 X:FF Y:00 P:26 SP:FF PPU:  0,  0 CYC:6658
C7AD  F0 F9     BEQ $C7A8                       A:00 X:FF Y:00 P:26 SP:FF PPU:  0,  0 CYC:6660
C7A8  AD 02 20  LDA $2002 = 00                  A:00 X:FF Y:00 P:26 SP:FF PPU:  0,  0 CYC:6663
C7AB  29 80     AND #$80                        A:00 X:FF Y:00 P:26 SP:FF PPU:  0,  0 CYC:6667
C7AD  F0 F9     BEQ $C7A8                       A:00 X:FF Y:00 P:26 SP:FF PPU:  0,  0 CYC:6669
C7A8  AD 02 20  LDA $2002 = 00                  A:00 X:FF Y:00 P:26 SP:FF PPU:  0,  0 CYC:6672
C7AB  29 80     AND #$80                        A:00 X:FF Y:00 P:26 SP:FF PPU:  0,  0 CYC:6676
C7AD  F0 F9     BEQ $C7A8                       A:00 X:FF Y:00 P:26 SP:FF PPU:  0,  0 CYC:6678
C7A8  AD 02 20  LDA $2002 = 00                  A:00 X:FF Y:00 P:26 SP:FF PPU:  0,  0 CYC:6681
C7AB  29 80     AND #$80                        A:00 X:FF Y:00 P:26 SP:FF PPU:  0,  0 CYC:6685
C7AD  F0 F9     BEQ $C7A8                       A:00 X:FF Y:00 P:26 SP:FF PPU:  0,  0 CYC:6687
C7A8  AD 02 20  LDA $2002 = 00                  A:00 X:FF Y:00 P:26 SP:FF PPU:  0,  0 CYC:6690
C7AB  29 80     AND #$80                        A:00 X:FF Y:00 P:26 SP:FF PPU:  0,  0 CYC:6694
C7AD  F0 F9     BEQ $C7A8                       A:00 X:FF Y:00 P:26 SP:FF PPU:  0,  0 CYC:6696
C7A8  AD 02 20  LDA $2002 = 00                  A:00 X:FF Y:00 P:26 SP:FF PPU:  0,  0 CYC:6699
C7AB  29 80     AND #$80                        A:00 X:FF Y:00 P:26 SP:FF PPU:  0,  0 CYC:6703
C7AD  F0 F9     BEQ $C7A8                       A:00 X:FF Y:00 P:26 SP:FF PPU:  0,  0 CYC:6705
C7A8  AD 02 20  LDA $2002 = 00                  A:00 X:FF Y:00 P:26 SP:FF PPU:  0,  0 CYC:6708
C7AB  29 80     AND #$80                        A:00 X:FF Y:00 P:26 SP:FF PPU:  0,  0 CYC:6712
C7AD  F0 F9     BEQ $C7A8                       A:00 X:FF Y:00 P:26 SP:FF PPU:  0,  0 CYC:6714
C7A8  AD 02 20  LDA $2002 = 00                  A:00 X:FF Y:00 P:26 SP:FF PPU:  0,  0 CYC:6717
C7AB  29 80     AND #$80                        A:00 X:FF Y:00 P:26 SP:FF PPU:  0,  0 CYC:6721
C7AD  F0 F9     BEQ $C7A8                       A:00 X:FF Y:00 P:26 SP:FF PPU:  0,  0 CYC:6723
C7A8  AD 02 20  LDA $2002 = 00                  A:00 X:FF Y:00 P:26 SP:FF PPU:  0,  0 CYC:6726
C7AB  29 80     AND #$80                        A:00 X:FF Y:00 P:26 SP:FF PPU:  0,  0 CYC:6730
C7AD  F0 F9     BEQ $C7A8                       A:00 X:FF Y:00 P:26 SP:FF PPU:  0,  0 CYC:6732
C7A8  AD 02 20  LDA $2002 = 00                  A:00 X:FF Y:00 P:26 SP:FF PPU:  0,  0 CYC:6735
C7AB  29 80     AND #$80                        A:00 X:FF Y:00 P:26 SP:FF PPU:  0,  0 CYC:6739
C7AD  F0 F9     BEQ $C7A8                       A:00 X:FF Y:00 P:26 SP:FF PPU:  0,  0 CYC:6741
C7A8  AD 02 20  LDA $2002 = 00                  A:00 X:FF Y:00 P:26 SP:FF PPU:  0,  0 CYC:6744
C7AB  29 80     AND #$80                        A:00 X:FF Y:00 P:26 SP:FF PPU:  0,  0 CYC:6748
C7AD  F0 F9     BEQ $C7A8                       A:00 X:FF Y:00 P:26 SP:FF PPU:  0,  0 CYC:6750
C7A8  AD 02 20  LDA $2002 = 00                  A:00 X:FF Y:00 P:26 SP:FF PPU:  0,  0 CYC:6753
C7AB  29 80     AND #$80                        A:00 X:FF Y:00 P:26 SP:FF PPU:  0,  0 CYC:6757
C7AD  F0 F9     BEQ $C7A8                       A:00 X:FF Y:00 P:26 SP:FF PPU:  0,  0 CYC:6759
C7A8  AD 02 20  LDA $2002 = 00                  A:00 X:FF Y:00 P:26 SP:FF PPU:  0,  0 CYC:6762
C7AB  29 80     AND #$80                        A:00 X:FF Y:00 P:26 SP:FF PPU:  0,  0 CYC:6766
C7AD  F0 F9     BEQ $C7A8                       A:00 X:FF Y:00 P:26 SP:FF PPU:  0,  0 CYC:6768
C7A8  AD 02 20  LDA $2002 = 00                  A:00 X:FF Y:00 P:26 SP:FF PPU:  0,  0 CYC:6771
C7AB  29 80     AND #$80                        A:00 X:FF Y:00 P:26 SP:FF PPU:  0,  0 CYC:6775
C7AD  F0 F9     BEQ $C7A8                       A:00 X:FF Y:00 P:26 SP:FF PPU:  0,  0 CYC:6777
C7A8  AD 02 20  LDA $2002 = 00                  A:00 X:FF Y:00 P:26 SP:FF PPU:  0,  0 CYC:6780
C7AB  29 80     AND #$80                        A:00 X:FF Y:00 P:26 SP:FF PPU:  0,  0 CYC:6784
C7AD  F0 F9     BEQ $C7A8                       A:00 X:FF Y:00 P:26 SP:FF PPU:  0,  0 CYC:6786
C7A8  AD 02 20  LDA $2002 = 00                  A:00 X:FF Y:00 P:26 SP:FF PPU:  0,  0 CYC:6789
C7AB  29 80     AND #$80                        A:00 X:FF Y:00 P:26 SP:FF PPU:  0,  0 CYC:6793
C7AD  F0 F9     BEQ $C7A8                       A:00 X:FF Y:00 P:26 SP:FF PPU:  0,  0 CYC:6795
C7A8  AD 02 20  LDA $2002 = 00                  A:00 X:FF Y:00 P:26 SP:FF PPU:  0,  0 CYC:6798
C7AB  29 80     AND #$80                        A:00 X:FF Y:00 P:26 SP:FF PPU:  0,  0 CYC:6802
C7AD  F0 F9     BEQ $C7A8                       A:00 X:FF Y:00 P:26 SP:FF PPU:  0,  0 CYC:6804
C7A8  AD 02 20  LDA $2002 = 00                  A:00 X:FF Y:00 P:26 SP:FF PPU:  0,  0 CYC:6807
C7AB  29 80     AND #$80                        A:00 X:FF Y:00 P:26 SP:FF PPU:  0,  0 CYC:6811
C7AD  F0 F9     BEQ $C7A8                       A:00 X:FF Y:00 P:26 SP:FF PPU:  0,  0 CYC:6813
C7A8  AD 02 20  LDA $2002 = 00                  A:00 X:FF Y:00 P:26 SP:FF PPU:  0,  0 CYC:6816
C7AB  29 80     AND #$80                        A:00 X:FF Y:00 P:26 SP:FF PPU:  0,  0 CYC:6820
C7AD  F0 F9     BEQ $C7A8                       A:00 X:FF Y:00 P:26 SP:FF PPU:  0,  0 CYC:6822
C7A8  AD 02 20  LDA $2002 = 00                  A:00 X:FF Y:00 P:26 SP:FF PPU:  0,  0 CYC:6825
C7AB  29 80     AND #$80                        A:00 X:FF Y:00 P:26 SP:FF PPU:  0,  0 CYC:6829
C7AD  F0 F9     BEQ $C7A8                       A:00 X:FF Y:00 P:26 SP:FF PPU:  0,  0 CYC:6831
C7A8  AD 02 20  LDA $2002 = 00                  A:00 X:FF Y:00 P:26 SP:FF PPU:  0,  0 CYC:6834
C7AB  29 80     AND #$80                        A:00 X:FF Y:00 P:26 SP:FF PPU:  0,  0 CYC:6838
C7AD  F0 F9     BEQ $C7A8                       A:00 X:FF Y:00 P:26 SP:FF PPU:  0,  0 CYC:6840
C7A8  AD 02 20  LDA $2002 = 00                  A:00 X:FF Y:00 P:26 SP:FF PPU:  0,  0 CYC:6843
C7AB  29 80     AND #$80                        A:00 X:FF Y:00 P:26 SP:FF PPU:  0,  0 CYC:6847
C7AD  F0 F9     BEQ $C7A8                       A:00 X:FF Y:00 P:26 SP:FF PPU:  0,  0 CYC:6849
C7A8  AD 02 20  LDA $2002 = 00                  A:00 X:FF Y:00 P:26 SP:FF PPU:  0,  0 CYC:6852
C7AB  29 80     AND #$80                        A:00 X:FF Y:00 P:26 SP:FF PPU:  0,  0 CYC:6856
C7AD  F0 F9     BEQ $C7A8                       A:00 X:FF Y:00 P:26 SP:FF PPU:  0,  0 CYC:6858
C7A8  AD 02 20  LDA $2002 = 00                  A:00 X:FF Y:00 P:26 SP:FF PPU:  0,  0 CYC:6861
C7AB  29 80     AND #$80                        A:00 X:FF Y:00 P:26 SP:FF PPU:  0,  0 CYC:6865
C7AD  F0 F9     BEQ $C7A8                       A:00 X:FF Y:00 P:26 SP:FF PPU:  0,  0 CYC:6867
C7A8  AD 02 20  LDA $2002 = 00                  A:00 X:FF Y:00 P:26 SP:FF PPU:  0,  0 CYC:6870
C7AB  29 80     AND #$80                        A:00 X:FF Y:00 P:26 SP:FF PPU:  0,  0 CYC:6874
C7AD  F0 F9     BEQ $C7A8                       A:00 X:FF Y:00 P:26 SP:FF PPU:  0,  0 CYC:6876
C7A8  AD 02 20  LDA $2002 = 00                  A:00 X:FF Y:00 P:26 SP:FF PPU:  0,  0 CYC:6879
C7AB  29 80     AND #$80                        A:00 X:FF Y:00 P:26 SP:FF PPU:  0,  0 CYC:6883
C7AD  F0 F9     BEQ $C7A8                       A:00 X:FF Y:00 P:26 SP:FF PPU:  0,  0 CYC:6885
C7A8  AD 02 20  LDA $2002 = 00                  A:00 X:FF Y:00 P:26 SP:FF PPU:  0,  0 CYC:6888
C7AB  29 80     AND #$80                        A:00 X:FF Y:00 P:26 SP:FF PPU:  0,  0 CYC:6892
C7AD  F0 F9     BEQ $C7A8                       A:00 X:FF Y:00 P:26 SP:FF PPU:  0,  0 CYC:6894
C7A8  AD 02 20  LDA $2002 = 00                  A:00 X:FF Y:00 P:26 SP:FF PPU:  0,  0 CYC:6897
C7AB  29 80     AND #$80                        A:00 X:FF Y:00 P:26 SP:FF PPU:  0,  0 CYC:6901
C7AD  F0 F9     BEQ $C7A8                       A:00 X:FF Y:00 P:26 SP:FF PPU:  0,  0 CYC:6903
C7A8  AD 02 20  LDA $2002 = 00                  A:00 X:FF Y:00 P:26 SP:FF PPU:  0,  0 CYC:6906
C7AB  29 80     AND #$80                        A:00 X:FF Y:00 P:26 SP:FF PPU:  0,  0 CYC:6910
C7AD  F0 F9     BEQ $C7A8                       A:00 X:FF Y:00 P:26 SP:FF PPU:  0,  0 CYC:6912
C7A8  AD 02 20  LDA $2002 = 00                  A:00 X:FF Y:00 P:26 SP:FF PPU:  0,  0 CYC:6915
C7AB  29 80     AND #$80                        A:00 X:FF Y:00 P:26 SP:FF PPU:  0,  0 CYC:6919
C7AD  F0 F9     BEQ $C7A8                       A:00 X:FF Y:00 P:26 SP:FF PPU:  0,  0 CYC:6921
C7A8  AD 02 20  LDA $2002 = 00                  A:00 X:FF Y:00 P:26 SP:FF PPU:  0,  0 CYC:6924
C7AB  29 80     AND #$80                        A:00 X:FF Y:00 P:26 SP:FF PPU:  0,  0 CYC:6928
C7AD  F0 F9     BEQ $C7A8                       A:00 X:FF Y:00 P:26 SP:FF PPU:  0,  0 CYC:6930
C7A8  AD 02 20  LDA $2002 = 00                  A:00 X:FF Y:00 P:26 SP:FF PPU:  0,  0 CYC:6933
C7AB  29 80     AND #$80                        A:00 X:FF Y:00 P:26 SP:FF PPU:  0,  0 CYC:6937
C7AD  F0 F9     BEQ $C7A8                       A:00 X:FF Y:00 P:26 SP:FF PPU:  0,  0 CYC:6939
C7A8  AD 02 20  LDA $2002 = 00                  A:00 X:FF Y:00 P:26 SP:FF PPU:  0,  0 CYC:6942
C7AB  29 80     AND #$80                        A:00 X:FF Y:00 P:26 SP:FF PPU:  0,  0 CYC:6946
C7AD  F0 F9     BEQ $C7A8                       A:00 X:FF Y:00 P:26 SP:FF PPU:  0,  0 CYC:6948
C7A8  AD 02 20  LDA $2002 = 00                  A:00 X:FF Y:00 P:26 SP:FF PPU:  0,  0 CYC:6951
C7AB  29 80     AND #$80                        A:00 X:FF Y:00 P:26 SP:FF PPU:  0,  0 CYC:6955
C7AD  F0 F9     BEQ $C7A8                       A:00 X:FF Y:00 P:26 SP:FF PPU:  0,  0 CYC:6957
C7A8  AD 02 20  LDA $2002 = 00                  A:00 X:FF Y:00 P:26 SP:FF PPU:  0,  0 CYC:6960
C7AB  29 80     AND #$80                        A:00 X:FF Y:00 P:26 SP:FF PPU:  0,  0 CYC:6964
C7AD  F0 F9     BEQ $C7A8                       A:00 X:FF Y:00 P:26 SP:FF PPU:  0,  0 CYC:6966
C7A8  AD 02 20  LDA $2002 = 00                  A:00 X:FF Y:00 P:26 SP:FF PPU:  0,  0 CYC:6969
C7AB  29 80     AND #$80                        A:00 X:FF Y:00 P:26 SP:FF PPU:  0,  0 CYC:6973
C7AD  F0 F9     BEQ $C7A8                       A:00 X:FF Y:00 P:26 SP:FF PPU:  0,  0 CYC:6975
C7A8  AD 02 20  LDA $2002 = 00                  A:00 X:FF Y:00 P:26 SP:FF PPU:  0,  0 CYC:6978
C7AB  29 80     AND #$80                        A:00 X:FF Y:00 P:26 SP:FF PPU:  0,  0 CYC:6982
C7AD  F0 F9     BEQ $C7A8                       A:00 X:FF Y:00 P:26 SP:FF PPU:  0,  0 CYC:6984
C7A8  AD 02 20  LDA $2002 = 00                  A:00 X:FF Y:00 P:26 SP:FF PPU:  0,  0 CYC:6987
C7AB  29 80     AND #$80                        A:00 X:FF Y:00 P:26 SP:FF PPU:  0,  0 CYC:6991
C7AD  F0 F9     BEQ $C7A8                       A:00 X:FF Y:00 P:26 SP:FF PPU:  0,  0 CYC:6993
C7A8  AD 02 20  LDA $2002 = 00                  A:00 X:FF Y:00 P:26 SP:FF PPU:  0,  0 CYC:6996
C7AB  29 80     AND #$80                        A:00 X:FF Y:00 P:26 SP:FF PPU:  0,  0 CYC:7000
C7AD  F0 F9     BEQ $C7A8                       A:00 X:FF Y:00 P:26 SP:FF PPU:  0,  0 CYC:7002
C7A8  AD 02 20  LDA $2002 = 00                  A:00 X:FF Y:00 P:26 SP:FF PPU:  0,  0 CYC:7005
C7AB  29 80     AND #$80                        A:00 X:FF Y:00 P:26 SP:FF PPU:  0,  0 CYC:7009
C7AD  F0 F9     BEQ $C7A8                       A:00 X:FF Y:00 P:26 SP:FF PPU:  0,  0 CYC:7011
C7A8  AD 02 20  LDA $2002 = 00                  A:00 X:FF Y:00 P:26 SP:FF PPU:  0,  0 CYC:7014
C7AB  29 80     AND #$80                        A:00 X:FF Y:00 P:26 SP:FF PPU:  0,  0 CYC:7018
C7AD  F0 F9     BEQ $C7A8                       A:00 X:FF Y:00 P:26 SP:FF PPU:  0,  0 CYC:7020
C7A8  AD 02 20  LDA $2002 = 00                  A:00 X:FF Y:00 P:26 SP:FF PPU:  0,  0 CYC:7023
C7AB  29 80     AND #$80                        A:00 X:FF Y:00 P:26 SP:FF PPU:  0,  0 CYC:7027
C7AD  F0 F9     BEQ $C7A8                       A:00 X:FF Y:00 P:26 SP:FF PPU:  0,  0 CYC:7029
C7A8  AD 02 20  LDA $2002 = 00                  A:00 X:FF Y:00 P:26 SP:FF PPU:  0,  0 CYC:7032
C7AB  29 80     AND #$80                        A:00 X:FF Y:00 P:26 SP:FF PPU:  0,  0 CYC:7036
C7AD  F0 F9     BEQ $C7A8                       A:00 X:FF Y:00 P:26 SP:FF PPU:  0,  0 CYC:7038
C7A8  AD 02 20  LDA $2002 = 00                  A:00 X:FF Y:00 P:26 SP:FF PPU:  0,  0 CYC:7041
C7AB  29 80     AND #$80                        A:00 X:FF Y:00 P:26 SP:FF PPU:  0,  0 CYC:7045
C7AD  F0 F9     BEQ $C7A8                       A:00 X:FF Y:00 P:26 SP:FF PPU:  0,  0 CYC:7047
C7A8  AD 02 20  LDA $2002 = 00                  A:00 X:FF Y:00 P:26 SP:FF PPU:  0,  0 CYC:7050
C7AB  29 80     AND #$80                        A:00 X:FF Y:00 P:26 SP:FF PPU:  0,  0 CYC:7054
C7AD  F0 F9     BEQ $C7A8                       A:00 X:FF Y:00 P:26 SP:FF PPU:  0,  0 CYC:7056
C7A8  AD 02 20  LDA $2002 = 00                  A:00 X:FF Y:00 P:26 SP:FF PPU:  0,  0 CYC:7059
C7AB  29 80     AND #$80                        A:00 X:FF Y:00 P:26 SP:FF PPU:  0,  0 CYC:7063
C7AD  F0 F9     BEQ $C7A8                       A:00 X:FF Y:00 P:26 SP:FF PPU:  0,  0 CYC:7065
C7A8  AD 02 20  LDA $2002 = 00                  A:00 X:FF Y:00 P:26 SP:FF PPU:  0,  0 CYC:7068
C7AB  29 80     AND #$80                        A:00 X:FF Y:00 P:26 SP:FF PPU:  0,  0 CYC:7072
C7AD  F0 F9     BEQ $C7A8                       A:00 X:FF Y:00 P:26 SP:FF PPU:  0,  0 CYC:7074
C7A8  AD 02 20  LDA $2002 = 00                  A:00 X:FF Y:00 P:26 SP:FF PPU:  0,  0 CYC:7077
C7AB  29 80     AND #$80                        A:00 X:FF Y:00 P:26 SP:FF PPU:  0,  0 CYC:7081
C7AD  F0 F9     BEQ $C7A8                       A:00 X:FF Y:00 P:26 SP:FF PPU:  0,  0 CYC:7083
C7A8  AD 02 20  LDA $2002 = 00                  A:00 X:FF Y:00 P:26 SP:FF PPU:  0,  0 CYC:7086
C7AB  29 80     AND #$80                        A:00 X:FF Y:00 P:26 SP:FF PPU:  0,  0 CYC:7090
C7AD  F0 F9     BEQ $C7A8                       A:00 X:FF Y:00 P:26 SP:FF PPU:  0,  0 CYC:7092
C7A8  AD 02 20  LDA $2002 = 00                  A:00 X:FF Y:00 P:26 SP:FF PPU:  0,  0 CYC:7095
C7AB  29 80     AND #$80                        A:00 X:FF Y:00 P:26 SP:FF PPU:  0,  0 CYC:7099
C7AD  F0 F9     BEQ $C7A8                       A:00 X:FF Y:00 P:26 SP:FF PPU:  0,  0 CYC:7101
C7A8  AD 02 20  LDA $2002 = 00                  A:00 X:FF Y:00 P:26 SP:FF PPU:  0,  0 CYC:7104
C7AB  29 80     AND #$80                        A:00 X:FF Y:00 P:26 SP:FF PPU:  0,  0 CYC:7108
C7AD  F0 F9     BEQ $C7A8                       A:00 X:FF Y:00 P:26 SP:FF PPU:  0,  0 CYC:7110
C7A8  AD 02 20  LDA $2002 = 00                  A:00 X:FF Y:00 P:26 SP:FF PPU:  0,  0 CYC:7113
C7AB  29 80     AND #$80                        A:00 X:FF Y:00 P:26 SP:FF PPU:  0,  0 CYC:7117
C7AD  F0 F9     BEQ $C7A8                       A:00 X:FF Y:00 P:26 SP:FF PPU:  0,  0 CYC:7119
C7A8  AD 02 20  LDA $2002 = 00                  A:00 X:FF Y:00 P:26 SP:FF PPU:  0,  0 CYC:7122
C7AB  29 80     AND #$80                        A:00 X:FF Y:00 P:26 SP:FF PPU:  0,  0 CYC:7126
C7AD  F0 F9     BEQ $C7A8                       A:00 X:FF Y:00 P:26 SP:FF PPU:  0,  0 CYC:7128
C7A8  AD 02 20  LDA $2002 = 00                  A:00 X:FF Y:00 P:26 SP:FF PPU:  0,  0 CYC:7131
C7AB  29 80     AND #$80                        A:00 X:FF Y:00 P:26 SP:FF PPU:  0,  0 CYC:7135
C7AD  F0 F9     BEQ $C7A8                       A:00 X:FF Y:00 P:26 SP:FF PPU:  0,  0 CYC:7137
C7A8  AD 02 20  LDA $2002 = 00                  A:00 X:FF Y:00 P:26 SP:FF PPU:  0,  0 CYC:7140
C7AB  29 80     AND #$80                        A:00 X:FF Y:00 P:26 SP:FF PPU:  0,  0 CYC:7144
C7AD  F0 F9     BEQ $C7A8                       A:00 X:FF Y:00 P:26 SP:FF PPU:  0,  0 CYC:7146
C7A8  AD 02 20  LDA $2002 = 00                  A:00 X:FF Y:00 P:26 SP:FF PPU:  0,  0 CYC:7149
C7AB  29 80     AND #$80                        A:00 X:FF Y:00 P:26 SP:FF PPU:  0,  0 CYC:7153
C7AD  F0 F9     BEQ $C7A8                       A:00 X:FF Y:00 P:26 SP:FF PPU:  0,  0 CYC:7155
C7A8  AD 02 20  LDA $2002 = 00                  A:00 X:FF Y:00 P:26 SP:FF PPU:  0,  0 CYC:7158
C7AB  29 80     AND #$80                        A:00 X:FF Y:00 P:26 SP:FF PPU:  0,  0 CYC:7162
C7AD  F0 F9     BEQ $C7A8                       A:00 X:FF Y:00 P:26 SP:FF PPU:  0,  0 CYC:7164
C7A8  AD 02 20  LDA $2002 = 00                  A:00 X:FF Y:00 P:26 SP:FF PPU:  0,  0 CYC:7167
C7AB  29 80     AND #$80                        A:00 X:FF Y:00 P:26 SP:FF PPU:  0,  0 CYC:7171
C7AD  F0 F9     BEQ $C7A8                       A:00 X:FF Y:00 P:26 SP:FF PPU:  0,  0 CYC:7173
C7A8  AD 02 20  LDA $2002 = 00                  A:00 X:FF Y:00 P:26 SP:FF PPU:  0,  0 CYC:7176
C7AB  29 80     AND #$80                        A:00 X:FF Y:00 P:26 SP:FF PPU:  0,  0 CYC:7180
C7AD  F0 F9     BEQ $C7A8                       A:00 X:FF Y:00 P:26 SP:FF PPU:  0,  0 CYC:7182
C7A8  AD 02 20  LDA $2002 = 00                  A:00 X:FF Y:00 P:26 SP:FF PPU:  0,  0 CYC:7185
C7AB  29 80     AND #$80                        A:00 X:FF Y:00 P:26 SP:FF PPU:  0,  0 CYC:7189
C7AD  F0 F9     BEQ $C7A8                       A:00 X:FF Y:00 P:26 SP:FF PPU:  0,  0 CYC:7191
C7A8  AD 02 20  LDA $2002 = 00                  A:00 X:FF Y:00 P:26 SP:FF PPU:  0,  0 CYC:7194
C7AB  29 80     AND #$80                        A:00 X:FF Y:00 P:26 SP:FF PPU:  0,  0 CYC:7198
C7AD  F0 F9     BEQ $C7A8                       A:00 X:FF Y:00 P:26 SP:FF PPU:  0,  0 CYC:7200
C7A8  AD 02 20  LDA $2002 = 00                  A:00 X:FF Y:00 P:26 SP:FF PPU:  0,  0 CYC:7203
C7AB  29 80     AND #$80                        A:00 X:FF Y:00 P:26 SP:FF PPU:  0,  0 CYC:7207
C7AD  F0 F9     BEQ $C7A8                       A:00 X:FF Y:00 P:26 SP:FF PPU:  0,  0 CYC:7209
C7A8  AD 02 20  LDA $2002 = 00                  A:00 X:FF Y:00 P:26 SP:FF PPU:  0,  0 CYC:7212
C7AB  29 80     AND #$80                        A:00 X:FF Y:00 P:26 SP:FF PPU:  0,  0 CYC:7216
C7AD  F0 F9     BEQ $C7A8                       A:00 X:FF Y:00 P:26 SP:FF PPU:  0,  0 CYC:7218
C7A8  AD 02 20  LDA $2002 = 00                  A:00 X:FF Y:00 P:26 SP:FF PPU:  0,  0 CYC:7221
C7AB  29 80     AND #$80                        A:00 X:FF Y:00 P:26 SP:FF PPU:  0,  0 CYC:7225
C7AD  F0 F9     BEQ $C7A8                       A:00 X:FF Y:00 P:26 SP:FF PPU:  0,  0 CYC:7227
C7A8  AD 02 20  LDA $2002 = 00                  A:00 X:FF Y:00 P:26 SP:FF PPU:  0,  0 CYC:7230
C7AB  29 80     AND #$80                        A:00 X:FF Y:00 P:26 SP:FF PPU:  0,  0 CYC:7234
C7AD  F0 F9     BEQ $C7A8                       A:00 X:FF Y:00 P:26 SP:FF PPU:  0,  0 CYC:7236
C7A8  AD 02 20  LDA $2002 = 00                  A:00 X:FF Y:00 P:26 SP:FF PPU:  0,  0 CYC:7239
C7AB  29 80     AND #$80                        A:00 X:FF Y:00 P:26 SP:FF PPU:  0,  0 CYC:7243
C7AD  F0 F9     BEQ $C7A8                       A:00 X:FF Y:00 P:26 SP:FF PPU:  0,  0 CYC:7245
C7A8  AD 02 20  LDA $2002 = 00                  A:00 X:FF Y:00 P:26 SP:FF PPU:  0,  0 CYC:7248
C7AB  29 80     AND #$80                        A:00 X:FF Y:00 P:26 SP:FF PPU:  0,  0 CYC:7252
C7AD  F0 F9     BEQ $C7A8                       A:00 X:FF Y:00 P:26 SP:FF PPU:  0,  0 CYC:7254
C7A8  AD 02 20  LDA $2002 = 00                  A:00 X:FF Y:00 P:26 SP:FF PPU:  0,  0 CYC:7257
C7AB  29 80     AND #$80                        A:00 X:FF Y:00 P:26 SP:FF PPU:  0,  0 CYC:7261
C7AD  F0 F9     BEQ $C7A8                       A:00 X:FF Y:00 P:26 SP:FF PPU:  0,  0 CYC:7263
C7A8  AD 02 20  LDA $2002 = 00                  A:00 X:FF Y:00 P:26 SP:FF PPU:  0,  0 CYC:7266
C7AB  29 80     AND #$80                        A:00 X:FF Y:00 P:26 SP:FF PPU:  0,  0 CYC:7270
C7AD  F0 F9     BEQ $C7A8                       A:00 X:FF Y:00 P:26 SP:FF PPU:  0,  0 CYC:7272
C7A8  AD 02 20  LDA $2002 = 00                  A:00 X:FF Y:00 P:26 SP:FF PPU:  0,  0 CYC:7275
C7AB  29 80     AND #$80                        A:00 X:FF Y:00 P:26 SP:FF PPU:  0,  0 CYC:7279
C7AD  F0 F9     BEQ $C7A8                       A:00 X:FF Y:00 P:26 SP:FF PPU:  0,  0 CYC:7281
C7A8  AD 02 20  LDA $2002 = 00                  A:00 X:FF Y:00 P:26 SP:FF PPU:  0,  0 CYC:7284
C7AB  29 80     AND #$80                        A:00 X:FF Y:00 P:26 SP:FF PPU:  0,  0 CYC:7288
C7AD  F0 F9     BEQ $C7A8                       A:00 X:FF Y:00 P:26 SP:FF PPU:  0,  0 CYC:7290
C7A8  AD 02 20  LDA $2002 = 00                  A:00 X:FF Y:00 P:26 SP:FF PPU:  0,  0 CYC:7293
C7AB  29 80     AND #$80                        A:00 X:FF Y:00 P:26 SP:FF PPU:  0,  0 CYC:7297
C7AD  F0 F9     BEQ $C7A8                       A:00 X:FF Y:00 P:26 SP:FF PPU:  0,  0 CYC:7299
C7A8  AD 02 20  LDA $2002 = 00                  A:00 X:FF Y:00 P:26 SP:FF PPU:  0,  0 CYC:7302
C7AB  29 80     AND #$80                        A:00 X:FF Y:00 P:26 SP:FF PPU:  0,  0 CYC:7306
C7AD  F0 F9     BEQ $C7A8                       A:00 X:FF Y:00 P:26 SP:FF PPU:  0,  0 CYC:7308
C7A8  AD 02 20  LDA $2002 = 00                  A:00 X:FF Y:00 P:26 SP:FF PPU:  0,  0 CYC:7311
C7AB  29 80     AND #$80                        A:00 X:FF Y:00 P:26 SP:FF PPU:  0,  0 CYC:7315
C7AD  F0 F9     BEQ $C7A8                       A:00 X:FF Y:00 P:26 SP:FF PPU:  0,  0 CYC:7317
C7A8  AD 02 20  LDA $2002 = 00                  A:00 X:FF Y:00 P:26 SP:FF PPU:  0,  0 CYC:7320
C7AB  29 80     AND #$80                        A:00 X:FF Y:00 P:26 SP:FF PPU:  0,  0 CYC:7324
C7AD  F0 F9     BEQ $C7A8                       A:00 X:FF Y:00 P:26 SP:FF PPU:  0,  0 CYC:7326
C7A8  AD 02 20  LDA $2002 = 00                  A:00 X:FF Y:00 P:26 SP:FF PPU:  0,  0 CYC:7329
C7AB  29 80     AND #$80                        A:00 X:FF Y:00 P:26 SP:FF PPU:  0,  0 CYC:7333
C7AD  F0 F9     BEQ $C7A8                       A:00 X:FF Y:00 P:26 SP:FF PPU:  0,  0 CYC:7335
C7A8  AD 02 20  LDA $2002 = 00                  A:00 X:FF Y:00 P:26 SP:FF PPU:  0,  0 CYC:7338
C7AB  29 80     AND #$80                        A:00 X:FF Y:00 P:26 SP:FF PPU:  0,  0 CYC:7342
C7AD  F0 F9     BEQ $C7A8                       A:00 X:FF Y:00 P:26 SP:FF PPU:  0,  0 CYC:7344
C7A8  AD 02 20  LDA $2002 = 00                  A:00 X:FF Y:00 P:26 SP:FF PPU:  0,  0 CYC:7347
C7AB  29 80     AND #$80                        A:00 X:FF Y:00 P:26 SP:FF PPU:  0,  0 CYC:7351
C7AD  F0 F9     BEQ $C7A8                       A:00 X:FF Y:00 P:26 SP:FF PPU:  0,  0 CYC:7353
C7A8  AD 02 20  LDA $2002 = 00                  A:00 X:FF Y:00 P:26 SP:FF PPU:  0,  0 CYC:7356
C7AB  29 80     AND #$80                        A:00 X:FF Y:00 P:26 SP:FF PPU:  0,  0 CYC:7360
C7AD  F0 F9     BEQ $C7A8                       A:00 X:FF Y:00 P:26 SP:FF PPU:  0,  0 CYC:7362
C7A8  AD 02 20  LDA $2002 = 00                  A:00 X:FF Y:00 P:26 SP:FF PPU:  0,  0 CYC:7365
C7AB  29 80     AND #$80                        A:00 X:FF Y:00 P:26 SP:FF PPU:  0,  0 CYC:7369
C7AD  F0 F9     BEQ $C7A8                       A:00 X:FF Y:00 P:26 SP:FF PPU:  0,  0 CYC:7371
C7A8  AD 02 20  LDA $2002 = 00                  A:00 X:FF Y:00 P:26 SP:FF PPU:  0,  0 CYC:7374
C7AB  29 80     AND #$80                        A:00 X:FF Y:00 P:26 SP:FF PPU:  0,  0 CYC:7378
C7AD  F0 F9     BEQ $C7A8                       A:00 X:FF Y:00 P:26 SP:FF PPU:  0,  0 CYC:7380
C7A8  AD 02 20  LDA $2002 = 00                  A:00 X:FF Y:00 P:26 SP:FF PPU:  0,  0 CYC:7383
C7AB  29 80     AND #$80                        A:00 X:FF Y:00 P:26 SP:FF PPU:  0,  0 CYC:7387
C7AD  F0 F9     BEQ $C7A8                       A:00 X:FF Y:00 P:26 SP:FF PPU:  0,  0 CYC:7389
C7A8  AD 02 20  LDA $2002 = 00                  A:00 X:FF Y:00 P:26 SP:FF PPU:  0,  0 CYC:7392
C7AB  29 80     AND #$80                        A:00 X:FF Y:00 P:26 SP:FF PPU:  0,  0 CYC:7396
C7AD  F0 F9     BEQ $C7A8                       A:00 X:FF Y:00 P:26 SP:FF PPU:  0,  0 CYC:7398
C7A8  AD 02 20  LDA $2002 = 00                  A:00 X:FF Y:00 P:26 SP:FF PPU:  0,  0 CYC:7401
C7AB  29 80     AND #$80                        A:00 X:FF Y:00 P:26 SP:FF PPU:  0,  0 CYC:7405
C7AD  F0 F9     BEQ $C7A8                       A:00 X:FF Y:00 P:26 SP:FF PPU:  0,  0 CYC:7407
C7A8  AD 02 20  LDA $2002 = 00                  A:00 X:FF Y:00 P:26 SP:FF PPU:  0,  0 CYC:7410
C7AB  29 80     AND #$80                        A:00 X:FF Y:00 P:26 SP:FF PPU:  0,  0 CYC:7414
C7AD  F0 F9     BEQ $C7A8                       A:00 X:FF Y:00 P:26 SP:FF PPU:  0,  0 CYC:7416
C7A8  AD 02 20  LDA $2002 = 00                  A:00 X:FF Y:00 P:26 SP:FF PPU:  0,  0 CYC:7419
C7AB  29 80     AND #$80                        A:00 X:FF Y:00 P:26 SP:FF PPU:  0,  0 CYC:7423
C7AD  F0 F9     BEQ $C7A8                       A:00 X:FF Y:00 P:26 SP:FF PPU:  0,  0 CYC:7425
C7A8  AD 02 20  LDA $2002 = 00                  A:00 X:FF Y:00 P:26 SP:FF PPU:  0,  0 CYC:7428
C7AB  29 80     AND #$80                        A:00 X:FF Y:00 P:26 SP:FF PPU:  0,  0 CYC:7432
C7AD  F0 F9     BEQ $C7A8                       A:00 X:FF Y:00 P:26 SP:FF PPU:  0,  0 CYC:7434
C7A8  AD 02 20  LDA $2002 = 00                  A:00 X:FF Y:00 P:26 SP:FF PPU:  0,  0 CYC:7437
C7AB  29 80     AND #$80                        A:00 X:FF Y:00 P:26 SP:FF PPU:  0,  0 CYC:7441
C7AD  F0 F9     BEQ $C7A8                       A:00 X:FF Y:00 P:26 SP:FF PPU:  0,  0 CYC:7443
C7A8  AD 02 20  LDA $2002 = 00                  A:00 X:FF Y:00 P:26 SP:FF PPU:  0,  0 CYC:7446
C7AB  29 80     AND #$80                        A:00 X:FF Y:00 P:26 SP:FF PPU:  0,  0 CYC:7450
C7AD  F0 F9     BEQ $C7A8                       A:00 X:FF Y:00 P:26 SP:FF PPU:  0,  0 CYC:7452
C7A8  AD 02 20  LDA $2002 = 00                  A:00 X:FF Y:00 P:26 SP:FF PPU:  0,  0 CYC:7455
C7AB  29 80     AND #$80                        A:00 X:FF Y:00 P:26 SP:FF PPU:  0,  0 CYC:7459
C7AD  F0 F9     BEQ $C7A8                       A:00 X:FF Y:00 P:26 SP:FF PPU:  0,  0 CYC:7461
C7A8  AD 02 20  LDA $2002 = 00                  A:00 X:FF Y:00 P:26 SP:FF PPU:  0,  0 CYC:7464
C7AB  29 80     AND #$80                        A:00 X:FF Y:00 P:26 SP:FF PPU:  0,  0 CYC:7468
C7AD  F0 F9     BEQ $C7A8                       A:00 X:FF Y:00 P:26 SP:FF PPU:  0,  0 CYC:7470
C7A8  AD 02 20  LDA $2002 = 00                  A:00 X:FF Y:00 P:26 SP:FF PPU:  0,  0 CYC:7473
C7AB  29 80     AND #$80                        A:00 X:FF Y:00 P:26 SP:FF PPU:  0,  0 CYC:7477
C7AD  F0 F9     BEQ $C7A8                       A:00 X:FF Y:00 P:26 SP:FF PPU:  0,  0 CYC:7479
C7A8  AD 02 20  LDA $2002 = 00                  A:00 X:FF Y:00 P:26 SP:FF PPU:  0,  0 CYC:7482
C7AB  29 80     AND #$80                        A:00 X:FF Y:00 P:26 SP:FF PPU:  0,  0 CYC:7486
C7AD  F0 F9     BEQ $C7A8                       A:00 X:FF Y:00 P:26 SP:FF PPU:  0,  0 CYC:7488
C7A8  AD 02 20  LDA $2002 = 00                  A:00 X:FF Y:00 P:26 SP:FF PPU:  0,  0 CYC:7491
C7AB  29 80     AND #$80                        A:00 X:FF Y:00 P:26 SP:FF PPU:  0,  0 CYC:7495
C7AD  F0 F9     BEQ $C7A8                       A:00 X:FF Y:00 P:26 SP:FF PPU:  0,  0 CYC:7497
C7A8  AD 02 20  LDA $2002 = 00                  A:00 X:FF Y:00 P:26 SP:FF PPU:  0,  0 CYC:7500
C7AB  29 80     AND #$80                        A:00 X:FF Y:00 P:26 SP:FF PPU:  0,  0 CYC:7504
C7AD  F0 F9     BEQ $C7A8                       A:00 X:FF Y:00 P:26 SP:FF PPU:  0,  0 CYC:7506
C7A8  AD 02 20  LDA $2002 = 00                  A:00 X:FF Y:00 P:26 SP:FF PPU:  0,  0 CYC:7509
C7AB  29 80     AND #$80                        A:00 X:FF Y:00 P:26 SP:FF PPU:  0,  0 CYC:7513
C7AD  F0 F9     BEQ $C7A8                       A:00 X:FF Y:00 P:26 SP:FF PPU:  0,  0 CYC:7515
C7A8  AD 02 20  LDA $2002 = 00                  A:00 X:FF Y:00 P:26 SP:FF PPU:  0,  0 CYC:7518
C7AB  29 80     AND #$80                        A:00 X:FF Y:00 P:26 SP:FF PPU:  0,  0 CYC:7522
C7AD  F0 F9     BEQ $C7A8                       A:00 X:FF Y:00 P:26 SP:FF PPU:  0,  0 CYC:7524
C7A8  AD 02 20  LDA $2002 = 00                  A:00 X:FF Y:00 P:26 SP:FF PPU:  0,  0 CYC:7527
C7AB  29 80     AND #$80                        A:00 X:FF Y:00 P:26 SP:FF PPU:  0,  0 CYC:7531
C7AD  F0 F9     BEQ $C7A8                       A:00 X:FF Y:00 P:26 SP:FF PPU:  0,  0 CYC:7533
C7A8  AD 02 20  LDA $2002 = 00                  A:00 X:FF Y:00 P:26 SP:FF PPU:  0,  0 CYC:7536
C7AB  29 80     AND #$80                        A:00 X:FF Y:00 P:26 SP:FF PPU:  0,  0 CYC:7540
C7AD  F0 F9     BEQ $C7A8                       A:00 X:FF Y:00 P:26 SP:FF PPU:  0,  0 CYC:7542
C7A8  AD 02 20  LDA $2002 = 00                  A:00 X:FF Y:00 P:26 SP:FF PPU:  0,  0 CYC:7545
C7AB  29 80     AND #$80                        A:00 X:FF Y:00 P:26 SP:FF PPU:  0,  0 CYC:7549
C7AD  F0 F9     BEQ $C7A8                       A:00 X:FF Y:00 P:26 SP:FF PPU:  0,  0 CYC:7551
C7A8  AD 02 20  LDA $2002 = 00                  A:00 X:FF Y:00 P:26 SP:FF PPU:  0,  0 CYC:7554
C7AB  29 80     AND #$80                        A:00 X:FF Y:00 P:26 SP:FF PPU:  0,  0 CYC:7558
C7AD  F0 F9     BEQ $C7A8                       A:00 X:FF Y:00 P:26 SP:FF PPU:  0,  0 CYC:7560
C7A8  AD 02 20  LDA $2002 = 00                  A:00 X:FF Y:00 P:26 SP:FF PPU:  0,  0 CYC:7563
C7AB  29 80     AND #$80                        A:00 X:FF Y:00 P:26 SP:FF PPU:  0,  0 CYC:7567
C7AD  F0 F9     BEQ $C7A8                       A:00 X:FF Y:00 P:26 SP:FF PPU:  0,  0 CYC:7569
C7A8  AD 02 20  LDA $2002 = 00                  A:00 X:FF Y:00 P:26 SP:FF PPU:  0,  0 CYC:7572
C7AB  29 80     AND #$80                        A:00 X:FF Y:00 P:26 SP:FF PPU:  0,  0 CYC:7576
C7AD  F0 F9     BEQ $C7A8                       A:00 X:FF Y:00 P:26 SP:FF PPU:  0,  0 CYC:7578
C7A8  AD 02 20  LDA $2002 = 00                  A:00 X:FF Y:00 P:26 SP:FF PPU:  0,  0 CYC:7581
C7AB  29 80     AND #$80                        A:00 X:FF Y:00 P:26 SP:FF PPU:  0,  0 CYC:7585
C7AD  F0 F9     BEQ $C7A8                       A:00 X:FF Y:00 P:26 SP:FF PPU:  0,  0 CYC:7587
C7A8  AD 02 20  LDA $2002 = 00                  A:00 X:FF Y:00 P:26 SP:FF PPU:  0,  0 CYC:7590
C7AB  29 80     AND #$80                        A:00 X:FF Y:00 P:26 SP:FF PPU:  0,  0 CYC:7594
C7AD  F0 F9     BEQ $C7A8                       A:00 X:FF Y:00 P:26 SP:FF PPU:  0,  0 CYC:7596
C7A8  AD 02 20  LDA $2002 = 00                  A:00 X:FF Y:00 P:26 SP:FF PPU:  0,  0 CYC:7599
C7AB  29 80     AND #$80                        A:00 X:FF Y:00 P:26 SP:FF PPU:  0,  0 CYC:7603
C7AD  F0 F9     BEQ $C7A8                       A:00 X:FF Y:00 P:26 SP:FF PPU:  0,  0 CYC:7605
C7A8  AD 02 20  LDA $2002 = 00                  A:00 X:FF Y:00 P:26 SP:FF PPU:  0,  0 CYC:7608
C7AB  29 80     AND #$80                        A:00 X:FF Y:00 P:26 SP:FF PPU:  0,  0 CYC:7612
C7AD  F0 F9     BEQ $C7A8                       A:00 X:FF Y:00 P:26 SP:FF PPU:  0,  0 CYC:7614
C7A8  AD 02 20  LDA $2002 = 00                  A:00 X:FF Y:00 P:26 SP:FF PPU:  0,  0 CYC:7617
C7AB  29 80     AND #$80                        A:00 X:FF Y:00 P:26 SP:FF PPU:  0,  0 CYC:7621
C7AD  F0 F9     BEQ $C7A8                       A:00 X:FF Y:00 P:26 SP:FF PPU:  0,  0 CYC:7623
C7A8  AD 02 20  LDA $2002 = 00                  A:00 X:FF Y:00 P:26 SP:FF PPU:  0,  0 CYC:7626
C7AB  29 80     AND #$80                        A:00 X:FF Y:00 P:26 SP:FF PPU:  0,  0 CYC:7630
C7AD  F0 F9     BEQ $C7A8                       A:00 X:FF Y:00 P:26 SP:FF PPU:  0,  0 CYC:7632
C7A8  AD 02 20  LDA $2002 = 00                  A:00 X:FF Y:00 P:26 SP:FF PPU:  0,  0 CYC:7635
C7AB  29 80     AND #$80                        A:00 X:FF Y:00 P:26 SP:FF PPU:  0,  0 CYC:7639
C7AD  F0 F9     BEQ $C7A8                       A:00 X:FF Y:00 P:26 SP:FF PPU:  0,  0 CYC:7641
C7A8  AD 02 20  LDA $2002 = 00                  A:00 X:FF Y:00 P:26 SP:FF PPU:  0,  0 CYC:7644
C7AB  29 80     AND #$80                        A:00 X:FF Y:00 P:26 SP:FF PPU:  0,  0 CYC:7648
C7AD  F0 F9     BEQ $C7A8                       A:00 X:FF Y:00 P:26 SP:FF PPU:  0,  0 CYC:7650
C7A8  AD 02 20  LDA $2002 = 00                  A:00 X:FF Y:00 P:26 SP:FF PPU:  0,  0 CYC:7653
C7AB  29 80     AND #$80                        A:00 X:FF Y:00 P:26 SP:FF PPU:  0,  0 CYC:7657
C7AD  F0 F9     BEQ $C7A8                       A:00 X:FF Y:00 P:26 SP:FF PPU:  0,  0 CYC:7659
C7A8  AD 02 20  LDA $2002 = 00                  A:00 X:FF Y:00 P:26 SP:FF PPU:  0,  0 CYC:7662
C7AB  29 80     AND #$80                        A:00 X:FF Y:00 P:26 SP:FF PPU:  0,  0 CYC:7666
C7AD  F0 F9     BEQ $C7A8                       A:00 X:FF Y:00 P:26 SP:FF PPU:  0,  0 CYC:7668
C7A8  AD 02 20  LDA $2002 = 00                  A:00 X:FF Y:00 P:26 SP:FF PPU:  0,  0 CYC:7671
C7AB  29 80     AND #$80                        A:00 X:FF Y:00 P:26 SP:FF PPU:  0,  0 CYC:7675
C7AD  F0 F9     BEQ $C7A8                       A:00 X:FF Y:00 P:26 SP:FF PPU:  0,  0 CYC:7677
C7A8  AD 02 20  LDA $2002 = 00                  A:00 X:FF Y:00 P:26 SP:FF PPU:  0,  0 CYC:7680
C7AB  29 80     AND #$80                        A:00 X:FF Y:00 P:26 SP:FF PPU:  0,  0 CYC:7684
C7AD  F0 F9     BEQ $C7A8                       A:00 X:FF Y:00 P:26 SP:FF PPU:  0,  0 CYC:7686
C7A8  AD 02 20  LDA $2002 = 00                  A:00 X:FF Y:00 P:26 SP:FF PPU:  0,  0 CYC:7689
C7AB  29 80     AND #$80                        A:00 X:FF Y:00 P:26 SP:FF PPU:  0,  0 CYC:7693
C7AD  F0 F9     BEQ $C7A8                       A:00 X:FF Y:00 P:26 SP:FF PPU:  0,  0 CYC:7695
C7A8  AD 02 20  LDA $2002 = 00                  A:00 X:FF Y:00 P:26 SP:FF PPU:  0,  0 CYC:7698
C7AB  29 80     AND #$80                        A:00 X:FF Y:00 P:26 SP:FF PPU:  0,  0 CYC:7702
C7AD  F0 F9     BEQ $C7A8                       A:00 X:FF Y:00 P:26 SP:FF PPU:  0,  0 CYC:7704
C7A8  AD 02 20  LDA $2002 = 00                  A:00 X:FF Y:00 P:26 SP:FF PPU:  0,  0 CYC:7707
C7AB  29 80     AND #$80                        A:00 X:FF Y:00 P:26 SP:FF PPU:  0,  0 CYC:7711
C7AD  F0 F9     BEQ $C7A8                       A:00 X:FF Y:00 P:26 SP:FF PPU:  0,  0 CYC:7713
C7A8  AD 02 20  LDA $2002 = 00                  A:00 X:FF Y:00 P:26 SP:FF PPU:  0,  0 CYC:7716
C7AB  29 80     AND #$80                        A:00 X:FF Y:00 P:26 SP:FF PPU:  0,  0 CYC:7720
C7AD  F0 F9     BEQ $C7A8                       A:00 X:FF Y:00 P:26 SP:FF PPU:  0,  0 CYC:7722
C7A8  AD 02 20  LDA $2002 = 00                  A:00 X:FF Y:00 P:26 SP:FF PPU:  0,  0 CYC:7725
C7AB  29 80     AND #$80                        A:00 X:FF Y:00 P:26 SP:FF PPU:  0,  0 CYC:7729
C7AD  F0 F9     BEQ $C7A8                       A:00 X:FF Y:00 P:26 SP:FF PPU:  0,  0 CYC:7731
C7A8  AD 02 20  LDA $2002 = 00                  A:00 X:FF Y:00 P:26 SP:FF PPU:  0,  0 CYC:7734
C7AB  29 80     AND #$80                        A:00 X:FF Y:00 P:26 SP:FF PPU:  0,  0 CYC:7738
C7AD  F0 F9     BEQ $C7A8                       A:00 X:FF Y:00 P:26 SP:FF PPU:  0,  0 CYC:7740
C7A8  AD 02 20  LDA $2002 = 00                  A:00 X:FF Y:00 P:26 SP:FF PPU:  0,  0 CYC:7743
C7AB  29 80     AND #$80                        A:00 X:FF Y:00 P:26 SP:FF PPU:  0,  0 CYC:7747
C7AD  F0 F9     BEQ $C7A8                       A:00 X:FF Y:00 P:26 SP:FF PPU:  0,  0 CYC:7749
C7A8  AD 02 20  LDA $2002 = 00                  A:00 X:FF Y:00 P:26 SP:FF PPU:  0,  0 CYC:7752
C7AB  29 80     AND #$80                        A:00 X:FF Y:00 P:26 SP:FF PPU:  0,  0 CYC:7756
C7AD  F0 F9     BEQ $C7A8                       A:00 X:FF Y:00 P:26 SP:FF PPU:  0,  0 CYC:7758
C7A8  AD 02 20  LDA $2002 = 00                  A:00 X:FF Y:00 P:26 SP:FF PPU:  0,  0 CYC:7761
C7AB  29 80     AND #$80                        A:00 X:FF Y:00 P:26 SP:FF PPU:  0,  0 CYC:7765
C7AD  F0 F9     BEQ $C7A8                       A:00 X:FF Y:00 P:26 SP:FF PPU:  0,  0 CYC:7767
C7A8  AD 02 20  LDA $2002 = 00                  A:00 X:FF Y:00 P:26 SP:FF PPU:  0,  0 CYC:7770
C7AB  29 80     AND #$80                        A:00 X:FF Y:00 P:26 SP:FF PPU:  0,  0 CYC:7774
C7AD  F0 F9     BEQ $C7A8                       A:00 X:FF Y:00 P:26 SP:FF PPU:  0,  0 CYC:7776
C7A8  AD 02 20  LDA $2002 = 00                  A:00 X:FF Y:00 P:26 SP:FF PPU:  0,  0 CYC:7779
C7AB  29 80     AND #$80                        A:00 X:FF Y:00 P:26 SP:FF PPU:  0,  0 CYC:7783
C7AD  F0 F9     BEQ $C7A8                       A:00 X:FF Y:00 P:26 SP:FF PPU:  0,  0 CYC:7785
C7A8  AD 02 20  LDA $2002 = 00                  A:00 X:FF Y:00 P:26 SP:FF PPU:  0,  0 CYC:7788
C7AB  29 80     AND #$80                        A:00 X:FF Y:00 P:26 SP:FF PPU:  0,  0 CYC:7792
C7AD  F0 F9     BEQ $C7A8                       A:00 X:FF Y:00 P:26 SP:FF PPU:  0,  0 CYC:7794
C7A8  AD 02 20  LDA $2002 = 00                  A:00 X:FF Y:00 P:26 SP:FF PPU:  0,  0 CYC:7797
C7AB  29 80     AND #$80                        A:00 X:FF Y:00 P:26 SP:FF PPU:  0,  0 CYC:7801
C7AD  F0 F9     BEQ $C7A8                       A:00 X:FF Y:00 P:26 SP:FF PPU:  0,  0 CYC:7803
C7A8  AD 02 20  LDA $2002 = 00                  A:00 X:FF Y:00 P:26 SP:FF PPU:  0,  0 CYC:7806
C7AB  29 80     AND #$80                        A:00 X:FF Y:00 P:26 SP:FF PPU:  0,  0 CYC:7810
C7AD  F0 F9     BEQ $C7A8                       A:00 X:FF Y:00 P:26 SP:FF PPU:  0,  0 CYC:7812
C7A8  AD 02 20  LDA $2002 = 00                  A:00 X:FF Y:00 P:26 SP:FF PPU:  0,  0 CYC:7815
C7AB  29 80     AND #$80                        A:00 X:FF Y:00 P:26 SP:FF PPU:  0,  0 CYC:7819
C7AD  F0 F9     BEQ $C7A8                       A:00 X:FF Y:00 P:26 SP:FF PPU:  0,  0 CYC:7821
C7A8  AD 02 20  LDA $2002 = 00                  A:00 X:FF Y:00 P:26 SP:FF PPU:  0,  0 CYC:7824
C7AB  29 80     AND #$80                        A:00 X:FF Y:00 P:26 SP:FF PPU:  0,  0 CYC:7828
C7AD  F0 F9     BEQ $C7A8                       A:00 X:FF Y:00 P:26 SP:FF PPU:  0,  0 CYC:7830
C7A8  AD 02 20  LDA $2002 = 00                  A:00 X:FF Y:00 P:26 SP:FF PPU:  0,  0 CYC:7833
C7AB  29 80     AND #$80                        A:00 X:FF Y:00 P:26 SP:FF PPU:  0,  0 CYC:7837
C7AD  F0 F9     BEQ $C7A8                       A:00 X:FF Y:00 P:26 SP:FF PPU:  0,  0 CYC:7839
C7A8  AD 02 20  LDA $2002 = 00                  A:00 X:FF Y:00 P:26 SP:FF PPU:  0,  0 CYC:7842
C7AB  29 80     AND #$80                        A:00 X:FF Y:00 P:26 SP:FF PPU:  0,  0 CYC:7846
C7AD  F0 F9     BEQ $C7A8                       A:00 X:FF Y:00 P:26 SP:FF PPU:  0,  0 CYC:7848
C7A8  AD 02 20  LDA $2002 = 00                  A:00 X:FF Y:00 P:26 SP:FF PPU:  0,  0 CYC:7851
C7AB  29 80     AND #$80                        A:00 X:FF Y:00 P:26 SP:FF PPU:  0,  0 CYC:7855
C7AD  F0 F9     BEQ $C7A8                       A:00 X:FF Y:00 P:26 SP:FF PPU:  0,  0 CYC:7857
C7A8  AD 02 20  LDA $2002 = 00                  A:00 X:FF Y:00 P:26 SP:FF PPU:  0,  0 CYC:7860
C7AB  29 80     AND #$80                        A:00 X:FF Y:00 P:26 SP:FF PPU:  0,  0 CYC:7864
C7AD  F0 F9     BEQ $C7A8                       A:00 X:FF Y:00 P:26 SP:FF PPU:  0,  0 CYC:7866
C7A8  AD 02 20  LDA $2002 = 00                  A:00 X:FF Y:00 P:26 SP:FF PPU:  0,  0 CYC:7869
C7AB  29 80     AND #$80                        A:00 X:FF Y:00 P:26 SP:FF PPU:  0,  0 CYC:7873
C7AD  F0 F9     BEQ $C7A8                       A:00 X:FF Y:00 P:26 SP:FF PPU:  0,  0 CYC:7875
C7A8  AD 02 20  LDA $2002 = 00                  A:00 X:FF Y:00 P:26 SP:FF PPU:  0,  0 CYC:7878
C7AB  29 80     AND #$80                        A:00 X:FF Y:00 P:26 SP:FF PPU:  0,  0 CYC:7882
C7AD  F0 F9     BEQ $C7A8                       A:00 X:FF Y:00 P:26 SP:FF PPU:  0,  0 CYC:7884
C7A8  AD 02 20  LDA $2002 = 00                  A:00 X:FF Y:00 P:26 SP:FF PPU:  0,  0 CYC:7887
C7AB  29 80     AND #$80                        A:00 X:FF Y:00 P:26 SP:FF PPU:  0,  0 CYC:7891
C7AD  F0 F9     BEQ $C7A8                       A:00 X:FF Y:00 P:26 SP:FF PPU:  0,  0 CYC:7893
C7A8  AD 02 20  LDA $2002 = 00                  A:00 X:FF Y:00 P:26 SP:FF PPU:  0,  0 CYC:7896
C7AB  29 80     AND #$80                        A:00 X:FF Y:00 P:26 SP:FF PPU:  0,  0 CYC:7900
C7AD  F0 F9     BEQ $C7A8                       A:00 X:FF Y:00 P:26 SP:FF PPU:  0,  0 CYC:7902
C7A8  AD 02 20  LDA $2002 = 00                  A:00 X:FF Y:00 P:26 SP:FF PPU:  0,  0 CYC:7905
C7AB  29 80     AND #$80                        A:00 X:FF Y:00 P:26 SP:FF PPU:  0,  0 CYC:7909
C7AD  F0 F9     BEQ $C7A8                       A:00 X:FF Y:00 P:26 SP:FF PPU:  0,  0 CYC:7911
C7A8  AD 02 20  LDA $2002 = 00                  A:00 X:FF Y:00 P:26 SP:FF PPU:  0,  0 CYC:7914
C7AB  29 80     AND #$80                        A:00 X:FF Y:00 P:26 SP:FF PPU:  0,  0 CYC:7918
C7AD  F0 F9     BEQ $C7A8                       A:00 X:FF Y:00 P:26 SP:FF PPU:  0,  0 CYC:7920
C7A8  AD 02 20  LDA $2002 = 00                  A:00 X:FF Y:00 P:26 SP:FF PPU:  0,  0 CYC:7923
C7AB  29 80     AND #$80                        A:00 X:FF Y:00 P:26 SP:FF PPU:  0,  0 CYC:7927
C7AD  F0 F9     BEQ $C7A8                       A:00 X:FF Y:00 P:26 SP:FF PPU:  0,  0 CYC:7929
C7A8  AD 02 20  LDA $2002 = 00                  A:00 X:FF Y:00 P:26 SP:FF PPU:  0,  0 CYC:7932
C7AB  29 80     AND #$80                        A:00 X:FF Y:00 P:26 SP:FF PPU:  0,  0 CYC:7936
C7AD  F0 F9     BEQ $C7A8                       A:00 X:FF Y:00 P:26 SP:FF PPU:  0,  0 CYC:7938
C7A8  AD 02 20  LDA $2002 = 00                  A:00 X:FF Y:00 P:26 SP:FF PPU:  0,  0 CYC:7941
C7AB  29 80     AND #$80                        A:00 X:FF Y:00 P:26 SP:FF PPU:  0,  0 CYC:7945
C7AD  F0 F9     BEQ $C7A8                       A:00 X:FF Y:00 P:26 SP:FF PPU:  0,  0 CYC:7947
C7A8  AD 02 20  LDA $2002 = 00                  A:00 X:FF Y:00 P:26 SP:FF PPU:  0,  0 CYC:7950
C7AB  29 80     AND #$80                        A:00 X:FF Y:00 P:26 SP:FF PPU:  0,  0 CYC:7954
C7AD  F0 F9     BEQ $C7A8                       A:00 X:FF Y:00 P:26 SP:FF PPU:  0,  0 CYC:7956
C7A8  AD 02 20  LDA $2002 = 00                  A:00 X:FF Y:00 P:26 SP:FF PPU:  0,  0 CYC:7959
C7AB  29 80     AND #$80                        A:00 X:FF Y:00 P:26 SP:FF PPU:  0,  0 CYC:7963
C7AD  F0 F9     BEQ $C7A8                       A:00 X:FF Y:00 P:26 SP:FF PPU:  0,  0 CYC:7965
C7A8  AD 02 20  LDA $2002 = 00                  A:00 X:FF Y:00 P:26 SP:FF PPU:  0,  0 CYC:7968
C7AB  29 80     AND #$80                        A:00 X:FF Y:00 P:26 SP:FF PPU:  0,  0 CYC:7972
C7AD  F0 F9     BEQ $C7A8                       A:00 X:FF Y:00 P:26 SP:FF PPU:  0,  0 CYC:7974
C7A8  AD 02 20  LDA $2002 = 00                  A:00 X:FF Y:00 P:26 SP:FF PPU:  0,  0 CYC:7977
C7AB  29 80     AND #$80                        A:00 X:FF Y:00 P:26 SP:FF PPU:  0,  0 CYC:7981
C7AD  F0 F9     BEQ $C7A8                       A:00 X:FF Y:00 P:26 SP:FF PPU:  0,  0 CYC:7983
C7A8  AD 02 20  LDA $2002 = 00                  A:00 X:FF Y:00 P:26 SP:FF PPU:  0,  0 CYC:7986
C7AB  29 80     AND #$80                        A:00 X:FF Y:00 P:26 SP:FF PPU:  0,  0 CYC:7990
C7AD  F0 F9     BEQ $C7A8                       A:00 X:FF Y:00 P:26 SP:FF PPU:  0,  0 CYC:7992
C7A8  AD 02 20  LDA $2002 = 00                  A:00 X:FF Y:00 P:26 SP:FF PPU:  0,  0 CYC:7995
C7AB  29 80     AND #$80                        A:00 X:FF Y:00 P:26 SP:FF PPU:  0,  0 CYC:7999
C7AD  F0 F9     BEQ $C7A8                       A:00 X:FF Y:00 P:26 SP:FF PPU:  0,  0 CYC:8001
C7A8  AD 02 20  LDA $2002 = 00                  A:00 X:FF Y:00 P:26 SP:FF PPU:  0,  0 CYC:8004
C7AB  29 80     AND #$80                        A:00 X:FF Y:00 P:26 SP:FF PPU:  0,  0 CYC:8008
C7AD  F0 F9     BEQ $C7A8                       A:00 X:FF Y:00 P:26 SP:FF PPU:  0,  0 CYC:8010
C7A8  AD 02 20  LDA $2002 = 00                  A:00 X:FF Y:00 P:26 SP:FF PPU:  0,  0 CYC:8013
C7AB  29 80     AND #$80                        A:00 X:FF Y:00 P:26 SP:FF PPU:  0,  0 CYC:8017
C7AD  F0 F9     BEQ $C7A8                       A:00 X:FF Y:00 P:26 SP:FF PPU:  0,  0 CYC:8019
C7A8  AD 02 20  LDA $2002 = 00                  A:00 X:FF Y:00 P:26 SP:FF PPU:  0,  0 CYC:8022
C7AB  29 80     AND #$80                        A:00 X:FF Y:00 P:26 SP:FF PPU:  0,  0 CYC:8026
C7AD  F0 F9     BEQ $C7A8                       A:00 X:FF Y:00 P:26 SP:FF PPU:  0,  0 CYC:8028
C7A8  AD 02 20  LDA $2002 = 00                  A:00 X:FF Y:00 P:26 SP:FF PPU:  0,  0 CYC:8031
C7AB  29 80     AND #$80                        A:00 X:FF Y:00 P:26 SP:FF PPU:  0,  0 CYC:8035
C7AD  F0 F9     BEQ $C7A8                       A:00 X:FF Y:00 P:26 SP:FF PPU:  0,  0 CYC:8037
C7A8  AD 02 20  LDA $2002 = 00                  A:00 X:FF Y:00 P:26 SP:FF PPU:  0,  0 CYC:8040
C7AB  29 80     AND #$80                        A:00 X:FF Y:00 P:26 SP:FF PPU:  0,  0 CYC:8044
C7AD  F0 F9     BEQ $C7A8                       A:00 X:FF Y:00 P:26 SP:FF PPU:  0,  0 CYC:8046
C7A8  AD 02 20  LDA $2002 = 00                  A:00 X:FF Y:00 P:26 SP:FF PPU:  0,  0 CYC:8049
C7AB  29 80     AND #$80                        A:00 X:FF Y:00 P:26 SP:FF PPU:  0,  0 CYC:8053
C7AD  F0 F9     BEQ $C7A8                       A:00 X:FF Y:00 P:26 SP:FF PPU:  0,  0 CYC:8055
C7A8  AD 02 20  LDA $2002 = 00                  A:00 X:FF Y:00 P:26 SP:FF PPU:  0,  0 CYC:8058
C7AB  29 80     AND #$80                        A:00 X:FF Y:00 P:26 SP:FF PPU:  0,  0 CYC:8062
C7AD  F0 F9     BEQ $C7A8                       A:00 X:FF Y:00 P:26 SP:FF PPU:  0,  0 CYC:8064
C7A8  AD 02 20  LDA $2002 = 00                  A:00 X:FF Y:00 P:26 SP:FF PPU:  0,  0 CYC:8067
C7AB  29 80     AND #$80                        A:00 X:FF Y:00 P:26 SP:FF PPU:  0,  0 CYC:8071
C7AD  F0 F9     BEQ $C7A8                       A:00 X:FF Y:00 P:26 SP:FF PPU:  0,  0 CYC:8073
C7A8  AD 02 20  LDA $2002 = 00                  A:00 X:FF Y:00 P:26 SP:FF PPU:  0,  0 CYC:8076
C7AB  29 80     AND #$80                        A:00 X:FF Y:00 P:26 SP:FF PPU:  0,  0 CYC:8080
C7AD  F0 F9     BEQ $C7A8                       A:00 X:FF Y:00 P:26 SP:FF PPU:  0,  0 CYC:8082
C7A8  AD 02 20  LDA $2002 = 00                  A:00 X:FF Y:00 P:26 SP:FF PPU:  0,  0 CYC:8085
C7AB  29 80     AND #$80                        A:00 X:FF Y:00 P:26 SP:FF PPU:  0,  0 CYC:8089
C7AD  F0 F9     BEQ $C7A8                       A:00 X:FF Y:00 P:26 SP:FF PPU:  0,  0 CYC:8091
C7A8  AD 02 20  LDA $2002 = 00                  A:00 X:FF Y:00 P:26 SP:FF PPU:  0,  0 CYC:8094
C7AB  29 80     AND #$80                        A:00 X:FF Y:00 P:26 SP:FF PPU:  0,  0 CYC:8098
C7AD  F0 F9     BEQ $C7A8                       A:00 X:FF Y:00 P:26 SP:FF PPU:  0,  0 CYC:8100
C7A8  AD 02 20  LDA $2002 = 00                  A:00 X:FF Y:00 P:26 SP:FF PPU:  0,  0 CYC:8103
C7AB  29 80     AND #$80                        A:00 X:FF Y:00 P:26 SP:FF PPU:  0,  0 CYC:8107
C7AD  F0 F9     BEQ $C7A8                       A:00 X:FF Y:00 P:26 SP:FF PPU:  0,  0 CYC:8109
C7A8  AD 02 20  LDA $2002 = 00                  A:00 X:FF Y:00 P:26 SP:FF PPU:  0,  0 CYC:8112
C7AB  29 80     AND #$80                        A:00 X:FF Y:00 P:26 SP:FF PPU:  0,  0 CYC:8116
C7AD  F0 F9     BEQ $C7A8                       A:00 X:FF Y:00 P:26 SP:FF PPU:  0,  0 CYC:8118
C7A8  AD 02 20  LDA $2002 = 00                  A:00 X:FF Y:00 P:26 SP:FF PPU:  0,  0 CYC:8121
C7AB  29 80     AND #$80                        A:00 X:FF Y:00 P:26 SP:FF PPU:  0,  0 CYC:8125
C7AD  F0 F9     BEQ $C7A8                       A:00 X:FF Y:00 P:26 SP:FF PPU:  0,  0 CYC:8127
C7A8  AD 02 20  LDA $2002 = 00                  A:00 X:FF Y:00 P:26 SP:FF PPU:  0,  0 CYC:8130
C7AB  29 80     AND #$80                        A:00 X:FF Y:00 P:26 SP:FF PPU:  0,  0 CYC:8134
C7AD  F0 F9     BEQ $C7A8                       A:00 X:FF Y:00 P:26 SP:FF PPU:  0,  0 CYC:8136
C7A8  AD 02 20  LDA $2002 = 00                  A:00 X:FF Y:00 P:26 SP:FF PPU:  0,  0 CYC:8139
C7AB  29 80     AND #$80                        A:00 X:FF Y:00 P:26 SP:FF PPU:  0,  0 CYC:8143
C7AD  F0 F9     BEQ $C7A8                       A:00 X:FF Y:00 P:26 SP:FF PPU:  0,  0 CYC:8145
C7A8  AD 02 20  LDA $2002 = 00                  A:00 X:FF Y:00 P:26 SP:FF PPU:  0,  0 CYC:8148
C7AB  29 80     AND #$80                        A:00 X:FF Y:00 P:26 SP:FF PPU:  0,  0 CYC:8152
C7AD  F0 F9     BEQ $C7A8                       A:00 X:FF Y:00 P:26 SP:FF PPU:  0,  0 CYC:8154
C7A8  AD 02 20  LDA $2002 = 00                  A:00 X:FF Y:00 P:26 SP:FF PPU:  0,  0 CYC:8157
C7AB  29 80     AND #$80                        A:00 X:FF Y:00 P:26 SP:FF PPU:  0,  0 CYC:8161
C7AD  F0 F9     BEQ $C7A8                       A:00 X:FF Y:00 P:26 SP:FF PPU:  0,  0 CYC:8163
C7A8  AD 02 20  LDA $2002 = 00                  A:00 X:FF Y:00 P:26 SP:FF PPU:  0,  0 CYC:8166
C7AB  29 80     AND #$80                        A:00 X:FF Y:00 P:26 SP:FF PPU:  0,  0 CYC:8170
C7AD  F0 F9     BEQ $C7A8                       A:00 X:FF Y:00 P:26 SP:FF PPU:  0,  0 CYC:8172
C7A8  AD 02 20  LDA $2002 = 00                  A:00 X:FF Y:00 P:26 SP:FF PPU:  0,  0 CYC:8175
C7AB  29 80     AND #$80                        A:00 X:FF Y:00 P:26 SP:FF PPU:  0,  0 CYC:8179
C7AD  F0 F9     BEQ $C7A8                       A:00 X:FF Y:00 P:26 SP:FF PPU:  0,  0 CYC:8181
C7A8  AD 02 20  LDA $2002 = 00                  A:00 X:FF Y:00 P:26 SP:FF PPU:  0,  0 CYC:8184
C7AB  29 80     AND #$80                        A:00 X:FF Y:00 P:26 SP:FF PPU:  0,  0 CYC:8188
C7AD  F0 F9     BEQ $C7A8                       A:00 X:FF Y:00 P:26 SP:FF PPU:  0,  0 CYC:8190
C7A8  AD 02 20  LDA $2002 = 00                  A:00 X:FF Y:00 P:26 SP:FF PPU:  0,  0 CYC:8193
C7AB  29 80     AND #$80                        A:00 X:FF Y:00 P:26 SP:FF PPU:  0,  0 CYC:8197
C7AD  F0 F9     BEQ $C7A8                       A:00 X:FF Y:00 P:26 SP:FF PPU:  0,  0 CYC:8199
C7A8  AD 02 20  LDA $2002 = 00                  A:00 X:FF Y:00 P:26 SP:FF PPU:  0,  0 CYC:8202
C7AB  29 80     AND #$80                        A:00 X:FF Y:00 P:26 SP:FF PPU:  0,  0 CYC:8206
C7AD  F0 F9     BEQ $C7A8                       A:00 X:FF Y:00 P:26 SP:FF PPU:  0,  0 CYC:8208
C7A8  AD 02 20  LDA $2002 = 00                  A:00 X:FF Y:00 P:26 SP:FF PPU:  0,  0 CYC:8211
C7AB  29 80     AND #$80                        A:00 X:FF Y:00 P:26 SP:FF PPU:  0,  0 CYC:8215
C7AD  F0 F9     BEQ $C7A8                       A:00 X:FF Y:00 P:26 SP:FF PPU:  0,  0 CYC:8217
C7A8  AD 02 20  LDA $2002 = 00                  A:00 X:FF Y:00 P:26 SP:FF PPU:  0,  0 CYC:8220
C7AB  29 80     AND #$80                        A:00 X:FF Y:00 P:26 SP:FF PPU:  0,  0 CYC:8224
C7AD  F0 F9     BEQ $C7A8                       A:00 X:FF Y:00 P:26 SP:FF PPU:  0,  0 CYC:8226
C7A8  AD 02 20  LDA $2002 = 00                  A:00 X:FF Y:00 P:26 SP:FF PPU:  0,  0 CYC:8229
C7AB  29 80     AND #$80                        A:00 X:FF Y:00 P:26 SP:FF PPU:  0,  0 CYC:8233
C7AD  F0 F9     BEQ $C7A8                       A:00 X:FF Y:00 P:26 SP:FF PPU:  0,  0 CYC:8235
C7A8  AD 02 20  LDA $2002 = 00                  A:00 X:FF Y:00 P:26 SP:FF PPU:  0,  0 CYC:8238
C7AB  29 80     AND #$80                        A:00 X:FF Y:00 P:26 SP:FF PPU:  0,  0 CYC:8242
C7AD  F0 F9     BEQ $C7A8                       A:00 X:FF Y:00 P:26 SP:FF PPU:  0,  0 CYC:8244
C7A8  AD 02 20  LDA $2002 = 00                  A:00 X:FF Y:00 P:26 SP:FF PPU:  0,  0 CYC:8247
C7AB  29 80     AND #$80                        A:00 X:FF Y:00 P:26 SP:FF PPU:  0,  0 CYC:8251
C7AD  F0 F9     BEQ $C7A8                       A:00 X:FF Y:00 P:26 SP:FF PPU:  0,  0 CYC:8253
C7A8  AD 02 20  LDA $2002 = 00                  A:00 X:FF Y:00 P:26 SP:FF PPU:  0,  0 CYC:8256
C7AB  29 80     AND #$80                        A:00 X:FF Y:00 P:26 SP:FF PPU:  0,  0 CYC:8260
C7AD  F0 F9     BEQ $C7A8                       A:00 X:FF Y:00 P:26 SP:FF PPU:  0,  0 CYC:8262
C7A8  AD 02 20  LDA $2002 = 00                  A:00 X:FF Y:00 P:26 SP:FF PPU:  0,  0 CYC:8265
C7AB  29 80     AND #$80                        A:00 X:FF Y:00 P:26 SP:FF PPU:  0,  0 CYC:8269
C7AD  F0 F9     BEQ $C7A8                       A:00 X:FF Y:00 P:26 SP:FF PPU:  0,  0 CYC:8271
C7A8  AD 02 20  LDA $2002 = 00                  A:00 X:FF Y:00 P:26 SP:FF PPU:  0,  0 CYC:8274
C7AB  29 80     AND #$80                        A:00 X:FF Y:00 P:26 SP:FF PPU:  0,  0 CYC:8278
C7AD  F0 F9     BEQ $C7A8                       A:00 X:FF Y:00 P:26 SP:FF PPU:  0,  0 CYC:8280
C7A8  AD 02 20  LDA $2002 = 00                  A:00 X:FF Y:00 P:26 SP:FF PPU:  0,  0 CYC:8283
C7AB  29 80     AND #$80                        A:00 X:FF Y:00 P:26 SP:FF PPU:  0,  0 CYC:8287
C7AD  F0 F9     BEQ $C7A8                       A:00 X:FF Y:00 P:26 SP:FF PPU:  0,  0 CYC:8289
C7A8  AD 02 20  LDA $2002 = 00                  A:00 X:FF Y:00 P:26 SP:FF PPU:  0,  0 CYC:8292
C7AB  29 80     AND #$80                        A:00 X:FF Y:00 P:26 SP:FF PPU:  0,  0 CYC:8296
C7AD  F0 F9     BEQ $C7A8                       A:00 X:FF Y:00 P:26 SP:FF PPU:  0,  0 CYC:8298
C7A8  AD 02 20  LDA $2002 = 00                  A:00 X:FF Y:00 P:26 SP:FF PPU:  0,  0 CYC:8301
C7AB  29 80     AND #$80                        A:00 X:FF Y:00 P:26 SP:FF PPU:  0,  0 CYC:8305
C7AD  F0 F9     BEQ $C7A8                       A:00 X:FF Y:00 P:26 SP:FF PPU:  0,  0 CYC:8307
C7A8  AD 02 20  LDA $2002 = 00                  A:00 X:FF Y:00 P:26 SP:FF PPU:  0,  0 CYC:8310
C7AB  29 80     AND #$80                        A:00 X:FF Y:00 P:26 SP:FF PPU:  0,  0 CYC:8314
C7AD  F0 F9     BEQ $C7A8                       A:00 X:FF Y:00 P:26 SP:FF PPU:  0,  0 CYC:8316
C7A8  AD 02 20  LDA $2002 = 00                  A:00 X:FF Y:00 P:26 SP:FF PPU:  0,  0 CYC:8319
C7AB  29 80     AND #$80                        A:00 X:FF Y:00 P:26 SP:FF PPU:  0,  0 CYC:8323
C7AD  F0 F9     BEQ $C7A8                       A:00 X:FF Y:00 P:26 SP:FF PPU:  0,  0 CYC:8325
C7A8  AD 02 20  LDA $2002 = 00                  A:00 X:FF Y:00 P:26 SP:FF PPU:  0,  0 CYC:8328
C7AB  29 80     AND #$80                        A:00 X:FF Y:00 P:26 SP:FF PPU:  0,  0 CYC:8332
C7AD  F0 F9     BEQ $C7A8                       A:00 X:FF Y:00 P:26 SP:FF PPU:  0,  0 CYC:8334
C7A8  AD 02 20  LDA $2002 = 00                  A:00 X:FF Y:00 P:26 SP:FF PPU:  0,  0 CYC:8337
C7AB  29 80     AND #$80                        A:00 X:FF Y:00 P:26 SP:FF PPU:  0,  0 CYC:8341
C7AD  F0 F9     BEQ $C7A8                       A:00 X:FF Y:00 P:26 SP:FF PPU:  0,  0 CYC:8343
C7A8  AD 02 20  LDA $2002 = 00                  A:00 X:FF Y:00 P:26 SP:FF PPU:  0,  0 CYC:8346
C7AB  29 80     AND #$80                        A:00 X:FF Y:00 P:26 SP:FF PPU:  0,  0 CYC:8350
C7AD  F0 F9     BEQ $C7A8                       A:00 X:FF Y:00 P:26 SP:FF PPU:  0,  0 CYC:8352
C7A8  AD 02 20  LDA $2002 = 00                  A:00 X:FF Y:00 P:26 SP:FF PPU:  0,  0 CYC:8355
C7AB  29 80     AND #$80                        A:00 X:FF Y:00 P:26 SP:FF PPU:  0,  0 CYC:8359
C7AD  F0 F9     BEQ $C7A8                       A:00 X:FF Y:00 P:26 SP:FF PPU:  0,  0 CYC:8361
C7A8  AD 02 20  LDA $2002 = 00                  A:00 X:FF Y:00 P:26 SP:FF PPU:  0,  0 CYC:8364
C7AB  29 80     AND #$80                        A:00 X:FF Y:00 P:26 SP:FF PPU:  0,  0 CYC:8368
C7AD  F0 F9     BEQ $C7A8                       A:00 X:FF Y:00 P:26 SP:FF PPU:  0,  0 CYC:8370
C7A8  AD 02 20  LDA $2002 = 00                  A:00 X:FF Y:00 P:26 SP:FF PPU:  0,  0 CYC:8373
C7AB  29 80     AND #$80                        A:00 X:FF Y:00 P:26 SP:FF PPU:  0,  0 CYC:8377
C7AD  F0 F9     BEQ $C7A8                       A:00 X:FF Y:00 P:26 SP:FF PPU:  0,  0 CYC:8379
C7A8  AD 02 20  LDA $2002 = 00                  A:00 X:FF Y:00 P:26 SP:FF PPU:  0,  0 CYC:8382
C7AB  29 80     AND #$80                        A:00 X:FF Y:00 P:26 SP:FF PPU:  0,  0 CYC:8386
C7AD  F0 F9     BEQ $C7A8                       A:00 X:FF Y:00 P:26 SP:FF PPU:  0,  0 CYC:8388
C7A8  AD 02 20  LDA $2002 = 00                  A:00 X:FF Y:00 P:26 SP:FF PPU:  0,  0 CYC:8391
C7AB  29 80     AND #$80                        A:00 X:FF Y:00 P:26 SP:FF PPU:  0,  0 CYC:8395
C7AD  F0 F9     BEQ $C7A8                       A:00 X:FF Y:00 P:26 SP:FF PPU:  0,  0 CYC:8397
C7A8  AD 02 20  LDA $2002 = 00                  A:00 X:FF Y:00 P:26 SP:FF PPU:  0,  0 CYC:8400
C7AB  29 80     AND #$80                        A:00 X:FF Y:00 P:26 SP:FF PPU:  0,  0 CYC:8404
C7AD  F0 F9     BEQ $C7A8                       A:00 X:FF Y:00 P:26 SP:FF PPU:  0,  0 CYC:8406
C7A8  AD 02 20  LDA $2002 = 00                  A:00 X:FF Y:00 P:26 SP:FF PPU:  0,  0 CYC:8409
C7AB  29 80     AND #$80                        A:00 X:FF Y:00 P:26 SP:FF PPU:  0,  0 CYC:8413
C7AD  F0 F9     BEQ $C7A8                       A:00 X:FF Y:00 P:26 SP:FF PPU:  0,  0 CYC:8415
C7A8  AD 02 20  LDA $2002 = 00                  A:00 X:FF Y:00 P:26 SP:FF PPU:  0,  0 CYC:8418
C7AB  29 80     AND #$80                        A:00 X:FF Y:00 P:26 SP:FF PPU:  0,  0 CYC:8422
C7AD  F0 F9     BEQ $C7A8                       A:00 X:FF Y:00 P:26 SP:FF PPU:  0,  0 CYC:8424
C7A8  AD 02 20  LDA $2002 = 00                  A:00 X:FF Y:00 P:26 SP:FF PPU:  0,  0 CYC:8427
C7AB  29 80     AND #$80                        A:00 X:FF Y:00 P:26 SP:FF PPU:  0,  0 CYC:8431
C7AD  F0 F9     BEQ $C7A8                       A:00 X:FF Y:00 P:26 SP:FF PPU:  0,  0 CYC:8433
C7A8  AD 02 20  LDA $2002 = 00                  A:00 X:FF Y:00 P:26 SP:FF PPU:  0,  0 CYC:8436
C7AB  29 80     AND #$80                        A:00 X:FF Y:00 P:26 SP:FF PPU:  0,  0 CYC:8440
C7AD  F0 F9     BEQ $C7A8                       A:00 X:FF Y:00 P:26 SP:FF PPU:  0,  0 CYC:8442
C7A8  AD 02 20  LDA $2002 = 00                  A:00 X:FF Y:00 P:26 SP:FF PPU:  0,  0 CYC:8445
C7AB  29 80     AND #$80                        A:00 X:FF Y:00 P:26 SP:FF PPU:  0,  0 CYC:8449
C7AD  F0 F9     BEQ $C7A8                       A:00 X:FF Y:00 P:26 SP:FF PPU:  0,  0 CYC:8451
C7A8  AD 02 20  LDA $2002 = 00                  A:00 X:FF Y:00 P:26 SP:FF PPU:  0,  0 CYC:8454
C7AB  29 80     AND #$80                        A:00 X:FF Y:00 P:26 SP:FF PPU:  0,  0 CYC:8458
C7AD  F0 F9     BEQ $C7A8                       A:00 X:FF Y:00 P:26 SP:FF PPU:  0,  0 CYC:8460
C7A8  AD 02 20  LDA $2002 = 00                  A:00 X:FF Y:00 P:26 SP:FF PPU:  0,  0 CYC:8463
C7AB  29 80     AND #$80                        A:00 X:FF Y:00 P:26 SP:FF PPU:  0,  0 CYC:8467
C7AD  F0 F9     BEQ $C7A8                       A:00 X:FF Y:00 P:26 SP:FF PPU:  0,  0 CYC:8469
C7A8  AD 02 20  LDA $2002 = 00                  A:00 X:FF Y:00 P:26 SP:FF PPU:  0,  0 CYC:8472
C7AB  29 80     AND #$80                        A:00 X:FF Y:00 P:26 SP:FF PPU:  0,  0 CYC:8476
C7AD  F0 F9     BEQ $C7A8                       A:00 X:FF Y:00 P:26 SP:FF PPU:  0,  0 CYC:8478
C7A8  AD 02 20  LDA $2002 = 00                  A:00 X:FF Y:00 P:26 SP:FF PPU:  0,  0 CYC:8481
C7AB  29 80     AND #$80                        A:00 X:FF Y:00 P:26 SP:FF PPU:  0,  0 CYC:8485
C7AD  F0 F9     BEQ $C7A8                       A:00 X:FF Y:00 P:26 SP:FF PPU:  0,  0 CYC:8487
C7A8  AD 02 20  LDA $2002 = 00                  A:00 X:FF Y:00 P:26 SP:FF PPU:  0,  0 CYC:8490
C7AB  29 80     AND #$80                        A:00 X:FF Y:00 P:26 SP:FF PPU:  0,  0 CYC:8494
C7AD  F0 F9     BEQ $C7A8                       A:00 X:FF Y:00 P:26 SP:FF PPU:  0,  0 CYC:8496
C7A8  AD 02 20  LDA $2002 = 00                  A:00 X:FF Y:00 P:26 SP:FF PPU:  0,  0 CYC:8499
C7AB  29 80     AND #$80                        A:00 X:FF Y:00 P:26 SP:FF PPU:  0,  0 CYC:8503
C7AD  F0 F9     BEQ $C7A8                       A:00 X:FF Y:00 P:26 SP:FF PPU:  0,  0 CYC:8505
C7A8  AD 02 20  LDA $2002 = 00                  A:00 X:FF Y:00 P:26 SP:FF PPU:  0,  0 CYC:8508
C7AB  29 80     AND #$80                        A:00 X:FF Y:00 P:26 SP:FF PPU:  0,  0 CYC:8512
C7AD  F0 F9     BEQ $C7A8                       A:00 X:FF Y:00 P:26 SP:FF PPU:  0,  0 CYC:8514
C7A8  AD 02 20  LDA $2002 = 00                  A:00 X:FF Y:00 P:26 SP:FF PPU:  0,  0 CYC:8517
C7AB  29 80     AND #$80                        A:00 X:FF Y:00 P:26 SP:FF PPU:  0,  0 CYC:8521
C7AD  F0 F9     BEQ $C7A8                       A:00 X:FF Y:00 P:26 SP:FF PPU:  0,  0 CYC:8523
C7A8  AD 02 20  LDA $2002 = 00                  A:00 X:FF Y:00 P:26 SP:FF PPU:  0,  0 CYC:8526
C7AB  29 80     AND #$80                        A:00 X:FF Y:00 P:26 SP:FF PPU:  0,  0 CYC:8530
C7AD  F0 F9     BEQ $C7A8                       A:00 X:FF Y:00 P:26 SP:FF PPU:  0,  0 CYC:8532
C7A8  AD 02 20  LDA $2002 = 00                  A:00 X:FF Y:00 P:26 SP:FF PPU:  0,  0 CYC:8535
C7AB  29 80     AND #$80                        A:00 X:FF Y:00 P:26 SP:FF PPU:  0,  0 CYC:8539
C7AD  F0 F9     BEQ $C7A8                       A:00 X:FF Y:00 P:26 SP:FF PPU:  0,  0 CYC:8541
C7A8  AD 02 20  LDA $2002 = 00                  A:00 X:FF Y:00 P:26 SP:FF PPU:  0,  0 CYC:8544
C7AB  29 80     AND #$80                        A:00 X:FF Y:00 P:26 SP:FF PPU:  0,  0 CYC:8548
C7AD  F0 F9     BEQ $C7A8                       A:00 X:FF Y:00 P:26 SP:FF PPU:  0,  0 CYC:8550
C7A8  AD 02 20  LDA $2002 = 00                  A:00 X:FF Y:00 P:26 SP:FF PPU:  0,  0 CYC:8553
C7AB  29 80     AND #$80                        A:00 X:FF Y:00 P:26 SP:FF PPU:  0,  0 CYC:8557
C7AD  F0 F9     BEQ $C7A8                       A:00 X:FF Y:00 P:26 SP:FF PPU:  0,  0 CYC:8559
C7A8  AD 02 20  LDA $2002 = 00                  A:00 X:FF Y:00 P:26 SP:FF PPU:  0,  0 CYC:8562
C7AB  29 80     AND #$80                        A:00 X:FF Y:00 P:26 SP:FF PPU:  0,  0 CYC:8566
C7AD  F0 F9     BEQ $C7A8                       A:00 X:FF Y:00 P:26 SP:FF PPU:  0,  0 CYC:8568
C7A8  AD 02 20  LDA $2002 = 00                  A:00 X:FF Y:00 P:26 SP:FF PPU:  0,  0 CYC:8571
C7AB  29 80     AND #$80                        A:00 X:FF Y:00 P:26 SP:FF PPU:  0,  0 CYC:8575
C7AD  F0 F9     BEQ $C7A8                       A:00 X:FF Y:00 P:26 SP:FF PPU:  0,  0 CYC:8577
C7A8  AD 02 20  LDA $2002 = 00                  A:00 X:FF Y:00 P:26 SP:FF PPU:  0,  0 CYC:8580
C7AB  29 80     AND #$80                        A:00 X:FF Y:00 P:26 SP:FF PPU:  0,  0 CYC:8584
C7AD  F0 F9     BEQ $C7A8                       A:00 X:FF Y:00 P:26 SP:FF PPU:  0,  0 CYC:8586
C7A8  AD 02 20  LDA $2002 = 00                  A:00 X:FF Y:00 P:26 SP:FF PPU:  0,  0 CYC:8589
C7AB  29 80     AND #$80                        A:00 X:FF Y:00 P:26 SP:FF PPU:  0,  0 CYC:8593
C7AD  F0 F9     BEQ $C7A8                       A:00 X:FF Y:00 P:26 SP:FF PPU:  0,  0 CYC:8595
C7A8  AD 02 20  LDA $2002 = 00                  A:00 X:FF Y:00 P:26 SP:FF PPU:  0,  0 CYC:8598
C7AB  29 80     AND #$80                        A:00 X:FF Y:00 P:26 SP:FF PPU:  0,  0 CYC:8602
C7AD  F0 F9     BEQ $C7A8                       A:00 X:FF Y:00 P:26 SP:FF PPU:  0,  0 CYC:8604
C7A8  AD 02 20  LDA $2002 = 00                  A:00 X:FF Y:00 P:26 SP:FF PPU:  0,  0 CYC:8607
C7AB  29 80     AND #$80                        A:00 X:FF Y:00 P:26 SP:FF PPU:  0,  0 CYC:8611
C7AD  F0 F9     BEQ $C7A8                       A:00 X:FF Y:00 P:26 SP:FF PPU:  0,  0 CYC:8613
C7A8  AD 02 20  LDA $2002 = 00                  A:00 X:FF Y:00 P:26 SP:FF PPU:  0,  0 CYC:8616
C7AB  29 80     AND #$80                        A:00 X:FF Y:00 P:26 SP:FF PPU:  0,  0 CYC:8620
C7AD  F0 F9     BEQ $C7A8                       A:00 X:FF Y:00 P:26 SP:FF PPU:  0,  0 CYC:8622
C7A8  AD 02 20  LDA $2002 = 00                  A:00 X:FF Y:00 P:26 SP:FF PPU:  0,  0 CYC:8625
C7AB  29 80     AND #$80                        A:00 X:FF Y:00 P:26 SP:FF PPU:  0,  0 CYC:8629
C7AD  F0 F9     BEQ $C7A8                       A:00 X:FF Y:00 P:26 SP:FF PPU:  0,  0 CYC:8631
C7A8  AD 02 20  LDA $2002 = 00                  A:00 X:FF Y:00 P:26 SP:FF PPU:  0,  0 CYC:8634
C7AB  29 80     AND #$80                        A:00 X:FF Y:00 P:26 SP:FF PPU:  0,  0 CYC:8638
C7AD  F0 F9     BEQ $C7A8                       A:00 X:FF Y:00 P:26 SP:FF PPU:  0,  0 CYC:8640
C7A8  AD 02 20  LDA $2002 = 00                  A:00 X:FF Y:00 P:26 SP:FF PPU:  0,  0 CYC:8643
C7AB  29 80     AND #$80                        A:00 X:FF Y:00 P:26 SP:FF PPU:  0,  0 CYC:8647
C7AD  F0 F9     BEQ $C7A8                       A:00 X:FF Y:00 P:26 SP:FF PPU:  0,  0 CYC:8649
C7A8  AD 02 20  LDA $2002 = 00                  A:00 X:FF Y:00 P:26 SP:FF PPU:  0,  0 CYC:8652
C7AB  29 80     AND #$80                        A:00 X:FF Y:00 P:26 SP:FF PPU:  0,  0 CYC:8656
C7AD  F0 F9     BEQ $C7A8                       A:00 X:FF Y:00 P:26 SP:FF PPU:  0,  0 CYC:8658
C7A8  AD 02 20  LDA $2002 = 00                  A:00 X:FF Y:00 P:26 SP:FF PPU:  0,  0 CYC:8661
C7AB  29 80     AND #$80                        A:00 X:FF Y:00 P:26 SP:FF PPU:  0,  0 CYC:8665
C7AD  F0 F9     BEQ $C7A8                       A:00 X:FF Y:00 P:26 SP:FF PPU:  0,  0 CYC:8667
C7A8  AD 02 20  LDA $2002 = 00                  A:00 X:FF Y:00 P:26 SP:FF PPU:  0,  0 CYC:8670
C7AB  29 80     AND #$80                        A:00 X:FF Y:00 P:26 SP:FF PPU:  0,  0 CYC:8674
C7AD  F0 F9     BEQ $C7A8                       A:00 X:FF Y:00 P:26 SP:FF PPU:  0,  0 CYC:8676
C7A8  AD 02 20  LDA $2002 = 00                  A:00 X:FF Y:00 P:26 SP:FF PPU:  0,  0 CYC:8679
C7AB  29 80     AND #$80                        A:00 X:FF Y:00 P:26 SP:FF PPU:  0,  0 CYC:8683
C7AD  F0 F9     BEQ $C7A8                       A:00 X:FF Y:00 P:26 SP:FF PPU:  0,  0 CYC:8685
C7A8  AD 02 20  LDA $2002 = 00                  A:00 X:FF Y:00 P:26 SP:FF PPU:  0,  0 CYC:8688
C7AB  29 80     AND #$80                        A:00 X:FF Y:00 P:26 SP:FF PPU:  0,  0 CYC:8692
C7AD  F0 F9     BEQ $C7A8                       A:00 X:FF Y:00 P:26 SP:FF PPU:  0,  0 CYC:8694
C7A8  AD 02 20  LDA $2002 = 00                  A:00 X:FF Y:00 P:26 SP:FF PPU:  0,  0 CYC:8697
C7AB  29 80     AND #$80                        A:00 X:FF Y:00 P:26 SP:FF PPU:  0,  0 CYC:8701
C7AD  F0 F9     BEQ $C7A8                       A:00 X:FF Y:00 P:26 SP:FF PPU:  0,  0 CYC:8703
C7A8  AD 02 20  LDA $2002 = 00                  A:00 X:FF Y:00 P:26 SP:FF PPU:  0,  0 CYC:8706
C7AB  29 80     AND #$80                        A:00 X:FF Y:00 P:26 SP:FF PPU:  0,  0 CYC:8710
C7AD  F0 F9     BEQ $C7A8                       A:00 X:FF Y:00 P:26 SP:FF PPU:  0,  0 CYC:8712
C7A8  AD 02 20  LDA $2002 = 00                  A:00 X:FF Y:00 P:26 SP:FF PPU:  0,  0 CYC:8715
C7AB  29 80     AND #$80                        A:00 X:FF Y:00 P:26 SP:FF PPU:  0,  0 CYC:8719
C7AD  F0 F9     BEQ $C7A8                       A:00 X:FF Y:00 P:26 SP:FF PPU:  0,  0 CYC:8721
C7A8  AD 02 20  LDA $2002 = 00                  A:00 X:FF Y:00 P:26 SP:FF PPU:  0,  0 CYC:8724
C7AB  29 80     AND #$80                        A:00 X:FF Y:00 P:26 SP:FF PPU:  0,  0 CYC:8728
C7AD  F0 F9     BEQ $C7A8                       A:00 X:FF Y:00 P:26 SP:FF PPU:  0,  0 CYC:8730
C7A8  AD 02 20  LDA $2002 = 00                  A:00 X:FF Y:00 P:26 SP:FF PPU:  0,  0 CYC:8733
C7AB  29 80     AND #$80                        A:00 X:FF Y:00 P:26 SP:FF PPU:  0,  0 CYC:8737
C7AD  F0 F9     BEQ $C7A8                       A:00 X:FF Y:00 P:26 SP:FF PPU:  0,  0 CYC:8739
C7A8  AD 02 20  LDA $2002 = 00                  A:00 X:FF Y:00 P:26 SP:FF PPU:  0,  0 CYC:8742
C7AB  29 80     AND #$80                        A:00 X:FF Y:00 P:26 SP:FF PPU:  0,  0 CYC:8746
C7AD  F0 F9     BEQ $C7A8                       A:00 X:FF Y:00 P:26 SP:FF PPU:  0,  0 CYC:8748
C7A8  AD 02 20  LDA $2002 = 00                  A:00 X:FF Y:00 P:26 SP:FF PPU:  0,  0 CYC:8751
C7AB  29 80     AND #$80                        A:00 X:FF Y:00 P:26 SP:FF PPU:  0,  0 CYC:8755
C7AD  F0 F9     BEQ $C7A8                       A:00 X:FF Y:00 P:26 SP:FF PPU:  0,  0 CYC:8757
C7A8  AD 02 20  LDA $2002 = 00                  A:00 X:FF Y:00 P:26 SP:FF PPU:  0,  0 CYC:8760
C7AB  29 80     AND #$80                        A:00 X:FF Y:00 P:26 SP:FF PPU:  0,  0 CYC:8764
C7AD  F0 F9     BEQ $C7A8                       A:00 X:FF Y:00 P:26 SP:FF PPU:  0,  0 CYC:8766
C7A8  AD 02 20  LDA $2002 = 00                  A:00 X:FF Y:00 P:26 SP:FF PPU:  0,  0 CYC:8769
C7AB  29 80     AND #$80                        A:00 X:FF Y:00 P:26 SP:FF PPU:  0,  0 CYC:8773
C7AD  F0 F9     BEQ $C7A8                       A:00 X:FF Y:00 P:26 SP:FF PPU:  0,  0 CYC:8775
C7A8  AD 02 20  LDA $2002 = 00                  A:00 X:FF Y:00 P:26 SP:FF PPU:  0,  0 CYC:8778
C7AB  29 80     AND #$80                        A:00 X:FF Y:00 P:26 SP:FF PPU:  0,  0 CYC:8782
C7AD  F0 F9     BEQ $C7A8                       A:00 X:FF Y:00 P:26 SP:FF PPU:  0,  0 CYC:8784
C7A8  AD 02 20  LDA $2002 = 00                  A:00 X:FF Y:00 P:26 SP:FF PPU:  0,  0 CYC:8787
C7AB  29 80     AND #$80                        A:00 X:FF Y:00 P:26 SP:FF PPU:  0,  0 CYC:8791
C7AD  F0 F9     BEQ $C7A8                       A:00 X:FF Y:00 P:26 SP:FF PPU:  0,  0 CYC:8793
C7A8  AD 02 20  LDA $2002 = 00                  A:00 X:FF Y:00 P:26 SP:FF PPU:  0,  0 CYC:8796
C7AB  29 80     AND #$80                        A:00 X:FF Y:00 P:26 SP:FF PPU:  0,  0 CYC:8800
C7AD  F0 F9     BEQ $C7A8                       A:00 X:FF Y:00 P:26 SP:FF PPU:  0,  0 CYC:8802
C7A8  AD 02 20  LDA $2002 = 00                  A:00 X:FF Y:00 P:26 SP:FF PPU:  0,  0 CYC:8805
C7AB  29 80     AND #$80                        A:00 X:FF Y:00 P:26 SP:FF PPU:  0,  0 CYC:8809
C7AD  F0 F9     BEQ $C7A8                       A:00 X:FF Y:00 P:26 SP:FF PPU:  0,  0 CYC:8811
C7A8  AD 02 20  LDA $2002 = 00                  A:00 X:FF Y:00 P:26 SP:FF PPU:  0,  0 CYC:8814
C7AB  29 80     AND #$80                        A:00 X:FF Y:00 P:26 SP:FF PPU:  0,  0 CYC:8818
C7AD  F0 F9     BEQ $C7A8                       A:00 X:FF Y:00 P:26 SP:FF PPU:  0,  0 CYC:8820
C7A8  AD 02 20  LDA $2002 = 00                  A:00 X:FF Y:00 P:26 SP:FF PPU:  0,  0 CYC:8823
C7AB  29 80     AND #$80                        A:00 X:FF Y:00 P:26 SP:FF PPU:  0,  0 CYC:8827
C7AD  F0 F9     BEQ $C7A8                       A:00 X:FF Y:00 P:26 SP:FF PPU:  0,  0 CYC:8829
C7A8  AD 02 20  LDA $2002 = 00                  A:00 X:FF Y:00 P:26 SP:FF PPU:  0,  0 CYC:8832
C7AB  29 80     AND #$80                        A:00 X:FF Y:00 P:26 SP:FF PPU:  0,  0 CYC:8836
C7AD  F0 F9     BEQ $C7A8                       A:00 X:FF Y:00 P:26 SP:FF PPU:  0,  0 CYC:8838
C7A8  AD 02 20  LDA $2002 = 00                  A:00 X:FF Y:00 P:26 SP:FF PPU:  0,  0 CYC:8841
C7AB  29 80     AND #$80                        A:00 X:FF Y:00 P:26 SP:FF PPU:  0,  0 CYC:8845
C7AD  F0 F9     BEQ $C7A8                       A:00 X:FF Y:00 P:26 SP:FF PPU:  0,  0 CYC:8847
C7A8  AD 02 20  LDA $2002 = 00                  A:00 X:FF Y:00 P:26 SP:FF PPU:  0,  0 CYC:8850
C7AB  29 80     AND #$80                        A:00 X:FF Y:00 P:26 SP:FF PPU:  0,  0 CYC:8854
C7AD  F0 F9     BEQ $C7A8                       A:00 X:FF Y:00 P:26 SP:FF PPU:  0,  0 CYC:8856
C7A8  AD 02 20  LDA $2002 = 00                  A:00 X:FF Y:00 P:26 SP:FF PPU:  0,  0 CYC:8859
C7AB  29 80     AND #$80                        A:00 X:FF Y:00 P:26 SP:FF PPU:  0,  0 CYC:8863
C7AD  F0 F9     BEQ $C7A8                       A:00 X:FF Y:00 P:26 SP:FF PPU:  0,  0 CYC:8865
C7A8  AD 02 20  LDA $2002 = 00                  A:00 X:FF Y:00 P:26 SP:FF PPU:  0,  0 CYC:8868
C7AB  29 80     AND #$80                        A:00 X:FF Y:00 P:26 SP:FF PPU:  0,  0 CYC:8872
C7AD  F0 F9     BEQ $C7A8                       A:00 X:FF Y:00 P:26 SP:FF PPU:  0,  0 CYC:8874
C7A8  AD 02 20  LDA $2002 = 00                  A:00 X:FF Y:00 P:26 SP:FF PPU:  0,  0 CYC:8877
C7AB  29 80     AND #$80                        A:00 X:FF Y:00 P:26 SP:FF PPU:  0,  0 CYC:8881
C7AD  F0 F9     BEQ $C7A8                       A:00 X:FF Y:00 P:26 SP:FF PPU:  0,  0 CYC:8883
C7A8  AD 02 20  LDA $2002 = 00                  A:00 X:FF Y:00 P:26 SP:FF PPU:  0,  0 CYC:8886
C7AB  29 80     AND #$80                        A:00 X:FF Y:00 P:26 SP:FF PPU:  0,  0 CYC:8890
C7AD  F0 F9     BEQ $C7A8                       A:00 X:FF Y:00 P:26 SP:FF PPU:  0,  0 CYC:8892
C7A8  AD 02 20  LDA $2002 = 00                  A:00 X:FF Y:00 P:26 SP:FF PPU:  0,  0 CYC:8895
C7AB  29 80     AND #$80                        A:00 X:FF Y:00 P:26 SP:FF PPU:  0,  0 CYC:8899
C7AD  F0 F9     BEQ $C7A8                       A:00 X:FF Y:00 P:26 SP:FF PPU:  0,  0 CYC:8901
C7A8  AD 02 20  LDA $2002 = 00                  A:00 X:FF Y:00 P:26 SP:FF PPU:  0,  0 CYC:8904
C7AB  29 80     AND #$80                        A:00 X:FF Y:00 P:26 SP:FF PPU:  0,  0 CYC:8908
C7AD  F0 F9     BEQ $C7A8                       A:00 X:FF Y:00 P:26 SP:FF PPU:  0,  0 CYC:8910
C7A8  AD 02 20  LDA $2002 = 00                  A:00 X:FF Y:00 P:26 SP:FF PPU:  0,  0 CYC:8913
C7AB  29 80     AND #$80                        A:00 X:FF Y:00 P:26 SP:FF PPU:  0,  0 CYC:8917
C7AD  F0 F9     BEQ $C7A8                       A:00 X:FF Y:00 P:26 SP:FF PPU:  0,  0 CYC:8919
C7A8  AD 02 20  LDA $2002 = 00                  A:00 X:FF Y:00 P:26 SP:FF PPU:  0,  0 CYC:8922
C7AB  29 80     AND #$80                        A:00 X:FF Y:00 P:26 SP:FF PPU:  0,  0 CYC:8926
C7AD  F0 F9     BEQ $C7A8                       A:00 X:FF Y:00 P:26 SP:FF PPU:  0,  0 CYC:8928
C7A8  AD 02 20  LDA $2002 = 00                  A:00 X:FF Y:00 P:26 SP:FF PPU:  0,  0 CYC:8931
C7AB  29 80     AND #$80                        A:00 X:FF Y:00 P:26 SP:FF PPU:  0,  0 CYC:8935
C7AD  F0 F9     BEQ $C7A8                       A:00 X:FF Y:00 P:26 SP:FF PPU:  0,  0 CYC:8937
C7A8  AD 02 20  LDA $2002 = 00                  A:00 X:FF Y:00 P:26 SP:FF PPU:  0,  0 CYC:8940
C7AB  29 80     AND #$80                        A:00 X:FF Y:00 P:26 SP:FF PPU:  0,  0 CYC:8944
C7AD  F0 F9     BEQ $C7A8                       A:00 X:FF Y:00 P:26 SP:FF PPU:  0,  0 CYC:8946
C7A8  AD 02 20  LDA $2002 = 00                  A:00 X:FF Y:00 P:26 SP:FF PPU:  0,  0 CYC:8949
C7AB  29 80     AND #$80                        A:00 X:FF Y:00 P:26 SP:FF PPU:  0,  0 CYC:8953
C7AD  F0 F9     BEQ $C7A8                       A:00 X:FF Y:00 P:26 SP:FF PPU:  0,  0 CYC:8955
C7A8  AD 02 20  LDA $2002 = 00                  A:00 X:FF Y:00 P:26 SP:FF PPU:  0,  0 CYC:8958
C7AB  29 80     AND #$80                        A:00 X:FF Y:00 P:26 SP:FF PPU:  0,  0 CYC:8962
C7AD  F0 F9     BEQ $C7A8                       A:00 X:FF Y:00 P:26 SP:FF PPU:  0,  0 CYC:8964
C7A8  AD 02 20  LDA $2002 = 00                  A:00 X:FF Y:00 P:26 SP:FF PPU:  0,  0 CYC:8967
C7AB  29 80     AND #$80                        A:00 X:FF Y:00 P:26 SP:FF PPU:  0,  0 CYC:8971
C7AD  F0 F9     BEQ $C7A8                       A:00 X:FF Y:00 P:26 SP:FF PPU:  0,  0 CYC:8973
C7A8  AD 02 20  LDA $2002 = 00                  A:00 X:FF Y:00 P:26 SP:FF PPU:  0,  0 CYC:8976
C7AB  29 80     AND #$80                        A:00 X:FF Y:00 P:26 SP:FF PPU:  0,  0 CYC:8980
C7AD  F0 F9     BEQ $C7A8                       A:00 X:FF Y:00 P:26 SP:FF PPU:  0,  0 CYC:8982
C7A8  AD 02 20  LDA $2002 = 00                  A:00 X:FF Y:00 P:26 SP:FF PPU:  0,  0 CYC:8985
C7AB  29 80     AND #$80                        A:00 X:FF Y:00 P:26 SP:FF PPU:  0,  0 CYC:8989
C7AD  F0 F9     BEQ $C7A8                       A:00 X:FF Y:00 P:26 SP:FF PPU:  0,  0 CYC:8991
C7A8  AD 02 20  LDA $2002 = 00                  A:00 X:FF Y:00 P:26 SP:FF PPU:  0,  0 CYC:8994
C7AB  29 80     AND #$80                        A:00 X:FF Y:00 P:26 SP:FF PPU:  0,  0 CYC:8998
C7AD  F0 F9     BEQ $C7A8                       A:00 X:FF Y:00 P:26 SP:FF PPU:  0,  0 CYC:9000
C7A8  AD 02 20  LDA $2002 = 00                  A:00 X:FF Y:00 P:26 SP:FF PPU:  0,  0 CYC:9003
C7AB  29 80     AND #$80                        A:00 X:FF Y:00 P:26 SP:FF PPU:  0,  0 CYC:9007
C7AD  F0 F9     BEQ $C7A8                       A:00 X:FF Y:00 P:26 SP:FF PPU:  0,  0 CYC:9009
C7A8  AD 02 20  LDA $2002 = 00                  A:00 X:FF Y:00 P:26 SP:FF PPU:  0,  0 CYC:9012
C7AB  29 80     AND #$80                        A:00 X:FF Y:00 P:26 SP:FF PPU:  0,  0 CYC:9016
C7AD  F0 F9     BEQ $C7A8                       A:00 X:FF Y:00 P:26 SP:FF PPU:  0,  0 CYC:9018
C7A8  AD 02 20  LDA $2002 = 00                  A:00 X:FF Y:00 P:26 SP:FF PPU:  0,  0 CYC:9021
C7AB  29 80     AND #$80                        A:00 X:FF Y:00 P:26 SP:FF PPU:  0,  0 CYC:9025
C7AD  F0 F9     BEQ $C7A8                       A:00 X:FF Y:00 P:26 SP:FF PPU:  0,  0 CYC:9027
C7A8  AD 02 20  LDA $2002 = 00                  A:00 X:FF Y:00 P:26 SP:FF PPU:  0,  0 CYC:9030
C7AB  29 80     AND #$80                        A:00 X:FF Y:00 P:26 SP:FF PPU:  0,  0 CYC:9034
C7AD  F0 F9     BEQ $C7A8                       A:00 X:FF Y:00 P:26 SP:FF PPU:  0,  0 CYC:9036
C7A8  AD 02 20  LDA $2002 = 00                  A:00 X:FF Y:00 P:26 SP:FF PPU:  0,  0 CYC:9039
C7AB  29 80     AND #$80                        A:00 X:FF Y:00 P:26 SP:FF PPU:  0,  0 CYC:9043
C7AD  F0 F9     BEQ $C7A8                       A:00 X:FF Y:00 P:26 SP:FF PPU:  0,  0 CYC:9045
C7A8  AD 02 20  LDA $2002 = 00                  A:00 X:FF Y:00 P:26 SP:FF PPU:  0,  0 CYC:9048
C7AB  29 80     AND #$80                        A:00 X:FF Y:00 P:26 SP:FF PPU:  0,  0 CYC:9052
C7AD  F0 F9     BEQ $C7A8                       A:00 X:FF Y:00 P:26 SP:FF PPU:  0,  0 CYC:9054
C7A8  AD 02 20  LDA $2002 = 00                  A:00 X:FF Y:00 P:26 SP:FF PPU:  0,  0 CYC:9057
C7AB  29 80     AND #$80                        A:00 X:FF Y:00 P:26 SP:FF PPU:  0,  0 CYC:9061
C7AD  F0 F9     BEQ $C7A8                       A:00 X:FF Y:00 P:26 SP:FF PPU:  0,  0 CYC:9063
C7A8  AD 02 20  LDA $2002 = 00                  A:00 X:FF Y:00 P:26 SP:FF PPU:  0,  0 CYC:9066
C7AB  29 80     AND #$80                        A:00 X:FF Y:00 P:26 SP:FF PPU:  0,  0 CYC:9070
C7AD  F0 F9     BEQ $C7A8                       A:00 X:FF Y:00 P:26 SP:FF PPU:  0,  0 CYC:9072
C7A8  AD 02 20  LDA $2002 = 00                  A:00 X:FF Y:00 P:26 SP:FF PPU:  0,  0 CYC:9075
C7AB  29 80     AND #$80                        A:00 X:FF Y:00 P:26 SP:FF PPU:  0,  0 CYC:9079
C7AD  F0 F9     BEQ $C7A8                       A:00 X:FF Y:00 P:26 SP:FF PPU:  0,  0 CYC:9081
C7A8  AD 02 20  LDA $2002 = 00                  A:00 X:FF Y:00 P:26 SP:FF PPU:  0,  0 CYC:9084
C7AB  29 80     AND #$80                        A:00 X:FF Y:00 P:26 SP:FF PPU:  0,  0 CYC:9088
C7AD  F0 F9     BEQ $C7A8                       A:00 X:FF Y:00 P:26 SP:FF PPU:  0,  0 CYC:9090
C7A8  AD 02 20  LDA $2002 = 00                  A:00 X:FF Y:00 P:26 SP:FF PPU:  0,  0 CYC:9093
C7AB  29 80     AND #$80                        A:00 X:FF Y:00 P:26 SP:FF PPU:  0,  0 CYC:9097
C7AD  F0 F9     BEQ $C7A8                       A:00 X:FF Y:00 P:26 SP:FF PPU:  0,  0 CYC:9099
C7A8  AD 02 20  LDA $2002 = 00                  A:00 X:FF Y:00 P:26 SP:FF PPU:  0,  0 CYC:9102
C7AB  29 80     AND #$80                        A:00 X:FF Y:00 P:26 SP:FF PPU:  0,  0 CYC:9106
C7AD  F0 F9     BEQ $C7A8                       A:00 X:FF Y:00 P:26 SP:FF PPU:  0,  0 CYC:9108
C7A8  AD 02 20  LDA $2002 = 00                  A:00 X:FF Y:00 P:26 SP:FF PPU:  0,  0 CYC:9111
C7AB  29 80     AND #$80                        A:00 X:FF Y:00 P:26 SP:FF PPU:  0,  0 CYC:9115
C7AD  F0 F9     BEQ $C7A8                       A:00 X:FF Y:00 P:26 SP:FF PPU:  0,  0 CYC:9117
C7A8  AD 02 20  LDA $2002 = 00                  A:00 X:FF Y:00 P:26 SP:FF PPU:  0,  0 CYC:9120
C7AB  29 80     AND #$80                        A:00 X:FF Y:00 P:26 SP:FF PPU:  0,  0 CYC:9124
C7AD  F0 F9     BEQ $C7A8                       A:00 X:FF Y:00 P:26 SP:FF PPU:  0,  0 CYC:9126
C7A8  AD 02 20  LDA $2002 = 00                  A:00 X:FF Y:00 P:26 SP:FF PPU:  0,  0 CYC:9129
C7AB  29 80     AND #$80                        A:00 X:FF Y:00 P:26 SP:FF PPU:  0,  0 CYC:9133
C7AD  F0 F9     BEQ $C7A8                       A:00 X:FF Y:00 P:26 SP:FF PPU:  0,  0 CYC:9135
C7A8  AD 02 20  LDA $2002 = 00                  A:00 X:FF Y:00 P:26 SP:FF PPU:  0,  0 CYC:9138
C7AB  29 80     AND #$80                        A:00 X:FF Y:00 P:26 SP:FF PPU:  0,  0 CYC:9142
C7AD  F0 F9     BEQ $C7A8                       A:00 X:FF Y:00 P:26 SP:FF PPU:  0,  0 CYC:9144
C7A8  AD 02 20  LDA $2002 = 00                  A:00 X:FF Y:00 P:26 SP:FF PPU:  0,  0 CYC:9147
C7AB  29 80     AND #$80                        A:00 X:FF Y:00 P:26 SP:FF PPU:  0,  0 CYC:9151
C7AD  F0 F9     BEQ $C7A8                       A:00 X:FF Y:00 P:26 SP:FF PPU:  0,  0 CYC:9153
C7A8  AD 02 20  LDA $2002 = 00                  A:00 X:FF Y:00 P:26 SP:FF PPU:  0,  0 CYC:9156
C7AB  29 80     AND #$80                        A:00 X:FF Y:00 P:26 SP:FF PPU:  0,  0 CYC:9160
C7AD  F0 F9     BEQ $C7A8                       A:00 X:FF Y:00 P:26 SP:FF PPU:  0,  0 CYC:9162
C7A8  AD 02 20  LDA $2002 = 00                  A:00 X:FF Y:00 P:26 SP:FF PPU:  0,  0 CYC:9165
C7AB  29 80     AND #$80                        A:00 X:FF Y:00 P:26 SP:FF PPU:  0,  0 CYC:9169
C7AD  F0 F9     BEQ $C7A8                       A:00 X:FF Y:00 P:26 SP:FF PPU:  0,  0 CYC:9171
C7A8  AD 02 20  LDA $2002 = 00                  A:00 X:FF Y:00 P:26 SP:FF PPU:  0,  0 CYC:9174
C7AB  29 80     AND #$80                        A:00 X:FF Y:00 P:26 SP:FF PPU:  0,  0 CYC:9178
C7AD  F0 F9     BEQ $C7A8                       A:00 X:FF Y:00 P:26 SP:FF PPU:  0,  0 CYC:9180
C7A8  AD 02 20  LDA $2002 = 00                  A:00 X:FF Y:00 P:26 SP:FF PPU:  0,  0 CYC:9183
C7AB  29 80     AND #$80                        A:00 X:FF Y:00 P:26 SP:FF PPU:  0,  0 CYC:9187
C7AD  F0 F9     BEQ $C7A8                       A:00 X:FF Y:00 P:26 SP:FF PPU:  0,  0 CYC:9189
C7A8  AD 02 20  LDA $2002 = 00                  A:00 X:FF Y:00 P:26 SP:FF PPU:  0,  0 CYC:9192
C7AB  29 80     AND #$80                        A:00 X:FF Y:00 P:26 SP:FF PPU:  0,  0 CYC:9196
C7AD  F0 F9     BEQ $C7A8                       A:00 X:FF Y:00 P:26 SP:FF PPU:  0,  0 CYC:9198
C7A8  AD 02 20  LDA $2002 = 00                  A:00 X:FF Y:00 P:26 SP:FF PPU:  0,  0 CYC:9201
C7AB  29 80     AND #$80                        A:00 X:FF Y:00 P:26 SP:FF PPU:  0,  0 CYC:9205
C7AD  F0 F9     BEQ $C7A8                       A:00 X:FF Y:00 P:26 SP:FF PPU:  0,  0 CYC:9207
C7A8  AD 02 20  LDA $2002 = 00                  A:00 X:FF Y:00 P:26 SP:FF PPU:  0,  0 CYC:9210
C7AB  29 80     AND #$80                        A:00 X:FF Y:00 P:26 SP:FF PPU:  0,  0 CYC:9214
C7AD  F0 F9     BEQ $C7A8                       A:00 X:FF Y:00 P:26 SP:FF PPU:  0,  0 CYC:9216
C7A8  AD 02 20  LDA $2002 = 00                  A:00 X:FF Y:00 P:26 SP:FF PPU:  0,  0 CYC:9219
C7AB  29 80     AND #$80                        A:00 X:FF Y:00 P:26 SP:FF PPU:  0,  0 CYC:9223
C7AD  F0 F9     BEQ $C7A8                       A:00 X:FF Y:00 P:26 SP:FF PPU:  0,  0 CYC:9225
C7A8  AD 02 20  LDA $2002 = 00                  A:00 X:FF Y:00 P:26 SP:FF PPU:  0,  0 CYC:9228
C7AB  29 80     AND #$80                        A:00 X:FF Y:00 P:26 SP:FF PPU:  0,  0 CYC:9232
C7AD  F0 F9     BEQ $C7A8                       A:00 X:FF Y:00 P:26 SP:FF PPU:  0,  0 CYC:9234
C7A8  AD 02 20  LDA $2002 = 00                  A:00 X:FF Y:00 P:26 SP:FF PPU:  0,  0 CYC:9237
C7AB  29 80     AND #$80                        A:00 X:FF Y:00 P:26 SP:FF PPU:  0,  0 CYC:9241
C7AD  F0 F9     BEQ $C7A8                       A:00 X:FF Y:00 P:26 SP:FF PPU:  0,  0 CYC:9243
C7A8  AD 02 20  LDA $2002 = 00                  A:00 X:FF Y:00 P:26 SP:FF PPU:  0,  0 CYC:9246
C7AB  29 80     AND #$80                        A:00 X:FF Y:00 P:26 SP:FF PPU:  0,  0 CYC:9250
C7AD  F0 F9     BEQ $C7A8                       A:00 X:FF Y:00 P:26 SP:FF PPU:  0,  0 CYC:9252
C7A8  AD 02 20  LDA $2002 = 00                  A:00 X:FF Y:00 P:26 SP:FF PPU:  0,  0 CYC:9255
C7AB  29 80     AND #$80                        A:00 X:FF Y:00 P:26 SP:FF PPU:  0,  0 CYC:9259
C7AD  F0 F9     BEQ $C7A8                       A:00 X:FF Y:00 P:26 SP:FF PPU:  0,  0 CYC:9261
C7A8  AD 02 20  LDA $2002 = 00                  A:00 X:FF Y:00 P:26 SP:FF PPU:  0,  0 CYC:9264
C7AB  29 80     AND #$80                        A:00 X:FF Y:00 P:26 SP:FF PPU:  0,  0 CYC:9268
C7AD  F0 F9     BEQ $C7A8                       A:00 X:FF Y:00 P:26 SP:FF PPU:  0,  0 CYC:9270
C7A8  AD 02 20  LDA $2002 = 00                  A:00 X:FF Y:00 P:26 SP:FF PPU:  0,  0 CYC:9273
C7AB  29 80     AND #$80                        A:00 X:FF Y:00 P:26 SP:FF PPU:  0,  0 CYC:9277
C7AD  F0 F9     BEQ $C7A8                       A:00 X:FF Y:00 P:26 SP:FF PPU:  0,  0 CYC:9279
C7A8  AD 02 20  LDA $2002 = 00                  A:00 X:FF Y:00 P:26 SP:FF PPU:  0,  0 CYC:9282
C7AB  29 80     AND #$80                        A:00 X:FF Y:00 P:26 SP:FF PPU:  0,  0 CYC:9286
C7AD  F0 F9     BEQ $C7A8                       A:00 X:FF Y:00 P:26 SP:FF PPU:  0,  0 CYC:9288
C7A8  AD 02 20  LDA $2002 = 00                  A:00 X:FF Y:00 P:26 SP:FF PPU:  0,  0 CYC:9291
C7AB  29 80     AND #$80                        A:00 X:FF Y:00 P:26 SP:FF PPU:  0,  0 CYC:9295
C7AD  F0 F9     BEQ $C7A8                       A:00 X:FF Y:00 P:26 SP:FF PPU:  0,  0 CYC:9297
C7A8  AD 02 20  LDA $2002 = 00                  A:00 X:FF Y:00 P:26 SP:FF PPU:  0,  0 CYC:9300
C7AB  29 80     AND #$80                        A:00 X:FF Y:00 P:26 SP:FF PPU:  0,  0 CYC:9304
C7AD  F0 F9     BEQ $C7A8                       A:00 X:FF Y:00 P:26 SP:FF PPU:  0,  0 CYC:9306
C7A8  AD 02 20  LDA $2002 = 00                  A:00 X:FF Y:00 P:26 SP:FF PPU:  0,  0 CYC:9309
C7AB  29 80     AND #$80                        A:00 X:FF Y:00 P:26 SP:FF PPU:  0,  0 CYC:9313
C7AD  F0 F9     BEQ $C7A8                       A:00 X:FF Y:00 P:26 SP:FF PPU:  0,  0 CYC:9315
C7A8  AD 02 20  LDA $2002 = 00                  A:00 X:FF Y:00 P:26 SP:FF PPU:  0,  0 CYC:9318
C7AB  29 80     AND #$80                        A:00 X:FF Y:00 P:26 SP:FF PPU:  0,  0 CYC:9322
C7AD  F0 F9     BEQ $C7A8                       A:00 X:FF Y:00 P:26 SP:FF PPU:  0,  0 CYC:9324
C7A8  AD 02 20  LDA $2002 = 00                  A:00 X:FF Y:00 P:26 SP:FF PPU:  0,  0 CYC:9327
C7AB  29 80     AND #$80                        A:00 X:FF Y:00 P:26 SP:FF PPU:  0,  0 CYC:9331
C7AD  F0 F9     BEQ $C7A8                       A:00 X:FF Y:00 P:26 SP:FF PPU:  0,  0 CYC:9333
C7A8  AD 02 20  LDA $2002 = 00                  A:00 X:FF Y:00 P:26 SP:FF PPU:  0,  0 CYC:9336
C7AB  29 80     AND #$80                        A:00 X:FF Y:00 P:26 SP:FF PPU:  0,  0 CYC:9340
C7AD  F0 F9     BEQ $C7A8                       A:00 X:FF Y:00 P:26 SP:FF PPU:  0,  0 CYC:9342
C7A8  AD 02 20  LDA $2002 = 00                  A:00 X:FF Y:00 P:26 SP:FF PPU:  0,  0 CYC:9345
C7AB  29 80     AND #$80                        A:00 X:FF Y:00 P:26 SP:FF PPU:  0,  0 CYC:9349
C7AD  F0 F9     BEQ $C7A8                       A:00 X:FF Y:00 P:26 SP:FF PPU:  0,  0 CYC:9351
C7A8  AD 02 20  LDA $2002 = 00                  A:00 X:FF Y:00 P:26 SP:FF PPU:  0,  0 CYC:9354
C7AB  29 80     AND #$80                        A:00 X:FF Y:00 P:26 SP:FF PPU:  0,  0 CYC:9358
C7AD  F0 F9     BEQ $C7A8                       A:00 X:FF Y:00 P:26 SP:FF PPU:  0,  0 CYC:9360
C7A8  AD 02 20  LDA $2002 = 00                  A:00 X:FF Y:00 P:26 SP:FF PPU:  0,  0 CYC:9363
C7AB  29 80     AND #$80                        A:00 X:FF Y:00 P:26 SP:FF PPU:  0,  0 CYC:9367
C7AD  F0 F9     BEQ $C7A8                       A:00 X:FF Y:00 P:26 SP:FF PPU:  0,  0 CYC:9369
C7A8  AD 02 20  LDA $2002 = 00                  A:00 X:FF Y:00 P:26 SP:FF PPU:  0,  0 CYC:9372
C7AB  29 80     AND #$80                        A:00 X:FF Y:00 P:26 SP:FF PPU:  0,  0 CYC:9376
C7AD  F0 F9     BEQ $C7A8                       A:00 X:FF Y:00 P:26 SP:FF PPU:  0,  0 CYC:9378
C7A8  AD 02 20  LDA $2002 = 00                  A:00 X:FF Y:00 P:26 SP:FF PPU:  0,  0 CYC:9381
C7AB  29 80     AND #$80                        A:00 X:FF Y:00 P:26 SP:FF PPU:  0,  0 CYC:9385
C7AD  F0 F9     BEQ $C7A8                       A:00 X:FF Y:00 P:26 SP:FF PPU:  0,  0 CYC:9387
C7A8  AD 02 20  LDA $2002 = 00                  A:00 X:FF Y:00 P:26 SP:FF PPU:  0,  0 CYC:9390
C7AB  29 80     AND #$80                        A:00 X:FF Y:00 P:26 SP:FF PPU:  0,  0 CYC:9394
C7AD  F0 F9     BEQ $C7A8                       A:00 X:FF Y:00 P:26 SP:FF PPU:  0,  0 CYC:9396
C7A8  AD 02 20  LDA $2002 = 00                  A:00 X:FF Y:00 P:26 SP:FF PPU:  0,  0 CYC:9399
C7AB  29 80     AND #$80                        A:00 X:FF Y:00 P:26 SP:FF PPU:  0,  0 CYC:9403
C7AD  F0 F9     BEQ $C7A8                       A:00 X:FF Y:00 P:26 SP:FF PPU:  0,  0 CYC:9405
C7A8  AD 02 20  LDA $2002 = 00                  A:00 X:FF Y:00 P:26 SP:FF PPU:  0,  0 CYC:9408
C7AB  29 80     AND #$80                        A:00 X:FF Y:00 P:26 SP:FF PPU:  0,  0 CYC:9412
C7AD  F0 F9     BEQ $C7A8                       A:00 X:FF Y:00 P:26 SP:FF PPU:  0,  0 CYC:9414
C7A8  AD 02 20  LDA $2002 = 00                  A:00 X:FF Y:00 P:26 SP:FF PPU:  0,  0 CYC:9417
C7AB  29 80     AND #$80                        A:00 X:FF Y:00 P:26 SP:FF PPU:  0,  0 CYC:9421
C7AD  F0 F9     BEQ $C7A8                       A:00 X:FF Y:00 P:26 SP:FF PPU:  0,  0 CYC:9423
C7A8  AD 02 20  LDA $2002 = 00                  A:00 X:FF Y:00 P:26 SP:FF PPU:  0,  0 CYC:9426
C7AB  29 80     AND #$80                        A:00 X:FF Y:00 P:26 SP:FF PPU:  0,  0 CYC:9430
C7AD  F0 F9     BEQ $C7A8                       A:00 X:FF Y:00 P:26 SP:FF PPU:  0,  0 CYC:9432
C7A8  AD 02 20  LDA $2002 = 00                  A:00 X:FF Y:00 P:26 SP:FF PPU:  0,  0 CYC:9435
C7AB  29 80     AND #$80                        A:00 X:FF Y:00 P:26 SP:FF PPU:  0,  0 CYC:9439
C7AD  F0 F9     BEQ $C7A8                       A:00 X:FF Y:00 P:26 SP:FF PPU:  0,  0 CYC:9441
C7A8  AD 02 20  LDA $2002 = 00                  A:00 X:FF Y:00 P:26 SP:FF PPU:  0,  0 CYC:9444
C7AB  29 80     AND #$80                        A:00 X:FF Y:00 P:26 SP:FF PPU:  0,  0 CYC:9448
C7AD  F0 F9     BEQ $C7A8                       A:00 X:FF Y:00 P:26 SP:FF PPU:  0,  0 CYC:9450
C7A8  AD 02 20  LDA $2002 = 00                  A:00 X:FF Y:00 P:26 SP:FF PPU:  0,  0 CYC:9453
C7AB  29 80     AND #$80                        A:00 X:FF Y:00 P:26 SP:FF PPU:  0,  0 CYC:9457
C7AD  F0 F9     BEQ $C7A8                       A:00 X:FF Y:00 P:26 SP:FF PPU:  0,  0 CYC:9459
C7A8  AD 02 20  LDA $2002 = 00                  A:00 X:FF Y:00 P:26 SP:FF PPU:  0,  0 CYC:9462
C7AB  29 80     AND #$80                        A:00 X:FF Y:00 P:26 SP:FF PPU:  0,  0 CYC:9466
C7AD  F0 F9     BEQ $C7A8                       A:00 X:FF Y:00 P:26 SP:FF PPU:  0,  0 CYC:9468
C7A8  AD 02 20  LDA $2002 = 00                  A:00 X:FF Y:00 P:26 SP:FF PPU:  0,  0 CYC:9471
C7AB  29 80     AND #$80                        A:00 X:FF Y:00 P:26 SP:FF PPU:  0,  0 CYC:9475
C7AD  F0 F9     BEQ $C7A8                       A:00 X:FF Y:00 P:26 SP:FF PPU:  0,  0 CYC:9477
C7A8  AD 02 20  LDA $2002 = 00                  A:00 X:FF Y:00 P:26 SP:FF PPU:  0,  0 CYC:9480
C7AB  29 80     AND #$80                        A:00 X:FF Y:00 P:26 SP:FF PPU:  0,  0 CYC:9484
C7AD  F0 F9     BEQ $C7A8                       A:00 X:FF Y:00 P:26 SP:FF PPU:  0,  0 CYC:9486
C7A8  AD 02 20  LDA $2002 = 00                  A:00 X:FF Y:00 P:26 SP:FF PPU:  0,  0 CYC:9489
C7AB  29 80     AND #$80                        A:00 X:FF Y:00 P:26 SP:FF PPU:  0,  0 CYC:9493
C7AD  F0 F9     BEQ $C7A8                       A:00 X:FF Y:00 P:26 SP:FF PPU:  0,  0 CYC:9495
C7A8  AD 02 20  LDA $2002 = 00                  A:00 X:FF Y:00 P:26 SP:FF PPU:  0,  0 CYC:9498
C7AB  29 80     AND #$80                        A:00 X:FF Y:00 P:26 SP:FF PPU:  0,  0 CYC:9502
C7AD  F0 F9     BEQ $C7A8                       A:00 X:FF Y:00 P:26 SP:FF PPU:  0,  0 CYC:9504
C7A8  AD 02 20  LDA $2002 = 00                  A:00 X:FF Y:00 P:26 SP:FF PPU:  0,  0 CYC:9507
C7AB  29 80     AND #$80                        A:00 X:FF Y:00 P:26 SP:FF PPU:  0,  0 CYC:9511
C7AD  F0 F9     BEQ $C7A8                       A:00 X:FF Y:00 P:26 SP:FF PPU:  0,  0 CYC:9513
C7A8  AD 02 20  LDA $2002 = 00                  A:00 X:FF Y:00 P:26 SP:FF PPU:  0,  0 CYC:9516
C7AB  29 80     AND #$80                        A:00 X:FF Y:00 P:26 SP:FF PPU:  0,  0 CYC:9520
C7AD  F0 F9     BEQ $C7A8                       A:00 X:FF Y:00 P:26 SP:FF PPU:  0,  0 CYC:9522
C7A8  AD 02 20  LDA $2002 = 00                  A:00 X:FF Y:00 P:26 SP:FF PPU:  0,  0 CYC:9525
C7AB  29 80     AND #$80                        A:00 X:FF Y:00 P:26 SP:FF PPU:  0,  0 CYC:9529
C7AD  F0 F9     BEQ $C7A8                       A:00 X:FF Y:00 P:26 SP:FF PPU:  0,  0 CYC:9531
C7A8  AD 02 20  LDA $2002 = 00                  A:00 X:FF Y:00 P:26 SP:FF PPU:  0,  0 CYC:9534
C7AB  29 80     AND #$80                        A:00 X:FF Y:00 P:26 SP:FF PPU:  0,  0 CYC:9538
C7AD  F0 F9     BEQ $C7A8                       A:00 X:FF Y:00 P:26 SP:FF PPU:  0,  0 CYC:9540
C7A8  AD 02 20  LDA $2002 = 00                  A:00 X:FF Y:00 P:26 SP:FF PPU:  0,  0 CYC:9543
C7AB  29 80     AND #$80                        A:00 X:FF Y:00 P:26 SP:FF PPU:  0,  0 CYC:9547
C7AD  F0 F9     BEQ $C7A8                       A:00 X:FF Y:00 P:26 SP:FF PPU:  0,  0 CYC:9549
C7A8  AD 02 20  LDA $2002 = 00                  A:00 X:FF Y:00 P:26 SP:FF PPU:  0,  0 CYC:9552
C7AB  29 80     AND #$80                        A:00 X:FF Y:00 P:26 SP:FF PPU:  0,  0 CYC:9556
C7AD  F0 F9     BEQ $C7A8                       A:00 X:FF Y:00 P:26 SP:FF PPU:  0,  0 CYC:9558
C7A8  AD 02 20  LDA $2002 = 00                  A:00 X:FF Y:00 P:26 SP:FF PPU:  0,  0 CYC:9561
C7AB  29 80     AND #$80                        A:00 X:FF Y:00 P:26 SP:FF PPU:  0,  0 CYC:9565
C7AD  F0 F9     BEQ $C7A8                       A:00 X:FF Y:00 P:26 SP:FF PPU:  0,  0 CYC:9567
C7A8  AD 02 20  LDA $2002 = 00                  A:00 X:FF Y:00 P:26 SP:FF PPU:  0,  0 CYC:9570
C7AB  29 80     AND #$80                        A:00 X:FF Y:00 P:26 SP:FF PPU:  0,  0 CYC:9574
C7AD  F0 F9     BEQ $C7A8                       A:00 X:FF Y:00 P:26 SP:FF PPU:  0,  0 CYC:9576
C7A8  AD 02 20  LDA $2002 = 00                  A:00 X:FF Y:00 P:26 SP:FF PPU:  0,  0 CYC:9579
C7AB  29 80     AND #$80                        A:00 X:FF Y:00 P:26 SP:FF PPU:  0,  0 CYC:9583
C7AD  F0 F9     BEQ $C7A8                       A:00 X:FF Y:00 P:26 SP:FF PPU:  0,  0 CYC:9585
C7A8  AD 02 20  LDA $2002 = 00                  A:00 X:FF Y:00 P:26 SP:FF PPU:  0,  0 CYC:9588
C7AB  29 80     AND #$80                        A:00 X:FF Y:00 P:26 SP:FF PPU:  0,  0 CYC:9592
C7AD  F0 F9     BEQ $C7A8                       A:00 X:FF Y:00 P:26 SP:FF PPU:  0,  0 CYC:9594
C7A8  AD 02 20  LDA $2002 = 00                  A:00 X:FF Y:00 P:26 SP:FF PPU:  0,  0 CYC:9597
C7AB  29 80     AND #$80                        A:00 X:FF Y:00 P:26 SP:FF PPU:  0,  0 CYC:9601
C7AD  F0 F9     BEQ $C7A8                       A:00 X:FF Y:00 P:26 SP:FF PPU:  0,  0 CYC:9603
C7A8  AD 02 20  LDA $2002 = 00                  A:00 X:FF Y:00 P:26 SP:FF PPU:  0,  0 CYC:9606
C7AB  29 80     AND #$80                        A:00 X:FF Y:00 P:26 SP:FF PPU:  0,  0 CYC:9610
C7AD  F0 F9     BEQ $C7A8                       A:00 X:FF Y:00 P:26 SP:FF PPU:  0,  0 CYC:9612
C7A8  AD 02 20  LDA $2002 = 00                  A:00 X:FF Y:00 P:26 SP:FF PPU:  0,  0 CYC:9615
C7AB  29 80     AND #$80                        A:00 X:FF Y:00 P:26 SP:FF PPU:  0,  0 CYC:9619
C7AD  F0 F9     BEQ $C7A8                       A:00 X:FF Y:00 P:26 SP:FF PPU:  0,  0 CYC:9621
C7A8  AD 02 20  LDA $2002 = 00                  A:00 X:FF Y:00 P:26 SP:FF PPU:  0,  0 CYC:9624
C7AB  29 80     AND #$80                        A:00 X:FF Y:00 P:26 SP:FF PPU:  0,  0 CYC:9628
C7AD  F0 F9     BEQ $C7A8                       A:00 X:FF Y:00 P:26 SP:FF PPU:  0,  0 CYC:9630
C7A8  AD 02 20  LDA $2002 = 00                  A:00 X:FF Y:00 P:26 SP:FF PPU:  0,  0 CYC:9633
C7AB  29 80     AND #$80                        A:00 X:FF Y:00 P:26 SP:FF PPU:  0,  0 CYC:9637
C7AD  F0 F9     BEQ $C7A8                       A:00 X:FF Y:00 P:26 SP:FF PPU:  0,  0 CYC:9639
C7A8  AD 02 20  LDA $2002 = 00                  A:00 X:FF Y:00 P:26 SP:FF PPU:  0,  0 CYC:9642
C7AB  29 80     AND #$80                        A:00 X:FF Y:00 P:26 SP:FF PPU:  0,  0 CYC:9646
C7AD  F0 F9     BEQ $C7A8                       A:00 X:FF Y:00 P:26 SP:FF PPU:  0,  0 CYC:9648
C7A8  AD 02 20  LDA $2002 = 00                  A:00 X:FF Y:00 P:26 SP:FF PPU:  0,  0 CYC:9651
C7AB  29 80     AND #$80                        A:00 X:FF Y:00 P:26 SP:FF PPU:  0,  0 CYC:9655
C7AD  F0 F9     BEQ $C7A8                       A:00 X:FF Y:00 P:26 SP:FF PPU:  0,  0 CYC:9657
C7A8  AD 02 20  LDA $2002 = 00                  A:00 X:FF Y:00 P:26 SP:FF PPU:  0,  0 CYC:9660
C7AB  29 80     AND #$80                        A:00 X:FF Y:00 P:26 SP:FF PPU:  0,  0 CYC:9664
C7AD  F0 F9     BEQ $C7A8                       A:00 X:FF Y:00 P:26 SP:FF PPU:  0,  0 CYC:9666
C7A8  AD 02 20  LDA $2002 = 00                  A:00 X:FF Y:00 P:26 SP:FF PPU:  0,  0 CYC:9669
C7AB  29 80     AND #$80                        A:00 X:FF Y:00 P:26 SP:FF PPU:  0,  0 CYC:9673
C7AD  F0 F9     BEQ $C7A8                       A:00 X:FF Y:00 P:26 SP:FF PPU:  0,  0 CYC:9675
C7A8  AD 02 20  LDA $2002 = 00                  A:00 X:FF Y:00 P:26 SP:FF PPU:  0,  0 CYC:9678
C7AB  29 80     AND #$80                        A:00 X:FF Y:00 P:26 SP:FF PPU:  0,  0 CYC:9682
C7AD  F0 F9     BEQ $C7A8                       A:00 X:FF Y:00 P:26 SP:FF PPU:  0,  0 CYC:9684
C7A8  AD 02 20  LDA $2002 = 00                  A:00 X:FF Y:00 P:26 SP:FF PPU:  0,  0 CYC:9687
C7AB  29 80     AND #$80                        A:00 X:FF Y:00 P:26 SP:FF PPU:  0,  0 CYC:9691
C7AD  F0 F9     BEQ $C7A8                       A:00 X:FF Y:00 P:26 SP:FF PPU:  0,  0 CYC:9693
C7A8  AD 02 20  LDA $2002 = 00                  A:00 X:FF Y:00 P:26 SP:FF PPU:  0,  0 CYC:9696
C7AB  29 80     AND #$80                        A:00 X:FF Y:00 P:26 SP:FF PPU:  0,  0 CYC:9700
C7AD  F0 F9     BEQ $C7A8                       A:00 X:FF Y:00 P:26 SP:FF PPU:  0,  0 CYC:9702
C7A8  AD 02 20  LDA $2002 = 00                  A:00 X:FF Y:00 P:26 SP:FF PPU:  0,  0 CYC:9705
C7AB  29 80     AND #$80                        A:00 X:FF Y:00 P:26 SP:FF PPU:  0,  0 CYC:9709
C7AD  F0 F9     BEQ $C7A8                       A:00 X:FF Y:00 P:26 SP:FF PPU:  0,  0 CYC:9711
C7A8  AD 02 20  LDA $2002 = 00                  A:00 X:FF Y:00 P:26 SP:FF PPU:  0,  0 CYC:9714
C7AB  29 80     AND #$80                        A:00 X:FF Y:00 P:26 SP:FF PPU:  0,  0 CYC:9718
C7AD  F0 F9     BEQ $C7A8                       A:00 X:FF Y:00 P:26 SP:FF PPU:  0,  0 CYC:9720
C7A8  AD 02 20  LDA $2002 = 00                  A:00 X:FF Y:00 P:26 SP:FF PPU:  0,  0 CYC:9723
C7AB  29 80     AND #$80                        A:00 X:FF Y:00 P:26 SP:FF PPU:  0,  0 CYC:9727
C7AD  F0 F9     BEQ $C7A8                       A:00 X:FF Y:00 P:26 SP:FF PPU:  0,  0 CYC:9729
C7A8  AD 02 20  LDA $2002 = 00                  A:00 X:FF Y:00 P:26 SP:FF PPU:  0,  0 CYC:9732
C7AB  29 80     AND #$80                        A:00 X:FF Y:00 P:26 SP:FF PPU:  0,  0 CYC:9736
C7AD  F0 F9     BEQ $C7A8                       A:00 X:FF Y:00 P:26 SP:FF PPU:  0,  0 CYC:9738
C7A8  AD 02 20  LDA $2002 = 00                  A:00 X:FF Y:00 P:26 SP:FF PPU:  0,  0 CYC:9741
C7AB  29 80     AND #$80                        A:00 X:FF Y:00 P:26 SP:FF PPU:  0,  0 CYC:9745
C7AD  F0 F9     BEQ $C7A8                       A:00 X:FF Y:00 P:26 SP:FF PPU:  0,  0 CYC:9747
C7A8  AD 02 20  LDA $2002 = 00                  A:00 X:FF Y:00 P:26 SP:FF PPU:  0,  0 CYC:9750
C7AB  29 80     AND #$80                        A:00 X:FF Y:00 P:26 SP:FF PPU:  0,  0 CYC:9754
C7AD  F0 F9     BEQ $C7A8                       A:00 X:FF Y:00 P:26 SP:FF PPU:  0,  0 CYC:9756
C7A8  AD 02 20  LDA $2002 = 00                  A:00 X:FF Y:00 P:26 SP:FF PPU:  0,  0 CYC:9759
C7AB  29 80     AND #$80                        A:00 X:FF Y:00 P:26 SP:FF PPU:  0,  0 CYC:9763
C7AD  F0 F9     BEQ $C7A8                       A:00 X:FF Y:00 P:26 SP:FF PPU:  0,  0 CYC:9765
C7A8  AD 02 20  LDA $2002 = 00                  A:00 X:FF Y:00 P:26 SP:FF PPU:  0,  0 CYC:9768
C7AB  29 80     AND #$80                        A:00 X:FF Y:00 P:26 SP:FF PPU:  0,  0 CYC:9772
C7AD  F0 F9     BEQ $C7A8                       A:00 X:FF Y:00 P:26 SP:FF PPU:  0,  0 CYC:9774
C7A8  AD 02 20  LDA $2002 = 00                  A:00 X:FF Y:00 P:26 SP:FF PPU:  0,  0 CYC:9777
C7AB  29 80     AND #$80                        A:00 X:FF Y:00 P:26 SP:FF PPU:  0,  0 CYC:9781
C7AD  F0 F9     BEQ $C7A8                       A:00 X:FF Y:00 P:26 SP:FF PPU:  0,  0 CYC:9783
C7A8  AD 02 20  LDA $2002 = 00                  A:00 X:FF Y:00 P:26 SP:FF PPU:  0,  0 CYC:9786
C7AB  29 80     AND #$80                        A:00 X:FF Y:00 P:26 SP:FF PPU:  0,  0 CYC:9790
C7AD  F0 F9     BEQ $C7A8                       A:00 X:FF Y:00 P:26 SP:FF PPU:  0,  0 CYC:9792
C7A8  AD 02 20  LDA $2002 = 00                  A:00 X:FF Y:00 P:26 SP:FF PPU:  0,  0 CYC:9795
C7AB  29 80     AND #$80                        A:00 X:FF Y:00 P:26 SP:FF PPU:  0,  0 CYC:9799
C7AD  F0 F9     BEQ $C7A8                       A:00 X:FF Y:00 P:26 SP:FF PPU:  0,  0 CYC:9801
C7A8  AD 02 20  LDA $2002 = 00                  A:00 X:FF Y:00 P:26 SP:FF PPU:  0,  0 CYC:9804
C7AB  29 80     AND #$80                        A:00 X:FF Y:00 P:26 SP:FF PPU:  0,  0 CYC:9808
C7AD  F0 F9     BEQ $C7A8                       A:00 X:FF Y:00 P:26 SP:FF PPU:  0,  0 CYC:9810
C7A8  AD 02 20  LDA $2002 = 00                  A:00 X:FF Y:00 P:26 SP:FF PPU:  0,  0 CYC:9813
C7AB  29 80     AND #$80                        A:00 X:FF Y:00 P:26 SP:FF PPU:  0,  0 CYC:9817
C7AD  F0 F9     BEQ $C7A8                       A:00 X:FF Y:00 P:26 SP:FF PPU:  0,  0 CYC:9819
C7A8  AD 02 20  LDA $2002 = 00                  A:00 X:FF Y:00 P:26 SP:FF PPU:  0,  0 CYC:9822
C7AB  29 80     AND #$80                        A:00 X:FF Y:00 P:26 SP:FF PPU:  0,  0 CYC:9826
C7AD  F0 F9     BEQ $C7A8                       A:00 X:FF Y:00 P:26 SP:FF PPU:  0,  0 CYC:9828
C7A8  AD 02 20  LDA $2002 = 00                  A:00 X:FF Y:00 P:26 SP:FF PPU:  0,  0 CYC:9831
C7AB  29 80     AND #$80                        A:00 X:FF Y:00 P:26 SP:FF PPU:  0,  0 CYC:9835
C7AD  F0 F9     BEQ $C7A8                       A:00 X:FF Y:00 P:26 SP:FF PPU:  0,  0 CYC:9837
C7A8  AD 02 20  LDA $2002 = 00                  A:00 X:FF Y:00 P:26 SP:FF PPU:  0,  0 CYC:9840
C7AB  29 80     AND #$80                        A:00 X:FF Y:00 P:26 SP:FF PPU:  0,  0 CYC:9844
C7AD  F0 F9     BEQ $C7A8                       A:00 X:FF Y:00 P:26 SP:FF PPU:  0,  0 CYC:9846
C7A8  AD 02 20  LDA $2002 = 00                  A:00 X:FF Y:00 P:26 SP:FF PPU:  0,  0 CYC:9849
C7AB  29 80     AND #$80                        A:00 X:FF Y:00 P:26 SP:FF PPU:  0,  0 CYC:9853
C7AD  F0 F9     BEQ $C7A8                       A:00 X:FF Y:00 P:26 SP:FF PPU:  0,  0 CYC:9855
C7A8  AD 02 20  LDA $2002 = 00                  A:00 X:FF Y:00 P:26 SP:FF PPU:  0,  0 CYC:9858
C7AB  29 80     AND #$80                        A:00 X:FF Y:00 P:26 SP:FF PPU:  0,  0 CYC:9862
C7AD  F0 F9     BEQ $C7A8                       A:00 X:FF Y:00 P:26 SP:FF PPU:  0,  0 CYC:9864
C7A8  AD 02 20  LDA $2002 = 00                  A:00 X:FF Y:00 P:26 SP:FF PPU:  0,  0 CYC:9867
C7AB  29 80     AND #$80                        A:00 X:FF Y:00 P:26 SP:FF PPU:  0,  0 CYC:9871
C7AD  F0 F9     BEQ $C7A8                       A:00 X:FF Y:00 P:26 SP:FF PPU:  0,  0 CYC:9873
C7A8  AD 02 20  LDA $2002 = 00                  A:00 X:FF Y:00 P:26 SP:FF PPU:  0,  0 CYC:9876
C7AB  29 80     AND #$80                        A:00 X:FF Y:00 P:26 SP:FF PPU:  0,  0 CYC:9880
C7AD  F0 F9     BEQ $C7A8                       A:00 X:FF Y:00 P:26 SP:FF PPU:  0,  0 CYC:9882
C7A8  AD 02 20  LDA $2002 = 00                  A:00 X:FF Y:00 P:26 SP:FF PPU:  0,  0 CYC:9885
C7AB  29 80     AND #$80                        A:00 X:FF Y:00 P:26 SP:FF PPU:  0,  0 CYC:9889
C7AD  F0 F9     BEQ $C7A8                       A:00 X:FF Y:00 P:26 SP:FF PPU:  0,  0 CYC:9891
C7A8  AD 02 20  LDA $2002 = 00                  A:00 X:FF Y:00 P:26 SP:FF PPU:  0,  0 CYC:9894
C7AB  29 80     AND #$80                        A:00 X:FF Y:00 P:26 SP:FF PPU:  0,  0 CYC:9898
C7AD  F0 F9     BEQ $C7A8                       A:00 X:FF Y:00 P:26 SP:FF PPU:  0,  0 CYC:9900
C7A8  AD 02 20  LDA $2002 = 00                  A:00 X:FF Y:00 P:26 SP:FF PPU:  0,  0 CYC:9903
C7AB  29 80     AND #$80                        A:00 X:FF Y:00 P:26 SP:FF PPU:  0,  0 CYC:9907
C7AD  F0 F9     BEQ $C7A8                       A:00 X:FF Y:00 P:26 SP:FF PPU:  0,  0 CYC:9909
C7A8  AD 02 20  LDA $2002 = 00                  A:00 X:FF Y:00 P:26 SP:FF PPU:  0,  0 CYC:9912
C7AB  29 80     AND #$80                        A:00 X:FF Y:00 P:26 SP:FF PPU:  0,  0 CYC:9916
C7AD  F0 F9     BEQ $C7A8                       A:00 X:FF Y:00 P:26 SP:FF PPU:  0,  0 CYC:9918
C7A8  AD 02 20  LDA $2002 = 00                  A:00 X:FF Y:00 P:26 SP:FF PPU:  0,  0 CYC:9921
C7AB  29 80     AND #$80                        A:00 X:FF Y:00 P:26 SP:FF PPU:  0,  0 CYC:9925
C7AD  F0 F9     BEQ $C7A8                       A:00 X:FF Y:00 P:26 SP:FF PPU:  0,  0 CYC:9927
C7A8  AD 02 20  LDA $2002 = 00                  A:00 X:FF Y:00 P:26 SP:FF PPU:  0,  0 CYC:9930
C7AB  29 80     AND #$80                        A:00 X:FF Y:00 P:26 SP:FF PPU:  0,  0 CYC:9934
C7AD  F0 F9     BEQ $C7A8                       A:00 X:FF Y:00 P:26 SP:FF PPU:  0,  0 CYC:9936
C7A8  AD 02 20  LDA $2002 = 00                  A:00 X:FF Y:00 P:26 SP:FF PPU:  0,  0 CYC:9939
C7AB  29 80     AND #$80                        A:00 X:FF Y:00 P:26 SP:FF PPU:  0,  0 CYC:9943
C7AD  F0 F9     BEQ $C7A8                       A:00 X:FF Y:00 P:26 SP:FF PPU:  0,  0 CYC:9945
C7A8  AD 02 20  LDA $2002 = 00                  A:00 X:FF Y:00 P:26 SP:FF PPU:  0,  0 CYC:9948
C7AB  29 80     AND #$80                        A:00 X:FF Y:00 P:26 SP:FF PPU:  0,  0 CYC:9952
C7AD  F0 F9     BEQ $C7A8                       A:00 X:FF Y:00 P:26 SP:FF PPU:  0,  0 CYC:9954
C7A8  AD 02 20  LDA $2002 = 00                  A:00 X:FF Y:00 P:26 SP:FF PPU:  0,  0 CYC:9957
C7AB  29 80     AND #$80                        A:00 X:FF Y:00 P:26 SP:FF PPU:  0,  0 CYC:9961
C7AD  F0 F9     BEQ $C7A8                       A:00 X:FF Y:00 P:26 SP:FF PPU:  0,  0 CYC:9963
C7A8  AD 02 20  LDA $2002 = 00                  A:00 X:FF Y:00 P:26 SP:FF PPU:  0,  0 CYC:9966
C7AB  29 80     AND #$80                        A:00 X:FF Y:00 P:26 SP:FF PPU:  0,  0 CYC:9970
C7AD  F0 F9     BEQ $C7A8                       A:00 X:FF Y:00 P:26 SP:FF PPU:  0,  0 CYC:9972
C7A8  AD 02 20  LDA $2002 = 00                  A:00 X:FF Y:00 P:26 SP:FF PPU:  0,  0 CYC:9975
C7AB  29 80     AND #$80                        A:00 X:FF Y:00 P:26 SP:FF PPU:  0,  0 CYC:9979
C7AD  F0 F9     BEQ $C7A8                       A:00 X:FF Y:00 P:26 SP:FF PPU:  0,  0 CYC:9981
C7A8  AD 02 20  LDA $2002 = 00                  A:00 X:FF Y:00 P:26 SP:FF PPU:  0,  0 CYC:9984
C7AB  29 80     AND #$80                        A:00 X:FF Y:00 P:26 SP:FF PPU:  0,  0 CYC:9988
C7AD  F0 F9     BEQ $C7A8                       A:00 X:FF Y:00 P:26 SP:FF PPU:  0,  0 CYC:9990
C7A8  AD 02 20  LDA $2002 = 00                  A:00 X:FF Y:00 P:26 SP:FF PPU:  0,  0 CYC:9993
C7AB  29 80     AND #$80                        A:00 X:FF Y:00 P:26 SP:FF PPU:  0,  0 CYC:9997
C7AD  F0 F9     BEQ $C7A8                       A:00 X:FF Y:00 P:26 SP:FF PPU:  0,  0 CYC:9999
C7A8  AD 02 20  LDA $2002 = 00                  A:00 X:FF Y:00 P:26 SP:FF PPU:  0,  0 CYC:10002
C7AB  29 80     AND #$80                        A:00 X:FF Y:00 P:26 SP:FF PPU:  0,  0 CYC:10006
C7AD  F0 F9     BEQ $C7A8                       A:00 X:FF Y:00 P:26 SP:FF PPU:  0,  0 CYC:10008
C7A8  AD 02 20  LDA $2002 = 00                  A:00 X:FF Y:00 P:26 SP:FF PPU:  0,  0 CYC:10011
C7AB  29 80     AND #$80                        A:00 X:FF Y:00 P:26 SP:FF PPU:  0,  0 CYC:10015
C7AD  F0 F9     BEQ $C7A8                       A:00 X:FF Y:00 P:26 SP:FF PPU:  0,  0 CYC:10017
C7A8  AD 02 20  LDA $2002 = 00                  A:00 X:FF Y:00 P:26 SP:FF PPU:  0,  0 CYC:10020
C7AB  29 80     AND #$80                        A:00 X:FF Y:00 P:26 SP:FF PPU:  0,  0 CYC:10024
C7AD  F0 F9     BEQ $C7A8                       A:00 X:FF Y:00 P:26 SP:FF PPU:  0,  0 CYC:10026
C7A8  AD 02 20  LDA $2002 = 00                  A:00 X:FF Y:00 P:26 SP:FF PPU:  0,  0 CYC:10029
C7AB  29 80     AND #$80                        A:00 X:FF Y:00 P:26 SP:FF PPU:  0,  0 CYC:10033
C7AD  F0 F9     BEQ $C7A8                       A:00 X:FF Y:00 P:26 SP:FF PPU:  0,  0 CYC:10035
C7A8  AD 02 20  LDA $2002 = 00                  A:00 X:FF Y:00 P:26 SP:FF PPU:  0,  0 CYC:10038
C7AB  29 80     AND #$80                        A:00 X:FF Y:00 P:26 SP:FF PPU:  0,  0 CYC:10042
C7AD  F0 F9     BEQ $C7A8                       A:00 X:FF Y:00 P:26 SP:FF PPU:  0,  0 CYC:10044
C7A8  AD 02 20  LDA $2002 = 00                  A:00 X:FF Y:00 P:26 SP:FF PPU:  0,  0 CYC:10047
C7AB  29 80     AND #$80                        A:00 X:FF Y:00 P:26 SP:FF PPU:  0,  0 CYC:10051
C7AD  F0 F9     BEQ $C7A8                       A:00 X:FF Y:00 P:26 SP:FF PPU:  0,  0 CYC:10053
C7A8  AD 02 20  LDA $2002 = 00                  A:00 X:FF Y:00 P:26 SP:FF PPU:  0,  0 CYC:10056
C7AB  29 80     AND #$80                        A:00 X:FF Y:00 P:26 SP:FF PPU:  0,  0 CYC:10060
C7AD  F0 F9     BEQ $C7A8                       A:00 X:FF Y:00 P:26 SP:FF PPU:  0,  0 CYC:10062
C7A8  AD 02 20  LDA $2002 = 00                  A:00 X:FF Y:00 P:26 SP:FF PPU:  0,  0 CYC:10065
C7AB  29 80     AND #$80                        A:00 X:FF Y:00 P:26 SP:FF PPU:  0,  0 CYC:10069
C7AD  F0 F9     BEQ $C7A8                       A:00 X:FF Y:00 P:26 SP:FF PPU:  0,  0 CYC:10071
C7A8  AD 02 20  LDA $2002 = 00                  A:00 X:FF Y:00 P:26 SP:FF PPU:  0,  0 CYC:10074
C7AB  29 80     AND #$80                        A:00 X:FF Y:00 P:26 SP:FF PPU:  0,  0 CYC:10078
C7AD  F0 F9     BEQ $C7A8                       A:00 X:FF Y:00 P:26 SP:FF PPU:  0,  0 CYC:10080
C7A8  AD 02 20  LDA $2002 = 00                  A:00 X:FF Y:00 P:26 SP:FF PPU:  0,  0 CYC:10083
C7AB  29 80     AND #$80                        A:00 X:FF Y:00 P:26 SP:FF PPU:  0,  0 CYC:10087
C7AD  F0 F9     BEQ $C7A8                       A:00 X:FF Y:00 P:26 SP:FF PPU:  0,  0 CYC:10089
C7A8  AD 02 20  LDA $2002 = 00                  A:00 X:FF Y:00 P:26 SP:FF PPU:  0,  0 CYC:10092
C7AB  29 80     AND #$80                        A:00 X:FF Y:00 P:26 SP:FF PPU:  0,  0 CYC:10096
C7AD  F0 F9     BEQ $C7A8                       A:00 X:FF Y:00 P:26 SP:FF PPU:  0,  0 CYC:10098
C7A8  AD 02 20  LDA $2002 = 00                  A:00 X:FF Y:00 P:26 SP:FF PPU:  0,  0 CYC:10101
C7AB  29 80     AND #$80                        A:00 X:FF Y:00 P:26 SP:FF PPU:  0,  0 CYC:10105
C7AD  F0 F9     BEQ $C7A8                       A:00 X:FF Y:00 P:26 SP:FF PPU:  0,  0 CYC:10107
C7A8  AD 02 20  LDA $2002 = 00                  A:00 X:FF Y:00 P:26 SP:FF PPU:  0,  0 CYC:10110
C7AB  29 80     AND #$80                        A:00 X:FF Y:00 P:26 SP:FF PPU:  0,  0 CYC:10114
C7AD  F0 F9     BEQ $C7A8                       A:00 X:FF Y:00 P:26 SP:FF PPU:  0,  0 CYC:10116
C7A8  AD 02 20  LDA $2002 = 00                  A:00 X:FF Y:00 P:26 SP:FF PPU:  0,  0 CYC:10119
C7AB  29 80     AND #$80                        A:00 X:FF Y:00 P:26 SP:FF PPU:  0,  0 CYC:10123
C7AD  F0 F9     BEQ $C7A8                       A:00 X:FF Y:00 P:26 SP:FF PPU:  0,  0 CYC:10125
C7A8  AD 02 20  LDA $2002 = 00                  A:00 X:FF Y:00 P:26 SP:FF PPU:  0,  0 CYC:10128
C7AB  29 80     AND #$80                        A:00 X:FF Y:00 P:26 SP:FF PPU:  0,  0 CYC:10132
C7AD  F0 F9     BEQ $C7A8                       A:00 X:FF Y:00 P:26 SP:FF PPU:  0,  0 CYC:10134
C7A8  AD 02 20  LDA $2002 = 00                  A:00 X:FF Y:00 P:26 SP:FF PPU:  0,  0 CYC:10137
C7AB  29 80     AND #$80                        A:00 X:FF Y:00 P:26 SP:FF PPU:  0,  0 CYC:10141
C7AD  F0 F9     BEQ $C7A8                       A:00 X:FF Y:00 P:26 SP:FF PPU:  0,  0 CYC:10143
C7A8  AD 02 20  LDA $2002 = 00                  A:00 X:FF Y:00 P:26 SP:FF PPU:  0,  0 CYC:10146
C7AB  29 80     AND #$80                        A:00 X:FF Y:00 P:26 SP:FF PPU:  0,  0 CYC:10150
C7AD  F0 F9     BEQ $C7A8                       A:00 X:FF Y:00 P:26 SP:FF PPU:  0,  0 CYC:10152
C7A8  AD 02 20  LDA $2002 = 00                  A:00 X:FF Y:00 P:26 SP:FF PPU:  0,  0 CYC:10155
C7AB  29 80     AND #$80                        A:00 X:FF Y:00 P:26 SP:FF PPU:  0,  0 CYC:10159
C7AD  F0 F9     BEQ $C7A8                       A:00 X:FF Y:00 P:26 SP:FF PPU:  0,  0 CYC:10161
C7A8  AD 02 20  LDA $2002 = 00                  A:00 X:FF Y:00 P:26 SP:FF PPU:  0,  0 CYC:10164
C7AB  29 80     AND #$80                        A:00 X:FF Y:00 P:26 SP:FF PPU:  0,  0 CYC:10168
C7AD  F0 F9     BEQ $C7A8                       A:00 X:FF Y:00 P:26 SP:FF PPU:  0,  0 CYC:10170
C7A8  AD 02 20  LDA $2002 = 00                  A:00 X:FF Y:00 P:26 SP:FF PPU:  0,  0 CYC:10173
C7AB  29 80     AND #$80                        A:00 X:FF Y:00 P:26 SP:FF PPU:  0,  0 CYC:10177
C7AD  F0 F9     BEQ $C7A8                       A:00 X:FF Y:00 P:26 SP:FF PPU:  0,  0 CYC:10179
C7A8  AD 02 20  LDA $2002 = 00                  A:00 X:FF Y:00 P:26 SP:FF PPU:  0,  0 CYC:10182
C7AB  29 80     AND #$80                        A:00 X:FF Y:00 P:26 SP:FF PPU:  0,  0 CYC:10186
C7AD  F0 F9     BEQ $C7A8                       A:00 X:FF Y:00 P:26 SP:FF PPU:  0,  0 CYC:10188
C7A8  AD 02 20  LDA $2002 = 00                  A:00 X:FF Y:00 P:26 SP:FF PPU:  0,  0 CYC:10191
C7AB  29 80     AND #$80                        A:00 X:FF Y:00 P:26 SP:FF PPU:  0,  0 CYC:10195
C7AD  F0 F9     BEQ $C7A8                       A:00 X:FF Y:00 P:26 SP:FF PPU:  0,  0 CYC:10197
C7A8  AD 02 20  LDA $2002 = 00                  A:00 X:FF Y:00 P:26 SP:FF PPU:  0,  0 CYC:10200
C7AB  29 80     AND #$80                        A:00 X:FF Y:00 P:26 SP:FF PPU:  0,  0 CYC:10204
C7AD  F0 F9     BEQ $C7A8                       A:00 X:FF Y:00 P:26 SP:FF PPU:  0,  0 CYC:10206
C7A8  AD 02 20  LDA $2002 = 00                  A:00 X:FF Y:00 P:26 SP:FF PPU:  0,  0 CYC:10209
C7AB  29 80     AND #$80                        A:00 X:FF Y:00 P:26 SP:FF PPU:  0,  0 CYC:10213
C7AD  F0 F9     BEQ $C7A8                       A:00 X:FF Y:00 P:26 SP:FF PPU:  0,  0 CYC:10215
C7A8  AD 02 20  LDA $2002 = 00                  A:00 X:FF Y:00 P:26 SP:FF PPU:  0,  0 CYC:10218
C7AB  29 80     AND #$80                        A:00 X:FF Y:00 P:26 SP:FF PPU:  0,  0 CYC:10222
C7AD  F0 F9     BEQ $C7A8                       A:00 X:FF Y:00 P:26 SP:FF PPU:  0,  0 CYC:10224
C7A8  AD 02 20  LDA $2002 = 00                  A:00 X:FF Y:00 P:26 SP:FF PPU:  0,  0 CYC:10227
C7AB  29 80     AND #$80                        A:00 X:FF Y:00 P:26 SP:FF PPU:  0,  0 CYC:10231
C7AD  F0 F9     BEQ $C7A8                       A:00 X:FF Y:00 P:26 SP:FF PPU:  0,  0 CYC:10233
C7A8  AD 02 20  LDA $2002 = 00                  A:00 X:FF Y:00 P:26 SP:FF PPU:  0,  0 CYC:10236
C7AB  29 80     AND #$80                        A:00 X:FF Y:00 P:26 SP:FF PPU:  0,  0 CYC:10240
C7AD  F0 F9     BEQ $C7A8                       A:00 X:FF Y:00 P:26 SP:FF PPU:  0,  0 CYC:10242
C7A8  AD 02 20  LDA $2002 = 00                  A:00 X:FF Y:00 P:26 SP:FF PPU:  0,  0 CYC:10245
C7AB  29 80     AND #$80                        A:00 X:FF Y:00 P:26 SP:FF PPU:  0,  0 CYC:10249
C7AD  F0 F9     BEQ $C7A8                       A:00 X:FF Y:00 P:26 SP:FF PPU:  0,  0 CYC:10251
C7A8  AD 02 20  LDA $2002 = 00                  A:00 X:FF Y:00 P:26 SP:FF PPU:  0,  0 CYC:10254
C7AB  29 80     AND #$80                        A:00 X:FF Y:00 P:26 SP:FF PPU:  0,  0 CYC:10258
C7AD  F0 F9     BEQ $C7A8                       A:00 X:FF Y:00 P:26 SP:FF PPU:  0,  0 CYC:10260
C7A8  AD 02 20  LDA $2002 = 00                  A:00 X:FF Y:00 P:26 SP:FF PPU:  0,  0 CYC:10263
C7AB  29 80     AND #$80                        A:00 X:FF Y:00 P:26 SP:FF PPU:  0,  0 CYC:10267
C7AD  F0 F9     BEQ $C7A8                       A:00 X:FF Y:00 P:26 SP:FF PPU:  0,  0 CYC:10269
C7A8  AD 02 20  LDA $2002 = 00                  A:00 X:FF Y:00 P:26 SP:FF PPU:  0,  0 CYC:10272
C7AB  29 80     AND #$80                        A:00 X:FF Y:00 P:26 SP:FF PPU:  0,  0 CYC:10276
C7AD  F0 F9     BEQ $C7A8                       A:00 X:FF Y:00 P:26 SP:FF PPU:  0,  0 CYC:10278
C7A8  AD 02 20  LDA $2002 = 00                  A:00 X:FF Y:00 P:26 SP:FF PPU:  0,  0 CYC:10281
C7AB  29 80     AND #$80                        A:00 X:FF Y:00 P:26 SP:FF PPU:  0,  0 CYC:10285
C7AD  F0 F9     BEQ $C7A8                       A:00 X:FF Y:00 P:26 SP:FF PPU:  0,  0 CYC:10287
C7A8  AD 02 20  LDA $2002 = 00                  A:00 X:FF Y:00 P:26 SP:FF PPU:  0,  0 CYC:10290
C7AB  29 80     AND #$80                        A:00 X:FF Y:00 P:26 SP:FF PPU:  0,  0 CYC:10294
C7AD  F0 F9     BEQ $C7A8                       A:00 X:FF Y:00 P:26 SP:FF PPU:  0,  0 CYC:10296
C7A8  AD 02 20  LDA $2002 = 00                  A:00 X:FF Y:00 P:26 SP:FF PPU:  0,  0 CYC:10299
C7AB  29 80     AND #$80                        A:00 X:FF Y:00 P:26 SP:FF PPU:  0,  0 CYC:10303
C7AD  F0 F9     BEQ $C7A8                       A:00 X:FF Y:00 P:26 SP:FF PPU:  0,  0 CYC:10305
C7A8  AD 02 20  LDA $2002 = 00                  A:00 X:FF Y:00 P:26 SP:FF PPU:  0,  0 CYC:10308
C7AB  29 80     AND #$80                        A:00 X:FF Y:00 P:26 SP:FF PPU:  0,  0 CYC:10312
C7AD  F0 F9     BEQ $C7A8                       A:00 X:FF Y:00 P:26 SP:FF PPU:  0,  0 CYC:10314
C7A8  AD 02 20  LDA $2002 = 00                  A:00 X:FF Y:00 P:26 SP:FF PPU:  0,  0 CYC:10317
C7AB  29 80     AND #$80                        A:00 X:FF Y:00 P:26 SP:FF PPU:  0,  0 CYC:10321
C7AD  F0 F9     BEQ $C7A8                       A:00 X:FF Y:00 P:26 SP:FF PPU:  0,  0 CYC:10323
C7A8  AD 02 20  LDA $2002 = 00                  A:00 X:FF Y:00 P:26 SP:FF PPU:  0,  0 CYC:10326
C7AB  29 80     AND #$80                        A:00 X:FF Y:00 P:26 SP:FF PPU:  0,  0 CYC:10330
C7AD  F0 F9     BEQ $C7A8                       A:00 X:FF Y:00 P:26 SP:FF PPU:  0,  0 CYC:10332
C7A8  AD 02 20  LDA $2002 = 00                  A:00 X:FF Y:00 P:26 SP:FF PPU:  0,  0 CYC:10335
C7AB  29 80     AND #$80                        A:00 X:FF Y:00 P:26 SP:FF PPU:  0,  0 CYC:10339
C7AD  F0 F9     BEQ $C7A8                       A:00 X:FF Y:00 P:26 SP:FF PPU:  0,  0 CYC:10341
C7A8  AD 02 20  LDA $2002 = 00                  A:00 X:FF Y:00 P:26 SP:FF PPU:  0,  0 CYC:10344
C7AB  29 80     AND #$80                        A:00 X:FF Y:00 P:26 SP:FF PPU:  0,  0 CYC:10348
C7AD  F0 F9     BEQ $C7A8                       A:00 X:FF Y:00 P:26 SP:FF PPU:  0,  0 CYC:10350
C7A8  AD 02 20  LDA $2002 = 00                  A:00 X:FF Y:00 P:26 SP:FF PPU:  0,  0 CYC:10353
C7AB  29 80     AND #$80                        A:00 X:FF Y:00 P:26 SP:FF PPU:  0,  0 CYC:10357
C7AD  F0 F9     BEQ $C7A8                       A:00 X:FF Y:00 P:26 SP:FF PPU:  0,  0 CYC:10359
C7A8  AD 02 20  LDA $2002 = 00                  A:00 X:FF Y:00 P:26 SP:FF PPU:  0,  0 CYC:10362
C7AB  29 80     AND #$80                        A:00 X:FF Y:00 P:26 SP:FF PPU:  0,  0 CYC:10366
C7AD  F0 F9     BEQ $C7A8                       A:00 X:FF Y:00 P:26 SP:FF PPU:  0,  0 CYC:10368
C7A8  AD 02 20  LDA $2002 = 00                  A:00 X:FF Y:00 P:26 SP:FF PPU:  0,  0 CYC:10371
C7AB  29 80     AND #$80                        A:00 X:FF Y:00 P:26 SP:FF PPU:  0,  0 CYC:10375
C7AD  F0 F9     BEQ $C7A8                       A:00 X:FF Y:00 P:26 SP:FF PPU:  0,  0 CYC:10377
C7A8  AD 02 20  LDA $2002 = 00                  A:00 X:FF Y:00 P:26 SP:FF PPU:  0,  0 CYC:10380
C7AB  29 80     AND #$80                        A:00 X:FF Y:00 P:26 SP:FF PPU:  0,  0 CYC:10384
C7AD  F0 F9     BEQ $C7A8                       A:00 X:FF Y:00 P:26 SP:FF PPU:  0,  0 CYC:10386
C7A8  AD 02 20  LDA $2002 = 00                  A:00 X:FF Y:00 P:26 SP:FF PPU:  0,  0 CYC:10389
C7AB  29 80     AND #$80                        A:00 X:FF Y:00 P:26 SP:FF PPU:  0,  0 CYC:10393
C7AD  F0 F9     BEQ $C7A8                       A:00 X:FF Y:00 P:26 SP:FF PPU:  0,  0 CYC:10395
C7A8  AD 02 20  LDA $2002 = 00                  A:00 X:FF Y:00 P:26 SP:FF PPU:  0,  0 CYC:10398
C7AB  29 80     AND #$80                        A:00 X:FF Y:00 P:26 SP:FF PPU:  0,  0 CYC:10402
C7AD  F0 F9     BEQ $C7A8                       A:00 X:FF Y:00 P:26 SP:FF PPU:  0,  0 CYC:10404
C7A8  AD 02 20  LDA $2002 = 00                  A:00 X:FF Y:00 P:26 SP:FF PPU:  0,  0 CYC:10407
C7AB  29 80     AND #$80                        A:00 X:FF Y:00 P:26 SP:FF PPU:  0,  0 CYC:10411
C7AD  F0 F9     BEQ $C7A8                       A:00 X:FF Y:00 P:26 SP:FF PPU:  0,  0 CYC:10413
C7A8  AD 02 20  LDA $2002 = 00                  A:00 X:FF Y:00 P:26 SP:FF PPU:  0,  0 CYC:10416
C7AB  29 80     AND #$80                        A:00 X:FF Y:00 P:26 SP:FF PPU:  0,  0 CYC:10420
C7AD  F0 F9     BEQ $C7A8                       A:00 X:FF Y:00 P:26 SP:FF PPU:  0,  0 CYC:10422
C7A8  AD 02 20  LDA $2002 = 00                  A:00 X:FF Y:00 P:26 SP:FF PPU:  0,  0 CYC:10425
C7AB  29 80     AND #$80                        A:00 X:FF Y:00 P:26 SP:FF PPU:  0,  0 CYC:10429
C7AD  F0 F9     BEQ $C7A8                       A:00 X:FF Y:00 P:26 SP:FF PPU:  0,  0 CYC:10431
C7A8  AD 02 20  LDA $2002 = 00                  A:00 X:FF Y:00 P:26 SP:FF PPU:  0,  0 CYC:10434
C7AB  29 80     AND #$80                        A:00 X:FF Y:00 P:26 SP:FF PPU:  0,  0 CYC:10438
C7AD  F0 F9     BEQ $C7A8                       A:00 X:FF Y:00 P:26 SP:FF PPU:  0,  0 CYC:10440
C7A8  AD 02 20  LDA $2002 = 00                  A:00 X:FF Y:00 P:26 SP:FF PPU:  0,  0 CYC:10443
C7AB  29 80     AND #$80                        A:00 X:FF Y:00 P:26 SP:FF PPU:  0,  0 CYC:10447
C7AD  F0 F9     BEQ $C7A8                       A:00 X:FF Y:00 P:26 SP:FF PPU:  0,  0 CYC:10449
C7A8  AD 02 20  LDA $2002 = 00                  A:00 X:FF Y:00 P:26 SP:FF PPU:  0,  0 CYC:10452
C7AB  29 80     AND #$80                        A:00 X:FF Y:00 P:26 SP:FF PPU:  0,  0 CYC:10456
C7AD  F0 F9     BEQ $C7A8                       A:00 X:FF Y:00 P:26 SP:FF PPU:  0,  0 CYC:10458
C7A8  AD 02 20  LDA $2002 = 00                  A:00 X:FF Y:00 P:26 SP:FF PPU:  0,  0 CYC:10461
C7AB  29 80     AND #$80                        A:00 X:FF Y:00 P:26 SP:FF PPU:  0,  0 CYC:10465
C7AD  F0 F9     BEQ $C7A8                       A:00 X:FF Y:00 P:26 SP:FF PPU:  0,  0 CYC:10467
C7A8  AD 02 20  LDA $2002 = 00                  A:00 X:FF Y:00 P:26 SP:FF PPU:  0,  0 CYC:10470
C7AB  29 80     AND #$80                        A:00 X:FF Y:00 P:26 SP:FF PPU:  0,  0 CYC:10474
C7AD  F0 F9     BEQ $C7A8                       A:00 X:FF Y:00 P:26 SP:FF PPU:  0,  0 CYC:10476
C7A8  AD 02 20  LDA $2002 = 00                  A:00 X:FF Y:00 P:26 SP:FF PPU:  0,  0 CYC:10479
C7AB  29 80     AND #$80                        A:00 X:FF Y:00 P:26 SP:FF PPU:  0,  0 CYC:10483
C7AD  F0 F9     BEQ $C7A8                       A:00 X:FF Y:00 P:26 SP:FF PPU:  0,  0 CYC:10485
C7A8  AD 02 20  LDA $2002 = 00                  A:00 X:FF Y:00 P:26 SP:FF PPU:  0,  0 CYC:10488
C7AB  29 80     AND #$80                        A:00 X:FF Y:00 P:26 SP:FF PPU:  0,  0 CYC:10492
C7AD  F0 F9     BEQ $C7A8                       A:00 X:FF Y:00 P:26 SP:FF PPU:  0,  0 CYC:10494
C7A8  AD 02 20  LDA $2002 = 00                  A:00 X:FF Y:00 P:26 SP:FF PPU:  0,  0 CYC:10497
C7AB  29 80     AND #$80                        A:00 X:FF Y:00 P:26 SP:FF PPU:  0,  0 CYC:10501
C7AD  F0 F9     BEQ $C7A8                       A:00 X:FF Y:00 P:26 SP:FF PPU:  0,  0 CYC:10503
C7A8  AD 02 20  LDA $2002 = 00                  A:00 X:FF Y:00 P:26 SP:FF PPU:  0,  0 CYC:10506
C7AB  29 80     AND #$80                        A:00 X:FF Y:00 P:26 SP:FF PPU:  0,  0 CYC:10510
C7AD  F0 F9     BEQ $C7A8                       A:00 X:FF Y:00 P:26 SP:FF PPU:  0,  0 CYC:10512
C7A8  AD 02 20  LDA $2002 = 00                  A:00 X:FF Y:00 P:26 SP:FF PPU:  0,  0 CYC:10515
C7AB  29 80     AND #$80                        A:00 X:FF Y:00 P:26 SP:FF PPU:  0,  0 CYC:10519
C7AD  F0 F9     BEQ $C7A8                       A:00 X:FF Y:00 P:26 SP:FF PPU:  0,  0 CYC:10521
C7A8  AD 02 20  LDA $2002 = 00                  A:00 X:FF Y:00 P:26 SP:FF PPU:  0,  0 CYC:10524
C7AB  29 80     AND #$80                        A:00 X:FF Y:00 P:26 SP:FF PPU:  0,  0 CYC:10528
C7AD  F0 F9     BEQ $C7A8                       A:00 X:FF Y:00 P:26 SP:FF PPU:  0,  0 CYC:10530
C7A8  AD 02 20  LDA $2002 = 00                  A:00 X:FF Y:00 P:26 SP:FF PPU:  0,  0 CYC:10533
C7AB  29 80     AND #$80                        A:00 X:FF Y:00 P:26 SP:FF PPU:  0,  0 CYC:10537
C7AD  F0 F9     BEQ $C7A8                       A:00 X:FF Y:00 P:26 SP:FF PPU:  0,  0 CYC:10539
C7A8  AD 02 20  LDA $2002 = 00                  A:00 X:FF Y:00 P:26 SP:FF PPU:  0,  0 CYC:10542
C7AB  29 80     AND #$80                        A:00 X:FF Y:00 P:26 SP:FF PPU:  0,  0 CYC:10546
C7AD  F0 F9     BEQ $C7A8                       A:00 X:FF Y:00 P:26 SP:FF PPU:  0,  0 CYC:10548
C7A8  AD 02 20  LDA $2002 = 00                  A:00 X:FF Y:00 P:26 SP:FF PPU:  0,  0 CYC:10551
C7AB  29 80     AND #$80                        A:00 X:FF Y:00 P:26 SP:FF PPU:  0,  0 CYC:10555
C7AD  F0 F9     BEQ $C7A8                       A:00 X:FF Y:00 P:26 SP:FF PPU:  0,  0 CYC:10557
C7A8  AD 02 20  LDA $2002 = 00                  A:00 X:FF Y:00 P:26 SP:FF PPU:  0,  0 CYC:10560
C7AB  29 80     AND #$80                        A:00 X:FF Y:00 P:26 SP:FF PPU:  0,  0 CYC:10564
C7AD  F0 F9     BEQ $C7A8                       A:00 X:FF Y:00 P:26 SP:FF PPU:  0,  0 CYC:10566
C7A8  AD 02 20  LDA $2002 = 00                  A:00 X:FF Y:00 P:26 SP:FF PPU:  0,  0 CYC:10569
C7AB  29 80     AND #$80                        A:00 X:FF Y:00 P:26 SP:FF PPU:  0,  0 CYC:10573
C7AD  F0 F9     BEQ $C7A8                       A:00 X:FF Y:00 P:26 SP:FF PPU:  0,  0 CYC:10575
C7A8  AD 02 20  LDA $2002 = 00                  A:00 X:FF Y:00 P:26 SP:FF PPU:  0,  0 CYC:10578
C7AB  29 80     AND #$80                        A:00 X:FF Y:00 P:26 SP:FF PPU:  0,  0 CYC:10582
C7AD  F0 F9     BEQ $C7A8                       A:00 X:FF Y:00 P:26 SP:FF PPU:  0,  0 CYC:10584
C7A8  AD 02 20  LDA $2002 = 00                  A:00 X:FF Y:00 P:26 SP:FF PPU:  0,  0 CYC:10587
C7AB  29 80     AND #$80                        A:00 X:FF Y:00 P:26 SP:FF PPU:  0,  0 CYC:10591
C7AD  F0 F9     BEQ $C7A8                       A:00 X:FF Y:00 P:26 SP:FF PPU:  0,  0 CYC:10593
C7A8  AD 02 20  LDA $2002 = 00                  A:00 X:FF Y:00 P:26 SP:FF PPU:  0,  0 CYC:10596
C7AB  29 80     AND #$80                        A:00 X:FF Y:00 P:26 SP:FF PPU:  0,  0 CYC:10600
C7AD  F0 F9     BEQ $C7A8                       A:00 X:FF Y:00 P:26 SP:FF PPU:  0,  0 CYC:10602
C7A8  AD 02 20  LDA $2002 = 00                  A:00 X:FF Y:00 P:26 SP:FF PPU:  0,  0 CYC:10605
C7AB  29 80     AND #$80                        A:00 X:FF Y:00 P:26 SP:FF PPU:  0,  0 CYC:10609
C7AD  F0 F9     BEQ $C7A8                       A:00 X:FF Y:00 P:26 SP:FF PPU:  0,  0 CYC:10611
C7A8  AD 02 20  LDA $2002 = 00                  A:00 X:FF Y:00 P:26 SP:FF PPU:  0,  0 CYC:10614
C7AB  29 80     AND #$80                        A:00 X:FF Y:00 P:26 SP:FF PPU:  0,  0 CYC:10618
C7AD  F0 F9     BEQ $C7A8                       A:00 X:FF Y:00 P:26 SP:FF PPU:  0,  0 CYC:10620
C7A8  AD 02 20  LDA $2002 = 00                  A:00 X:FF Y:00 P:26 SP:FF PPU:  0,  0 CYC:10623
C7AB  29 80     AND #$80                        A:00 X:FF Y:00 P:26 SP:FF PPU:  0,  0 CYC:10627
C7AD  F0 F9     BEQ $C7A8                       A:00 X:FF Y:00 P:26 SP:FF PPU:  0,  0 CYC:10629
C7A8  AD 02 20  LDA $2002 = 00                  A:00 X:FF Y:00 P:26 SP:FF PPU:  0,  0 CYC:10632
C7AB  29 80     AND #$80                        A:00 X:FF Y:00 P:26 SP:FF PPU:  0,  0 CYC:10636
C7AD  F0 F9     BEQ $C7A8                       A:00 X:FF Y:00 P:26 SP:FF PPU:  0,  0 CYC:10638
C7A8  AD 02 20  LDA $2002 = 00                  A:00 X:FF Y:00 P:26 SP:FF PPU:  0,  0 CYC:10641
C7AB  29 80     AND #$80                        A:00 X:FF Y:00 P:26 SP:FF PPU:  0,  0 CYC:10645
C7AD  F0 F9     BEQ $C7A8                       A:00 X:FF Y:00 P:26 SP:FF PPU:  0,  0 CYC:10647
C7A8  AD 02 20  LDA $2002 = 00                  A:00 X:FF Y:00 P:26 SP:FF PPU:  0,  0 CYC:10650
C7AB  29 80     AND #$80                        A:00 X:FF Y:00 P:26 SP:FF PPU:  0,  0 CYC:10654
C7AD  F0 F9     BEQ $C7A8                       A:00 X:FF Y:00 P:26 SP:FF PPU:  0,  0 CYC:10656
C7A8  AD 02 20  LDA $2002 = 00                  A:00 X:FF Y:00 P:26 SP:FF PPU:  0,  0 CYC:10659
C7AB  29 80     AND #$80                        A:00 X:FF Y:00 P:26 SP:FF PPU:  0,  0 CYC:10663
C7AD  F0 F9     BEQ $C7A8                       A:00 X:FF Y:00 P:26 SP:FF PPU:  0,  0 CYC:10665
C7A8  AD 02 20  LDA $2002 = 00                  A:00 X:FF Y:00 P:26 SP:FF PPU:  0,  0 CYC:10668
C7AB  29 80     AND #$80                        A:00 X:FF Y:00 P:26 SP:FF PPU:  0,  0 CYC:10672
C7AD  F0 F9     BEQ $C7A8                       A:00 X:FF Y:00 P:26 SP:FF PPU:  0,  0 CYC:10674
C7A8  AD 02 20  LDA $2002 = 00                  A:00 X:FF Y:00 P:26 SP:FF PPU:  0,  0 CYC:10677
C7AB  29 80     AND #$80                        A:00 X:FF Y:00 P:26 SP:FF PPU:  0,  0 CYC:10681
C7AD  F0 F9     BEQ $C7A8                       A:00 X:FF Y:00 P:26 SP:FF PPU:  0,  0 CYC:10683
C7A8  AD 02 20  LDA $2002 = 00                  A:00 X:FF Y:00 P:26 SP:FF PPU:  0,  0 CYC:10686
C7AB  29 80     AND #$80                        A:00 X:FF Y:00 P:26 SP:FF PPU:  0,  0 CYC:10690
C7AD  F0 F9     BEQ $C7A8                       A:00 X:FF Y:00 P:26 SP:FF PPU:  0,  0 CYC:10692
C7A8  AD 02 20  LDA $2002 = 00                  A:00 X:FF Y:00 P:26 SP:FF PPU:  0,  0 CYC:10695
C7AB  29 80     AND #$80                        A:00 X:FF Y:00 P:26 SP:FF PPU:  0,  0 CYC:10699
C7AD  F0 F9     BEQ $C7A8                       A:00 X:FF Y:00 P:26 SP:FF PPU:  0,  0 CYC:10701
C7A8  AD 02 20  LDA $2002 = 00                  A:00 X:FF Y:00 P:26 SP:FF PPU:  0,  0 CYC:10704
C7AB  29 80     AND #$80                        A:00 X:FF Y:00 P:26 SP:FF PPU:  0,  0 CYC:10708
C7AD  F0 F9     BEQ $C7A8                       A:00 X:FF Y:00 P:26 SP:FF PPU:  0,  0 CYC:10710
C7A8  AD 02 20  LDA $2002 = 00                  A:00 X:FF Y:00 P:26 SP:FF PPU:  0,  0 CYC:10713
C7AB  29 80     AND #$80                        A:00 X:FF Y:00 P:26 SP:FF PPU:  0,  0 CYC:10717
C7AD  F0 F9     BEQ $C7A8                       A:00 X:FF Y:00 P:26 SP:FF PPU:  0,  0 CYC:10719
C7A8  AD 02 20  LDA $2002 = 00                  A:00 X:FF Y:00 P:26 SP:FF PPU:  0,  0 CYC:10722
C7AB  29 80     AND #$80                        A:00 X:FF Y:00 P:26 SP:FF PPU:  0,  0 CYC:10726
C7AD  F0 F9     BEQ $C7A8                       A:00 X:FF Y:00 P:26 SP:FF PPU:  0,  0 CYC:10728
C7A8  AD 02 20  LDA $2002 = 00                  A:00 X:FF Y:00 P:26 SP:FF PPU:  0,  0 CYC:10731
C7AB  29 80     AND #$80                        A:00 X:FF Y:00 P:26 SP:FF PPU:  0,  0 CYC:10735
C7AD  F0 F9     BEQ $C7A8                       A:00 X:FF Y:00 P:26 SP:FF PPU:  0,  0 CYC:10737
C7A8  AD 02 20  LDA $2002 = 00                  A:00 X:FF Y:00 P:26 SP:FF PPU:  0,  0 CYC:10740
C7AB  29 80     AND #$80                        A:00 X:FF Y:00 P:26 SP:FF PPU:  0,  0 CYC:10744
C7AD  F0 F9     BEQ $C7A8                       A:00 X:FF Y:00 P:26 SP:FF PPU:  0,  0 CYC:10746
C7A8  AD 02 20  LDA $2002 = 00                  A:00 X:FF Y:00 P:26 SP:FF PPU:  0,  0 CYC:10749
C7AB  29 80     AND #$80                        A:00 X:FF Y:00 P:26 SP:FF PPU:  0,  0 CYC:10753
C7AD  F0 F9     BEQ $C7A8                       A:00 X:FF Y:00 P:26 SP:FF PPU:  0,  0 CYC:10755
C7A8  AD 02 20  LDA $2002 = 00                  A:00 X:FF Y:00 P:26 SP:FF PPU:  0,  0 CYC:10758
C7AB  29 80     AND #$80                        A:00 X:FF Y:00 P:26 SP:FF PPU:  0,  0 CYC:10762
C7AD  F0 F9     BEQ $C7A8                       A:00 X:FF Y:00 P:26 SP:FF PPU:  0,  0 CYC:10764
C7A8  AD 02 20  LDA $2002 = 00                  A:00 X:FF Y:00 P:26 SP:FF PPU:  0,  0 CYC:10767
C7AB  29 80     AND #$80                        A:00 X:FF Y:00 P:26 SP:FF PPU:  0,  0 CYC:10771
C7AD  F0 F9     BEQ $C7A8                       A:00 X:FF Y:00 P:26 SP:FF PPU:  0,  0 CYC:10773
C7A8  AD 02 20  LDA $2002 = 00                  A:00 X:FF Y:00 P:26 SP:FF PPU:  0,  0 CYC:10776
C7AB  29 80     AND #$80                        A:00 X:FF Y:00 P:26 SP:FF PPU:  0,  0 CYC:10780
C7AD  F0 F9     BEQ $C7A8                       A:00 X:FF Y:00 P:26 SP:FF PPU:  0,  0 CYC:10782
C7A8  AD 02 20  LDA $2002 = 00                  A:00 X:FF Y:00 P:26 SP:FF PPU:  0,  0 CYC:10785
C7AB  29 80     AND #$80                        A:00 X:FF Y:00 P:26 SP:FF PPU:  0,  0 CYC:10789
C7AD  F0 F9     BEQ $C7A8                       A:00 X:FF Y:00 P:26 SP:FF PPU:  0,  0 CYC:10791
C7A8  AD 02 20  LDA $2002 = 00                  A:00 X:FF Y:00 P:26 SP:FF PPU:  0,  0 CYC:10794
C7AB  29 80     AND #$80                        A:00 X:FF Y:00 P:26 SP:FF PPU:  0,  0 CYC:10798
C7AD  F0 F9     BEQ $C7A8                       A:00 X:FF Y:00 P:26 SP:FF PPU:  0,  0 CYC:10800
C7A8  AD 02 20  LDA $2002 = 00                  A:00 X:FF Y:00 P:26 SP:FF PPU:  0,  0 CYC:10803
C7AB  29 80     AND #$80                        A:00 X:FF Y:00 P:26 SP:FF PPU:  0,  0 CYC:10807
C7AD  F0 F9     BEQ $C7A8                       A:00 X:FF Y:00 P:26 SP:FF PPU:  0,  0 CYC:10809
C7A8  AD 02 20  LDA $2002 = 00                  A:00 X:FF Y:00 P:26 SP:FF PPU:  0,  0 CYC:10812
C7AB  29 80     AND #$80                        A:00 X:FF Y:00 P:26 SP:FF PPU:  0,  0 CYC:10816
C7AD  F0 F9     BEQ $C7A8                       A:00 X:FF Y:00 P:26 SP:FF PPU:  0,  0 CYC:10818
C7A8  AD 02 20  LDA $2002 = 00                  A:00 X:FF Y:00 P:26 SP:FF PPU:  0,  0 CYC:10821
C7AB  29 80     AND #$80                        A:00 X:FF Y:00 P:26 SP:FF PPU:  0,  0 CYC:10825
C7AD  F0 F9     BEQ $C7A8                       A:00 X:FF Y:00 P:26 SP:FF PPU:  0,  0 CYC:10827
C7A8  AD 02 20  LDA $2002 = 00                  A:00 X:FF Y:00 P:26 SP:FF PPU:  0,  0 CYC:10830
C7AB  29 80     AND #$80                        A:00 X:FF Y:00 P:26 SP:FF PPU:  0,  0 CYC:10834
C7AD  F0 F9     BEQ $C7A8                       A:00 X:FF Y:00 P:26 SP:FF PPU:  0,  0 CYC:10836
C7A8  AD 02 20  LDA $2002 = 00                  A:00 X:FF Y:00 P:26 SP:FF PPU:  0,  0 CYC:10839
C7AB  29 80     AND #$80                        A:00 X:FF Y:00 P:26 SP:FF PPU:  0,  0 CYC:10843
C7AD  F0 F9     BEQ $C7A8                       A:00 X:FF Y:00 P:26 SP:FF PPU:  0,  0 CYC:10845
C7A8  AD 02 20  LDA $2002 = 00                  A:00 X:FF Y:00 P:26 SP:FF PPU:  0,  0 CYC:10848
C7AB  29 80     AND #$80                        A:00 X:FF Y:00 P:26 SP:FF PPU:  0,  0 CYC:10852
C7AD  F0 F9     BEQ $C7A8                       A:00 X:FF Y:00 P:26 SP:FF PPU:  0,  0 CYC:10854
C7A8  AD 02 20  LDA $2002 = 00                  A:00 X:FF Y:00 P:26 SP:FF PPU:  0,  0 CYC:10857
C7AB  29 80     AND #$80                        A:00 X:FF Y:00 P:26 SP:FF PPU:  0,  0 CYC:10861
C7AD  F0 F9     BEQ $C7A8                       A:00 X:FF Y:00 P:26 SP:FF PPU:  0,  0 CYC:10863
C7A8  AD 02 20  LDA $2002 = 00                  A:00 X:FF Y:00 P:26 SP:FF PPU:  0,  0 CYC:10866
C7AB  29 80     AND #$80                        A:00 X:FF Y:00 P:26 SP:FF PPU:  0,  0 CYC:10870
C7AD  F0 F9     BEQ $C7A8                       A:00 X:FF Y:00 P:26 SP:FF PPU:  0,  0 CYC:10872
C7A8  AD 02 20  LDA $2002 = 00                  A:00 X:FF Y:00 P:26 SP:FF PPU:  0,  0 CYC:10875
C7AB  29 80     AND #$80                        A:00 X:FF Y:00 P:26 SP:FF PPU:  0,  0 CYC:10879
C7AD  F0 F9     BEQ $C7A8                       A:00 X:FF Y:00 P:26 SP:FF PPU:  0,  0 CYC:10881
C7A8  AD 02 20  LDA $2002 = 00                  A:00 X:FF Y:00 P:26 SP:FF PPU:  0,  0 CYC:10884
C7AB  29 80     AND #$80                        A:00 X:FF Y:00 P:26 SP:FF PPU:  0,  0 CYC:10888
C7AD  F0 F9     BEQ $C7A8                       A:00 X:FF Y:00 P:26 SP:FF PPU:  0,  0 CYC:10890
C7A8  AD 02 20  LDA $2002 = 00                  A:00 X:FF Y:00 P:26 SP:FF PPU:  0,  0 CYC:10893
C7AB  29 80     AND #$80                        A:00 X:FF Y:00 P:26 SP:FF PPU:  0,  0 CYC:10897
C7AD  F0 F9     BEQ $C7A8                       A:00 X:FF Y:00 P:26 SP:FF PPU:  0,  0 CYC:10899
C7A8  AD 02 20  LDA $2002 = 00                  A:00 X:FF Y:00 P:26 SP:FF PPU:  0,  0 CYC:10902
C7AB  29 80     AND #$80                        A:00 X:FF Y:00 P:26 SP:FF PPU:  0,  0 CYC:10906
C7AD  F0 F9     BEQ $C7A8                       A:00 X:FF Y:00 P:26 SP:FF PPU:  0,  0 CYC:10908
C7A8  AD 02 20  LDA $2002 = 00                  A:00 X:FF Y:00 P:26 SP:FF PPU:  0,  0 CYC:10911
C7AB  29 80     AND #$80                        A:00 X:FF Y:00 P:26 SP:FF PPU:  0,  0 CYC:10915
C7AD  F0 F9     BEQ $C7A8                       A:00 X:FF Y:00 P:26 SP:FF PPU:  0,  0 CYC:10917
C7A8  AD 02 20  LDA $2002 = 00                  A:00 X:FF Y:00 P:26 SP:FF PPU:  0,  0 CYC:10920
C7AB  29 80     AND #$80                        A:00 X:FF Y:00 P:26 SP:FF PPU:  0,  0 CYC:10924
C7AD  F0 F9     BEQ $C7A8                       A:00 X:FF Y:00 P:26 SP:FF PPU:  0,  0 CYC:10926
C7A8  AD 02 20  LDA $2002 = 00                  A:00 X:FF Y:00 P:26 SP:FF PPU:  0,  0 CYC:10929
C7AB  29 80     AND #$80                        A:00 X:FF Y:00 P:26 SP:FF PPU:  0,  0 CYC:10933
C7AD  F0 F9     BEQ $C7A8                       A:00 X:FF Y:00 P:26 SP:FF PPU:  0,  0 CYC:10935
C7A8  AD 02 20  LDA $2002 = 00                  A:00 X:FF Y:00 P:26 SP:FF PPU:  0,  0 CYC:10938
C7AB  29 80     AND #$80                        A:00 X:FF Y:00 P:26 SP:FF PPU:  0,  0 CYC:10942
C7AD  F0 F9     BEQ $C7A8                       A:00 X:FF Y:00 P:26 SP:FF PPU:  0,  0 CYC:10944
C7A8  AD 02 20  LDA $2002 = 00                  A:00 X:FF Y:00 P:26 SP:FF PPU:  0,  0 CYC:10947
C7AB  29 80     AND #$80                        A:00 X:FF Y:00 P:26 SP:FF PPU:  0,  0 CYC:10951
C7AD  F0 F9     BEQ $C7A8                       A:00 X:FF Y:00 P:26 SP:FF PPU:  0,  0 CYC:10953
C7A8  AD 02 20  LDA $2002 = 00                  A:00 X:FF Y:00 P:26 SP:FF PPU:  0,  0 CYC:10956
C7AB  29 80     AND #$80                        A:00 X:FF Y:00 P:26 SP:FF PPU:  0,  0 CYC:10960
C7AD  F0 F9     BEQ $C7A8                       A:00 X:FF Y:00 P:26 SP:FF PPU:  0,  0 CYC:10962
C7A8  AD 02 20  LDA $2002 = 00                  A:00 X:FF Y:00 P:26 SP:FF PPU:  0,  0 CYC:10965
C7AB  29 80     AND #$80                        A:00 X:FF Y:00 P:26 SP:FF PPU:  0,  0 CYC:10969
C7AD  F0 F9     BEQ $C7A8                       A:00 X:FF Y:00 P:26 SP:FF PPU:  0,  0 CYC:10971
C7A8  AD 02 20  LDA $2002 = 00                  A:00 X:FF Y:00 P:26 SP:FF PPU:  0,  0 CYC:10974
C7AB  29 80     AND #$80                        A:00 X:FF Y:00 P:26 SP:FF PPU:  0,  0 CYC:10978
C7AD  F0 F9     BEQ $C7A8                       A:00 X:FF Y:00 P:26 SP:FF PPU:  0,  0 CYC:10980
C7A8  AD 02 20  LDA $2002 = 00                  A:00 X:FF Y:00 P:26 SP:FF PPU:  0,  0 CYC:10983
C7AB  29 80     AND #$80                        A:00 X:FF Y:00 P:26 SP:FF PPU:  0,  0 CYC:10987
C7AD  F0 F9     BEQ $C7A8                       A:00 X:FF Y:00 P:26 SP:FF PPU:  0,  0 CYC:10989
C7A8  AD 02 20  LDA $2002 = 00                  A:00 X:FF Y:00 P:26 SP:FF PPU:  0,  0 CYC:10992
C7AB  29 80     AND #$80                        A:00 X:FF Y:00 P:26 SP:FF PPU:  0,  0 CYC:10996
C7AD  F0 F9     BEQ $C7A8                       A:00 X:FF Y:00 P:26 SP:FF PPU:  0,  0 CYC:10998
C7A8  AD 02 20  LDA $2002 = 00                  A:00 X:FF Y:00 P:26 SP:FF PPU:  0,  0 CYC:11001
C7AB  29 80     AND #$80                        A:00 X:FF Y:00 P:26 SP:FF PPU:  0,  0 CYC:11005
C7AD  F0 F9     BEQ $C7A8                       A:00 X:FF Y:00 P:26 SP:FF PPU:  0,  0 CYC:11007
C7A8  AD 02 20  LDA $2002 = 00                  A:00 X:FF Y:00 P:26 SP:FF PPU:  0,  0 CYC:11010
C7AB  29 80     AND #$80                        A:00 X:FF Y:00 P:26 SP:FF PPU:  0,  0 CYC:11014
C7AD  F0 F9     BEQ $C7A8                       A:00 X:FF Y:00 P:26 SP:FF PPU:  0,  0 CYC:11016
C7A8  AD 02 20  LDA $2002 = 00                  A:00 X:FF Y:00 P:26 SP:FF PPU:  0,  0 CYC:11019
C7AB  29 80     AND #$80                        A:00 X:FF Y:00 P:26 SP:FF PPU:  0,  0 CYC:11023
C7AD  F0 F9     BEQ $C7A8                       A:00 X:FF Y:00 P:26 SP:FF PPU:  0,  0 CYC:11025
C7A8  AD 02 20  LDA $2002 = 00                  A:00 X:FF Y:00 P:26 SP:FF PPU:  0,  0 CYC:11028
C7AB  29 80     AND #$80                        A:00 X:FF Y:00 P:26 SP:FF PPU:  0,  0 CYC:11032
C7AD  F0 F9     BEQ $C7A8                       A:00 X:FF Y:00 P:26 SP:FF PPU:  0,  0 CYC:11034
C7A8  AD 02 20  LDA $2002 = 00                  A:00 X:FF Y:00 P:26 SP:FF PPU:  0,  0 CYC:11037
C7AB  29 80     AND #$80                        A:00 X:FF Y:00 P:26 SP:FF PPU:  0,  0 CYC:11041
C7AD  F0 F9     BEQ $C7A8                       A:00 X:FF Y:00 P:26 SP:FF PPU:  0,  0 CYC:11043
C7A8  AD 02 20  LDA $2002 = 00                  A:00 X:FF Y:00 P:26 SP:FF PPU:  0,  0 CYC:11046
C7AB  29 80     AND #$80                        A:00 X:FF Y:00 P:26 SP:FF PPU:  0,  0 CYC:11050
C7AD  F0 F9     BEQ $C7A8                       A:00 X:FF Y:00 P:26 SP:FF PPU:  0,  0 CYC:11052
C7A8  AD 02 20  LDA $2002 = 00                  A:00 X:FF Y:00 P:26 SP:FF PPU:  0,  0 CYC:11055
C7AB  29 80     AND #$80                        A:00 X:FF Y:00 P:26 SP:FF PPU:  0,  0 CYC:11059
C7AD  F0 F9     BEQ $C7A8                       A:00 X:FF Y:00 P:26 SP:FF PPU:  0,  0 CYC:11061
C7A8  AD 02 20  LDA $2002 = 00                  A:00 X:FF Y:00 P:26 SP:FF PPU:  0,  0 CYC:11064
C7AB  29 80     AND #$80                        A:00 X:FF Y:00 P:26 SP:FF PPU:  0,  0 CYC:11068
C7AD  F0 F9     BEQ $C7A8                       A:00 X:FF Y:00 P:26 SP:FF PPU:  0,  0 CYC:11070
C7A8  AD 02 20  LDA $2002 = 00                  A:00 X:FF Y:00 P:26 SP:FF PPU:  0,  0 CYC:11073
C7AB  29 80     AND #$80                        A:00 X:FF Y:00 P:26 SP:FF PPU:  0,  0 CYC:11077
C7AD  F0 F9     BEQ $C7A8                       A:00 X:FF Y:00 P:26 SP:FF PPU:  0,  0 CYC:11079
C7A8  AD 02 20  LDA $2002 = 00                  A:00 X:FF Y:00 P:26 SP:FF PPU:  0,  0 CYC:11082
C7AB  29 80     AND #$80                        A:00 X:FF Y:00 P:26 SP:FF PPU:  0,  0 CYC:11086
C7AD  F0 F9     BEQ $C7A8                       A:00 X:FF Y:00 P:26 SP:FF PPU:  0,  0 CYC:11088
C7A8  AD 02 20  LDA $2002 = 00                  A:00 X:FF Y:00 P:26 SP:FF PPU:  0,  0 CYC:11091
C7AB  29 80     AND #$80                        A:00 X:FF Y:00 P:26 SP:FF PPU:  0,  0 CYC:11095
C7AD  F0 F9     BEQ $C7A8                       A:00 X:FF Y:00 P:26 SP:FF PPU:  0,  0 CYC:11097
C7A8  AD 02 20  LDA $2002 = 00                  A:00 X:FF Y:00 P:26 SP:FF PPU:  0,  0 CYC:11100
C7AB  29 80     AND #$80                        A:00 X:FF Y:00 P:26 SP:FF PPU:  0,  0 CYC:11104
C7AD  F0 F9     BEQ $C7A8                       A:00 X:FF Y:00 P:26 SP:FF PPU:  0,  0 CYC:11106
C7A8  AD 02 20  LDA $2002 = 00                  A:00 X:FF Y:00 P:26 SP:FF PPU:  0,  0 CYC:11109
C7AB  29 80     AND #$80                        A:00 X:FF Y:00 P:26 SP:FF PPU:  0,  0 CYC:11113
C7AD  F0 F9     BEQ $C7A8                       A:00 X:FF Y:00 P:26 SP:FF PPU:  0,  0 CYC:11115
C7A8  AD 02 20  LDA $2002 = 00                  A:00 X:FF Y:00 P:26 SP:FF PPU:  0,  0 CYC:11118
C7AB  29 80     AND #$80                        A:00 X:FF Y:00 P:26 SP:FF PPU:  0,  0 CYC:11122
C7AD  F0 F9     BEQ $C7A8                       A:00 X:FF Y:00 P:26 SP:FF PPU:  0,  0 CYC:11124
C7A8  AD 02 20  LDA $2002 = 00                  A:00 X:FF Y:00 P:26 SP:FF PPU:  0,  0 CYC:11127
C7AB  29 80     AND #$80                        A:00 X:FF Y:00 P:26 SP:FF PPU:  0,  0 CYC:11131
C7AD  F0 F9     BEQ $C7A8                       A:00 X:FF Y:00 P:26 SP:FF PPU:  0,  0 CYC:11133
C7A8  AD 02 20  LDA $2002 = 00                  A:00 X:FF Y:00 P:26 SP:FF PPU:  0,  0 CYC:11136
C7AB  29 80     AND #$80                        A:00 X:FF Y:00 P:26 SP:FF PPU:  0,  0 CYC:11140
C7AD  F0 F9     BEQ $C7A8                       A:00 X:FF Y:00 P:26 SP:FF PPU:  0,  0 CYC:11142
C7A8  AD 02 20  LDA $2002 = 00                  A:00 X:FF Y:00 P:26 SP:FF PPU:  0,  0 CYC:11145
C7AB  29 80     AND #$80                        A:00 X:FF Y:00 P:26 SP:FF PPU:  0,  0 CYC:11149
C7AD  F0 F9     BEQ $C7A8                       A:00 X:FF Y:00 P:26 SP:FF PPU:  0,  0 CYC:11151
C7A8  AD 02 20  LDA $2002 = 00                  A:00 X:FF Y:00 P:26 SP:FF PPU:  0,  0 CYC:11154
C7AB  29 80     AND #$80                        A:00 X:FF Y:00 P:26 SP:FF PPU:  0,  0 CYC:11158
C7AD  F0 F9     BEQ $C7A8                       A:00 X:FF Y:00 P:26 SP:FF PPU:  0,  0 CYC:11160
C7A8  AD 02 20  LDA $2002 = 00                  A:00 X:FF Y:00 P:26 SP:FF PPU:  0,  0 CYC:11163
C7AB  29 80     AND #$80                        A:00 X:FF Y:00 P:26 SP:FF PPU:  0,  0 CYC:11167
C7AD  F0 F9     BEQ $C7A8                       A:00 X:FF Y:00 P:26 SP:FF PPU:  0,  0 CYC:11169
C7A8  AD 02 20  LDA $2002 = 00                  A:00 X:FF Y:00 P:26 SP:FF PPU:  0,  0 CYC:11172
C7AB  29 80     AND #$80                        A:00 X:FF Y:00 P:26 SP:FF PPU:  0,  0 CYC:11176
C7AD  F0 F9     BEQ $C7A8                       A:00 X:FF Y:00 P:26 SP:FF PPU:  0,  0 CYC:11178
C7A8  AD 02 20  LDA $2002 = 00                  A:00 X:FF Y:00 P:26 SP:FF PPU:  0,  0 CYC:11181
C7AB  29 80     AND #$80                        A:00 X:FF Y:00 P:26 SP:FF PPU:  0,  0 CYC:11185
C7AD  F0 F9     BEQ $C7A8                       A:00 X:FF Y:00 P:26 SP:FF PPU:  0,  0 CYC:11187
C7A8  AD 02 20  LDA $2002 = 00                  A:00 X:FF Y:00 P:26 SP:FF PPU:  0,  0 CYC:11190
C7AB  29 80     AND #$80                        A:00 X:FF Y:00 P:26 SP:FF PPU:  0,  0 CYC:11194
C7AD  F0 F9     BEQ $C7A8                       A:00 X:FF Y:00 P:26 SP:FF PPU:  0,  0 CYC:11196
C7A8  AD 02 20  LDA $2002 = 00                  A:00 X:FF Y:00 P:26 SP:FF PPU:  0,  0 CYC:11199
C7AB  29 80     AND #$80                        A:00 X:FF Y:00 P:26 SP:FF PPU:  0,  0 CYC:11203
C7AD  F0 F9     BEQ $C7A8                       A:00 X:FF Y:00 P:26 SP:FF PPU:  0,  0 CYC:11205
C7A8  AD 02 20  LDA $2002 = 00                  A:00 X:FF Y:00 P:26 SP:FF PPU:  0,  0 CYC:11208
C7AB  29 80     AND #$80                        A:00 X:FF Y:00 P:26 SP:FF PPU:  0,  0 CYC:11212
C7AD  F0 F9     BEQ $C7A8                       A:00 X:FF Y:00 P:26 SP:FF PPU:  0,  0 CYC:11214
C7A8  AD 02 20  LDA $2002 = 00                  A:00 X:FF Y:00 P:26 SP:FF PPU:  0,  0 CYC:11217
C7AB  29 80     AND #$80                        A:00 X:FF Y:00 P:26 SP:FF PPU:  0,  0 CYC:11221
C7AD  F0 F9     BEQ $C7A8                       A:00 X:FF Y:00 P:26 SP:FF PPU:  0,  0 CYC:11223
C7A8  AD 02 20  LDA $2002 = 00                  A:00 X:FF Y:00 P:26 SP:FF PPU:  0,  0 CYC:11226
C7AB  29 80     AND #$80                        A:00 X:FF Y:00 P:26 SP:FF PPU:  0,  0 CYC:11230
C7AD  F0 F9     BEQ $C7A8                       A:00 X:FF Y:00 P:26 SP:FF PPU:  0,  0 CYC:11232
C7A8  AD 02 20  LDA $2002 = 00                  A:00 X:FF Y:00 P:26 SP:FF PPU:  0,  0 CYC:11235
C7AB  29 80     AND #$80                        A:00 X:FF Y:00 P:26 SP:FF PPU:  0,  0 CYC:11239
C7AD  F0 F9     BEQ $C7A8                       A:00 X:FF Y:00 P:26 SP:FF PPU:  0,  0 CYC:11241
C7A8  AD 02 20  LDA $2002 = 00                  A:00 X:FF Y:00 P:26 SP:FF PPU:  0,  0 CYC:11244
C7AB  29 80     AND #$80                        A:00 X:FF Y:00 P:26 SP:FF PPU:  0,  0 CYC:11248
C7AD  F0 F9     BEQ $C7A8                       A:00 X:FF Y:00 P:26 SP:FF PPU:  0,  0 CYC:11250
C7A8  AD 02 20  LDA $2002 = 00                  A:00 X:FF Y:00 P:26 SP:FF PPU:  0,  0 CYC:11253
C7AB  29 80     AND #$80                        A:00 X:FF Y:00 P:26 SP:FF PPU:  0,  0 CYC:11257
C7AD  F0 F9     BEQ $C7A8                       A:00 X:FF Y:00 P:26 SP:FF PPU:  0,  0 CYC:11259
C7A8  AD 02 20  LDA $2002 = 00                  A:00 X:FF Y:00 P:26 SP:FF PPU:  0,  0 CYC:11262
C7AB  29 80     AND #$80                        A:00 X:FF Y:00 P:26 SP:FF PPU:  0,  0 CYC:11266
C7AD  F0 F9     BEQ $C7A8                       A:00 X:FF Y:00 P:26 SP:FF PPU:  0,  0 CYC:11268
C7A8  AD 02 20  LDA $2002 = 00                  A:00 X:FF Y:00 P:26 SP:FF PPU:  0,  0 CYC:11271
C7AB  29 80     AND #$80                        A:00 X:FF Y:00 P:26 SP:FF PPU:  0,  0 CYC:11275
C7AD  F0 F9     BEQ $C7A8                       A:00 X:FF Y:00 P:26 SP:FF PPU:  0,  0 CYC:11277
C7A8  AD 02 20  LDA $2002 = 00                  A:00 X:FF Y:00 P:26 SP:FF PPU:  0,  0 CYC:11280
C7AB  29 80     AND #$80                        A:00 X:FF Y:00 P:26 SP:FF PPU:  0,  0 CYC:11284
C7AD  F0 F9     BEQ $C7A8                       A:00 X:FF Y:00 P:26 SP:FF PPU:  0,  0 CYC:11286
C7A8  AD 02 20  LDA $2002 = 00                  A:00 X:FF Y:00 P:26 SP:FF PPU:  0,  0 CYC:11289
C7AB  29 80     AND #$80                        A:00 X:FF Y:00 P:26 SP:FF PPU:  0,  0 CYC:11293
C7AD  F0 F9     BEQ $C7A8                       A:00 X:FF Y:00 P:26 SP:FF PPU:  0,  0 CYC:11295
C7A8  AD 02 20  LDA $2002 = 00                  A:00 X:FF Y:00 P:26 SP:FF PPU:  0,  0 CYC:11298
C7AB  29 80     AND #$80                        A:00 X:FF Y:00 P:26 SP:FF PPU:  0,  0 CYC:11302
C7AD  F0 F9     BEQ $C7A8                       A:00 X:FF Y:00 P:26 SP:FF PPU:  0,  0 CYC:11304
C7A8  AD 02 20  LDA $2002 = 00                  A:00 X:FF Y:00 P:26 SP:FF PPU:  0,  0 CYC:11307
C7AB  29 80     AND #$80                        A:00 X:FF Y:00 P:26 SP:FF PPU:  0,  0 CYC:11311
C7AD  F0 F9     BEQ $C7A8                       A:00 X:FF Y:00 P:26 SP:FF PPU:  0,  0 CYC:11313
C7A8  AD 02 20  LDA $2002 = 00                  A:00 X:FF Y:00 P:26 SP:FF PPU:  0,  0 CYC:11316
C7AB  29 80     AND #$80                        A:00 X:FF Y:00 P:26 SP:FF PPU:  0,  0 CYC:11320
C7AD  F0 F9     BEQ $C7A8                       A:00 X:FF Y:00 P:26 SP:FF PPU:  0,  0 CYC:11322
C7A8  AD 02 20  LDA $2002 = 00                  A:00 X:FF Y:00 P:26 SP:FF PPU:  0,  0 CYC:11325
C7AB  29 80     AND #$80                        A:00 X:FF Y:00 P:26 SP:FF PPU:  0,  0 CYC:11329
C7AD  F0 F9     BEQ $C7A8                       A:00 X:FF Y:00 P:26 SP:FF PPU:  0,  0 CYC:11331
C7A8  AD 02 20  LDA $2002 = 00                  A:00 X:FF Y:00 P:26 SP:FF PPU:  0,  0 CYC:11334
C7AB  29 80     AND #$80                        A:00 X:FF Y:00 P:26 SP:FF PPU:  0,  0 CYC:11338
C7AD  F0 F9     BEQ $C7A8                       A:00 X:FF Y:00 P:26 SP:FF PPU:  0,  0 CYC:11340
C7A8  AD 02 20  LDA $2002 = 00                  A:00 X:FF Y:00 P:26 SP:FF PPU:  0,  0 CYC:11343
C7AB  29 80     AND #$80                        A:00 X:FF Y:00 P:26 SP:FF PPU:  0,  0 CYC:11347
C7AD  F0 F9     BEQ $C7A8                       A:00 X:FF Y:00 P:26 SP:FF PPU:  0,  0 CYC:11349
C7A8  AD 02 20  LDA $2002 = 00                  A:00 X:FF Y:00 P:26 SP:FF PPU:  0,  0 CYC:11352
C7AB  29 80     AND #$80                        A:00 X:FF Y:00 P:26 SP:FF PPU:  0,  0 CYC:11356
C7AD  F0 F9     BEQ $C7A8                       A:00 X:FF Y:00 P:26 SP:FF PPU:  0,  0 CYC:11358
C7A8  AD 02 20  LDA $2002 = 00                  A:00 X:FF Y:00 P:26 SP:FF PPU:  0,  0 CYC:11361
C7AB  29 80     AND #$80                        A:00 X:FF Y:00 P:26 SP:FF PPU:  0,  0 CYC:11365
C7AD  F0 F9     BEQ $C7A8                       A:00 X:FF Y:00 P:26 SP:FF PPU:  0,  0 CYC:11367
C7A8  AD 02 20  LDA $2002 = 00                  A:00 X:FF Y:00 P:26 SP:FF PPU:  0,  0 CYC:11370
C7AB  29 80     AND #$80                        A:00 X:FF Y:00 P:26 SP:FF PPU:  0,  0 CYC:11374
C7AD  F0 F9     BEQ $C7A8                       A:00 X:FF Y:00 P:26 SP:FF PPU:  0,  0 CYC:11376
C7A8  AD 02 20  LDA $2002 = 00                  A:00 X:FF Y:00 P:26 SP:FF PPU:  0,  0 CYC:11379
C7AB  29 80     AND #$80                        A:00 X:FF Y:00 P:26 SP:FF PPU:  0,  0 CYC:11383
C7AD  F0 F9     BEQ $C7A8                       A:00 X:FF Y:00 P:26 SP:FF PPU:  0,  0 CYC:11385
C7A8  AD 02 20  LDA $2002 = 00                  A:00 X:FF Y:00 P:26 SP:FF PPU:  0,  0 CYC:11388
C7AB  29 80     AND #$80                        A:00 X:FF Y:00 P:26 SP:FF PPU:  0,  0 CYC:11392
C7AD  F0 F9     BEQ $C7A8                       A:00 X:FF Y:00 P:26 SP:FF PPU:  0,  0 CYC:11394
C7A8  AD 02 20  LDA $2002 = 00                  A:00 X:FF Y:00 P:26 SP:FF PPU:  0,  0 CYC:11397
C7AB  29 80     AND #$80                        A:00 X:FF Y:00 P:26 SP:FF PPU:  0,  0 CYC:11401
C7AD  F0 F9     BEQ $C7A8                       A:00 X:FF Y:00 P:26 SP:FF PPU:  0,  0 CYC:11403
C7A8  AD 02 20  LDA $2002 = 00                  A:00 X:FF Y:00 P:26 SP:FF PPU:  0,  0 CYC:11406
C7AB  29 80     AND #$80                        A:00 X:FF Y:00 P:26 SP:FF PPU:  0,  0 CYC:11410
C7AD  F0 F9     BEQ $C7A8                       A:00 X:FF Y:00 P:26 SP:FF PPU:  0,  0 CYC:11412
C7A8  AD 02 20  LDA $2002 = 00                  A:00 X:FF Y:00 P:26 SP:FF PPU:  0,  0 CYC:11415
C7AB  29 80     AND #$80                        A:00 X:FF Y:00 P:26 SP:FF PPU:  0,  0 CYC:11419
C7AD  F0 F9     BEQ $C7A8                       A:00 X:FF Y:00 P:26 SP:FF PPU:  0,  0 CYC:11421
C7A8  AD 02 20  LDA $2002 = 00                  A:00 X:FF Y:00 P:26 SP:FF PPU:  0,  0 CYC:11424
C7AB  29 80     AND #$80                        A:00 X:FF Y:00 P:26 SP:FF PPU:  0,  0 CYC:11428
C7AD  F0 F9     BEQ $C7A8                       A:00 X:FF Y:00 P:26 SP:FF PPU:  0,  0 CYC:11430
C7A8  AD 02 20  LDA $2002 = 00                  A:00 X:FF Y:00 P:26 SP:FF PPU:  0,  0 CYC:11433
C7AB  29 80     AND #$80                        A:00 X:FF Y:00 P:26 SP:FF PPU:  0,  0 CYC:11437
C7AD  F0 F9     BEQ $C7A8                       A:00 X:FF Y:00 P:26 SP:FF PPU:  0,  0 CYC:11439
C7A8  AD 02 20  LDA $2002 = 00                  A:00 X:FF Y:00 P:26 SP:FF PPU:  0,  0 CYC:11442
C7AB  29 80     AND #$80                        A:00 X:FF Y:00 P:26 SP:FF PPU:  0,  0 CYC:11446
C7AD  F0 F9     BEQ $C7A8                       A:00 X:FF Y:00 P:26 SP:FF PPU:  0,  0 CYC:11448
C7A8  AD 02 20  LDA $2002 = 00                  A:00 X:FF Y:00 P:26 SP:FF PPU:  0,  0 CYC:11451
C7AB  29 80     AND #$80                        A:00 X:FF Y:00 P:26 SP:FF PPU:  0,  0 CYC:11455
C7AD  F0 F9     BEQ $C7A8                       A:00 X:FF Y:00 P:26 SP:FF PPU:  0,  0 CYC:11457
C7A8  AD 02 20  LDA $2002 = 00                  A:00 X:FF Y:00 P:26 SP:FF PPU:  0,  0 CYC:11460
C7AB  29 80     AND #$80                        A:00 X:FF Y:00 P:26 SP:FF PPU:  0,  0 CYC:11464
C7AD  F0 F9     BEQ $C7A8                       A:00 X:FF Y:00 P:26 SP:FF PPU:  0,  0 CYC:11466
C7A8  AD 02 20  LDA $2002 = 00                  A:00 X:FF Y:00 P:26 SP:FF PPU:  0,  0 CYC:11469
C7AB  29 80     AND #$80                        A:00 X:FF Y:00 P:26 SP:FF PPU:  0,  0 CYC:11473
C7AD  F0 F9     BEQ $C7A8                       A:00 X:FF Y:00 P:26 SP:FF PPU:  0,  0 CYC:11475
C7A8  AD 02 20  LDA $2002 = 00                  A:00 X:FF Y:00 P:26 SP:FF PPU:  0,  0 CYC:11478
C7AB  29 80     AND #$80                        A:00 X:FF Y:00 P:26 SP:FF PPU:  0,  0 CYC:11482
C7AD  F0 F9     BEQ $C7A8                       A:00 X:FF Y:00 P:26 SP:FF PPU:  0,  0 CYC:11484
C7A8  AD 02 20  LDA $2002 = 00                  A:00 X:FF Y:00 P:26 SP:FF PPU:  0,  0 CYC:11487
C7AB  29 80     AND #$80                        A:00 X:FF Y:00 P:26 SP:FF PPU:  0,  0 CYC:11491
C7AD  F0 F9     BEQ $C7A8                       A:00 X:FF Y:00 P:26 SP:FF PPU:  0,  0 CYC:11493
C7A8  AD 02 20  LDA $2002 = 00                  A:00 X:FF Y:00 P:26 SP:FF PPU:  0,  0 CYC:11496
C7AB  29 80     AND #$80                        A:00 X:FF Y:00 P:26 SP:FF PPU:  0,  0 CYC:11500
C7AD  F0 F9     BEQ $C7A8                       A:00 X:FF Y:00 P:26 SP:FF PPU:  0,  0 CYC:11502
C7A8  AD 02 20  LDA $2002 = 00                  A:00 X:FF Y:00 P:26 SP:FF PPU:  0,  0 CYC:11505
C7AB  29 80     AND #$80                        A:00 X:FF Y:00 P:26 SP:FF PPU:  0,  0 CYC:11509
C7AD  F0 F9     BEQ $C7A8                       A:00 X:FF Y:00 P:26 SP:FF PPU:  0,  0 CYC:11511
C7A8  AD 02 20  LDA $2002 = 00                  A:00 X:FF Y:00 P:26 SP:FF PPU:  0,  0 CYC:11514
C7AB  29 80     AND #$80                        A:00 X:FF Y:00 P:26 SP:FF PPU:  0,  0 CYC:11518
C7AD  F0 F9     BEQ $C7A8                       A:00 X:FF Y:00 P:26 SP:FF PPU:  0,  0 CYC:11520
C7A8  AD 02 20  LDA $2002 = 00                  A:00 X:FF Y:00 P:26 SP:FF PPU:  0,  0 CYC:11523
C7AB  29 80     AND #$80                        A:00 X:FF Y:00 P:26 SP:FF PPU:  0,  0 CYC:11527
C7AD  F0 F9     BEQ $C7A8                       A:00 X:FF Y:00 P:26 SP:FF PPU:  0,  0 CYC:11529
C7A8  AD 02 20  LDA $2002 = 00                  A:00 X:FF Y:00 P:26 SP:FF PPU:  0,  0 CYC:11532
C7AB  29 80     AND #$80                        A:00 X:FF Y:00 P:26 SP:FF PPU:  0,  0 CYC:11536
C7AD  F0 F9     BEQ $C7A8                       A:00 X:FF Y:00 P:26 SP:FF PPU:  0,  0 CYC:11538
C7A8  AD 02 20  LDA $2002 = 00                  A:00 X:FF Y:00 P:26 SP:FF PPU:  0,  0 CYC:11541
C7AB  29 80     AND #$80                        A:00 X:FF Y:00 P:26 SP:FF PPU:  0,  0 CYC:11545
C7AD  F0 F9     BEQ $C7A8                       A:00 X:FF Y:00 P:26 SP:FF PPU:  0,  0 CYC:11547
C7A8  AD 02 20  LDA $2002 = 00                  A:00 X:FF Y:00 P:26 SP:FF PPU:  0,  0 CYC:11550
C7AB  29 80     AND #$80                        A:00 X:FF Y:00 P:26 SP:FF PPU:  0,  0 CYC:11554
C7AD  F0 F9     BEQ $C7A8                       A:00 X:FF Y:00 P:26 SP:FF PPU:  0,  0 CYC:11556
C7A8  AD 02 20  LDA $2002 = 00                  A:00 X:FF Y:00 P:26 SP:FF PPU:  0,  0 CYC:11559
C7AB  29 80     AND #$80                        A:00 X:FF Y:00 P:26 SP:FF PPU:  0,  0 CYC:11563
C7AD  F0 F9     BEQ $C7A8                       A:00 X:FF Y:00 P:26 SP:FF PPU:  0,  0 CYC:11565
C7A8  AD 02 20  LDA $2002 = 00                  A:00 X:FF Y:00 P:26 SP:FF PPU:  0,  0 CYC:11568
C7AB  29 80     AND #$80                        A:00 X:FF Y:00 P:26 SP:FF PPU:  0,  0 CYC:11572
C7AD  F0 F9     BEQ $C7A8                       A:00 X:FF Y:00 P:26 SP:FF PPU:  0,  0 CYC:11574
C7A8  AD 02 20  LDA $2002 = 00                  A:00 X:FF Y:00 P:26 SP:FF PPU:  0,  0 CYC:11577
C7AB  29 80     AND #$80                        A:00 X:FF Y:00 P:26 SP:FF PPU:  0,  0 CYC:11581
C7AD  F0 F9     BEQ $C7A8                       A:00 X:FF Y:00 P:26 SP:FF PPU:  0,  0 CYC:11583
C7A8  AD 02 20  LDA $2002 = 00                  A:00 X:FF Y:00 P:26 SP:FF PPU:  0,  0 CYC:11586
C7AB  29 80     AND #$80                        A:00 X:FF Y:00 P:26 SP:FF PPU:  0,  0 CYC:11590
C7AD  F0 F9     BEQ $C7A8                       A:00 X:FF Y:00 P:26 SP:FF PPU:  0,  0 CYC:11592
C7A8  AD 02 20  LDA $2002 = 00                  A:00 X:FF Y:00 P:26 SP:FF PPU:  0,  0 CYC:11595
C7AB  29 80     AND #$80                        A:00 X:FF Y:00 P:26 SP:FF PPU:  0,  0 CYC:11599
C7AD  F0 F9     BEQ $C7A8                       A:00 X:FF Y:00 P:26 SP:FF PPU:  0,  0 CYC:11601
C7A8  AD 02 20  LDA $2002 = 00                  A:00 X:FF Y:00 P:26 SP:FF PPU:  0,  0 CYC:11604
C7AB  29 80     AND #$80                        A:00 X:FF Y:00 P:26 SP:FF PPU:  0,  0 CYC:11608
C7AD  F0 F9     BEQ $C7A8                       A:00 X:FF Y:00 P:26 SP:FF PPU:  0,  0 CYC:11610
C7A8  AD 02 20  LDA $2002 = 00                  A:00 X:FF Y:00 P:26 SP:FF PPU:  0,  0 CYC:11613
C7AB  29 80     AND #$80                        A:00 X:FF Y:00 P:26 SP:FF PPU:  0,  0 CYC:11617
C7AD  F0 F9     BEQ $C7A8                       A:00 X:FF Y:00 P:26 SP:FF PPU:  0,  0 CYC:11619
C7A8  AD 02 20  LDA $2002 = 00                  A:00 X:FF Y:00 P:26 SP:FF PPU:  0,  0 CYC:11622
C7AB  29 80     AND #$80                        A:00 X:FF Y:00 P:26 SP:FF PPU:  0,  0 CYC:11626
C7AD  F0 F9     BEQ $C7A8                       A:00 X:FF Y:00 P:26 SP:FF PPU:  0,  0 CYC:11628
C7A8  AD 02 20  LDA $2002 = 00                  A:00 X:FF Y:00 P:26 SP:FF PPU:  0,  0 CYC:11631
C7AB  29 80     AND #$80                        A:00 X:FF Y:00 P:26 SP:FF PPU:  0,  0 CYC:11635
C7AD  F0 F9     BEQ $C7A8                       A:00 X:FF Y:00 P:26 SP:FF PPU:  0,  0 CYC:11637
C7A8  AD 02 20  LDA $2002 = 00                  A:00 X:FF Y:00 P:26 SP:FF PPU:  0,  0 CYC:11640
C7AB  29 80     AND #$80                        A:00 X:FF Y:00 P:26 SP:FF PPU:  0,  0 CYC:11644
C7AD  F0 F9     BEQ $C7A8                       A:00 X:FF Y:00 P:26 SP:FF PPU:  0,  0 CYC:11646
C7A8  AD 02 20  LDA $2002 = 00                  A:00 X:FF Y:00 P:26 SP:FF PPU:  0,  0 CYC:11649
C7AB  29 80     AND #$80                        A:00 X:FF Y:00 P:26 SP:FF PPU:  0,  0 CYC:11653
C7AD  F0 F9     BEQ $C7A8                       A:00 X:FF Y:00 P:26 SP:FF PPU:  0,  0 CYC:11655
C7A8  AD 02 20  LDA $2002 = 00                  A:00 X:FF Y:00 P:26 SP:FF PPU:  0,  0 CYC:11658
C7AB  29 80     AND #$80                        A:00 X:FF Y:00 P:26 SP:FF PPU:  0,  0 CYC:11662
C7AD  F0 F9     BEQ $C7A8                       A:00 X:FF Y:00 P:26 SP:FF PPU:  0,  0 CYC:11664
C7A8  AD 02 20  LDA $2002 = 00                  A:00 X:FF Y:00 P:26 SP:FF PPU:  0,  0 CYC:11667
C7AB  29 80     AND #$80                        A:00 X:FF Y:00 P:26 SP:FF PPU:  0,  0 CYC:11671
C7AD  F0 F9     BEQ $C7A8                       A:00 X:FF Y:00 P:26 SP:FF PPU:  0,  0 CYC:11673
C7A8  AD 02 20  LDA $2002 = 00                  A:00 X:FF Y:00 P:26 SP:FF PPU:  0,  0 CYC:11676
C7AB  29 80     AND #$80                        A:00 X:FF Y:00 P:26 SP:FF PPU:  0,  0 CYC:11680
C7AD  F0 F9     BEQ $C7A8                       A:00 X:FF Y:00 P:26 SP:FF PPU:  0,  0 CYC:11682
C7A8  AD 02 20  LDA $2002 = 00                  A:00 X:FF Y:00 P:26 SP:FF PPU:  0,  0 CYC:11685
C7AB  29 80     AND #$80                        A:00 X:FF Y:00 P:26 SP:FF PPU:  0,  0 CYC:11689
C7AD  F0 F9     BEQ $C7A8                       A:00 X:FF Y:00 P:26 SP:FF PPU:  0,  0 CYC:11691
C7A8  AD 02 20  LDA $2002 = 00                  A:00 X:FF Y:00 P:26 SP:FF PPU:  0,  0 CYC:11694
C7AB  29 80     AND #$80                        A:00 X:FF Y:00 P:26 SP:FF PPU:  0,  0 CYC:11698
C7AD  F0 F9     BEQ $C7A8                       A:00 X:FF Y:00 P:26 SP:FF PPU:  0,  0 CYC:11700
C7A8  AD 02 20  LDA $2002 = 00                  A:00 X:FF Y:00 P:26 SP:FF PPU:  0,  0 CYC:11703
C7AB  29 80     AND #$80                        A:00 X:FF Y:00 P:26 SP:FF PPU:  0,  0 CYC:11707
C7AD  F0 F9     BEQ $C7A8                       A:00 X:FF Y:00 P:26 SP:FF PPU:  0,  0 CYC:11709
C7A8  AD 02 20  LDA $2002 = 00                  A:00 X:FF Y:00 P:26 SP:FF PPU:  0,  0 CYC:11712
C7AB  29 80     AND #$80                        A:00 X:FF Y:00 P:26 SP:FF PPU:  0,  0 CYC:11716
C7AD  F0 F9     BEQ $C7A8                       A:00 X:FF Y:00 P:26 SP:FF PPU:  0,  0 CYC:11718
C7A8  AD 02 20  LDA $2002 = 00                  A:00 X:FF Y:00 P:26 SP:FF PPU:  0,  0 CYC:11721
C7AB  29 80     AND #$80                        A:00 X:FF Y:00 P:26 SP:FF PPU:  0,  0 CYC:11725
C7AD  F0 F9     BEQ $C7A8                       A:00 X:FF Y:00 P:26 SP:FF PPU:  0,  0 CYC:11727
C7A8  AD 02 20  LDA $2002 = 00                  A:00 X:FF Y:00 P:26 SP:FF PPU:  0,  0 CYC:11730
C7AB  29 80     AND #$80                        A:00 X:FF Y:00 P:26 SP:FF PPU:  0,  0 CYC:11734
C7AD  F0 F9     BEQ $C7A8                       A:00 X:FF Y:00 P:26 SP:FF PPU:  0,  0 CYC:11736
C7A8  AD 02 20  LDA $2002 = 00                  A:00 X:FF Y:00 P:26 SP:FF PPU:  0,  0 CYC:11739
C7AB  29 80     AND #$80                        A:00 X:FF Y:00 P:26 SP:FF PPU:  0,  0 CYC:11743
C7AD  F0 F9     BEQ $C7A8                       A:00 X:FF Y:00 P:26 SP:FF PPU:  0,  0 CYC:11745
C7A8  AD 02 20  LDA $2002 = 00                  A:00 X:FF Y:00 P:26 SP:FF PPU:  0,  0 CYC:11748
C7AB  29 80     AND #$80                        A:00 X:FF Y:00 P:26 SP:FF PPU:  0,  0 CYC:11752
C7AD  F0 F9     BEQ $C7A8                       A:00 X:FF Y:00 P:26 SP:FF PPU:  0,  0 CYC:11754
C7A8  AD 02 20  LDA $2002 = 00                  A:00 X:FF Y:00 P:26 SP:FF PPU:  0,  0 CYC:11757
C7AB  29 80     AND #$80                        A:00 X:FF Y:00 P:26 SP:FF PPU:  0,  0 CYC:11761
C7AD  F0 F9     BEQ $C7A8                       A:00 X:FF Y:00 P:26 SP:FF PPU:  0,  0 CYC:11763
C7A8  AD 02 20  LDA $2002 = 00                  A:00 X:FF Y:00 P:26 SP:FF PPU:  0,  0 CYC:11766
C7AB  29 80     AND #$80                        A:00 X:FF Y:00 P:26 SP:FF PPU:  0,  0 CYC:11770
C7AD  F0 F9     BEQ $C7A8                       A:00 X:FF Y:00 P:26 SP:FF PPU:  0,  0 CYC:11772
C7A8  AD 02 20  LDA $2002 = 00                  A:00 X:FF Y:00 P:26 SP:FF PPU:  0,  0 CYC:11775
C7AB  29 80     AND #$80                        A:00 X:FF Y:00 P:26 SP:FF PPU:  0,  0 CYC:11779
C7AD  F0 F9     BEQ $C7A8                       A:00 X:FF Y:00 P:26 SP:FF PPU:  0,  0 CYC:11781
C7A8  AD 02 20  LDA $2002 = 00                  A:00 X:FF Y:00 P:26 SP:FF PPU:  0,  0 CYC:11784
C7AB  29 80     AND #$80                        A:00 X:FF Y:00 P:26 SP:FF PPU:  0,  0 CYC:11788
C7AD  F0 F9     BEQ $C7A8                       A:00 X:FF Y:00 P:26 SP:FF PPU:  0,  0 CYC:11790
C7A8  AD 02 20  LDA $2002 = 00                  A:00 X:FF Y:00 P:26 SP:FF PPU:  0,  0 CYC:11793
C7AB  29 80     AND #$80                        A:00 X:FF Y:00 P:26 SP:FF PPU:  0,  0 CYC:11797
C7AD  F0 F9     BEQ $C7A8                       A:00 X:FF Y:00 P:26 SP:FF PPU:  0,  0 CYC:11799
C7A8  AD 02 20  LDA $2002 = 00                  A:00 X:FF Y:00 P:26 SP:FF PPU:  0,  0 CYC:11802
C7AB  29 80     AND #$80                        A:00 X:FF Y:00 P:26 SP:FF PPU:  0,  0 CYC:11806
C7AD  F0 F9     BEQ $C7A8                       A:00 X:FF Y:00 P:26 SP:FF PPU:  0,  0 CYC:11808
C7A8  AD 02 20  LDA $2002 = 00                  A:00 X:FF Y:00 P:26 SP:FF PPU:  0,  0 CYC:11811
C7AB  29 80     AND #$80                        A:00 X:FF Y:00 P:26 SP:FF PPU:  0,  0 CYC:11815
C7AD  F0 F9     BEQ $C7A8                       A:00 X:FF Y:00 P:26 SP:FF PPU:  0,  0 CYC:11817
C7A8  AD 02 20  LDA $2002 = 00                  A:00 X:FF Y:00 P:26 SP:FF PPU:  0,  0 CYC:11820
C7AB  29 80     AND #$80                        A:00 X:FF Y:00 P:26 SP:FF PPU:  0,  0 CYC:11824
C7AD  F0 F9     BEQ $C7A8                       A:00 X:FF Y:00 P:26 SP:FF PPU:  0,  0 CYC:11826
C7A8  AD 02 20  LDA $2002 = 00                  A:00 X:FF Y:00 P:26 SP:FF PPU:  0,  0 CYC:11829
C7AB  29 80     AND #$80                        A:00 X:FF Y:00 P:26 SP:FF PPU:  0,  0 CYC:11833
C7AD  F0 F9     BEQ $C7A8                       A:00 X:FF Y:00 P:26 SP:FF PPU:  0,  0 CYC:11835
C7A8  AD 02 20  LDA $2002 = 00                  A:00 X:FF Y:00 P:26 SP:FF PPU:  0,  0 CYC:11838
C7AB  29 80     AND #$80                        A:00 X:FF Y:00 P:26 SP:FF PPU:  0,  0 CYC:11842
C7AD  F0 F9     BEQ $C7A8                       A:00 X:FF Y:00 P:26 SP:FF PPU:  0,  0 CYC:11844
C7A8  AD 02 20  LDA $2002 = 00                  A:00 X:FF Y:00 P:26 SP:FF PPU:  0,  0 CYC:11847
C7AB  29 80     AND #$80                        A:00 X:FF Y:00 P:26 SP:FF PPU:  0,  0 CYC:11851
C7AD  F0 F9     BEQ $C7A8                       A:00 X:FF Y:00 P:26 SP:FF PPU:  0,  0 CYC:11853
C7A8  AD 02 20  LDA $2002 = 00                  A:00 X:FF Y:00 P:26 SP:FF PPU:  0,  0 CYC:11856
C7AB  29 80     AND #$80                        A:00 X:FF Y:00 P:26 SP:FF PPU:  0,  0 CYC:11860
C7AD  F0 F9     BEQ $C7A8                       A:00 X:FF Y:00 P:26 SP:FF PPU:  0,  0 CYC:11862
C7A8  AD 02 20  LDA $2002 = 00                  A:00 X:FF Y:00 P:26 SP:FF PPU:  0,  0 CYC:11865
C7AB  29 80     AND #$80                        A:00 X:FF Y:00 P:26 SP:FF PPU:  0,  0 CYC:11869
C7AD  F0 F9     BEQ $C7A8                       A:00 X:FF Y:00 P:26 SP:FF PPU:  0,  0 CYC:11871
C7A8  AD 02 20  LDA $2002 = 00                  A:00 X:FF Y:00 P:26 SP:FF PPU:  0,  0 CYC:11874
C7AB  29 80     AND #$80                        A:00 X:FF Y:00 P:26 SP:FF PPU:  0,  0 CYC:11878
C7AD  F0 F9     BEQ $C7A8                       A:00 X:FF Y:00 P:26 SP:FF PPU:  0,  0 CYC:11880
C7A8  AD 02 20  LDA $2002 = 00                  A:00 X:FF Y:00 P:26 SP:FF PPU:  0,  0 CYC:11883
C7AB  29 80     AND #$80                        A:00 X:FF Y:00 P:26 SP:FF PPU:  0,  0 CYC:11887
C7AD  F0 F9     BEQ $C7A8                       A:00 X:FF Y:00 P:26 SP:FF PPU:  0,  0 CYC:11889
C7A8  AD 02 20  LDA $2002 = 00                  A:00 X:FF Y:00 P:26 SP:FF PPU:  0,  0 CYC:11892
C7AB  29 80     AND #$80                        A:00 X:FF Y:00 P:26 SP:FF PPU:  0,  0 CYC:11896
C7AD  F0 F9     BEQ $C7A8                       A:00 X:FF Y:00 P:26 SP:FF PPU:  0,  0 CYC:11898
C7A8  AD 02 20  LDA $2002 = 00                  A:00 X:FF Y:00 P:26 SP:FF PPU:  0,  0 CYC:11901
C7AB  29 80     AND #$80                        A:00 X:FF Y:00 P:26 SP:FF PPU:  0,  0 CYC:11905
C7AD  F0 F9     BEQ $C7A8                       A:00 X:FF Y:00 P:26 SP:FF PPU:  0,  0 CYC:11907
C7A8  AD 02 20  LDA $2002 = 00                  A:00 X:FF Y:00 P:26 SP:FF PPU:  0,  0 CYC:11910
C7AB  29 80     AND #$80                        A:00 X:FF Y:00 P:26 SP:FF PPU:  0,  0 CYC:11914
C7AD  F0 F9     BEQ $C7A8                       A:00 X:FF Y:00 P:26 SP:FF PPU:  0,  0 CYC:11916
C7A8  AD 02 20  LDA $2002 = 00                  A:00 X:FF Y:00 P:26 SP:FF PPU:  0,  0 CYC:11919
C7AB  29 80     AND #$80                        A:00 X:FF Y:00 P:26 SP:FF PPU:  0,  0 CYC:11923
C7AD  F0 F9     BEQ $C7A8                       A:00 X:FF Y:00 P:26 SP:FF PPU:  0,  0 CYC:11925
C7A8  AD 02 20  LDA $2002 = 00                  A:00 X:FF Y:00 P:26 SP:FF PPU:  0,  0 CYC:11928
C7AB  29 80     AND #$80                        A:00 X:FF Y:00 P:26 SP:FF PPU:  0,  0 CYC:11932
C7AD  F0 F9     BEQ $C7A8                       A:00 X:FF Y:00 P:26 SP:FF PPU:  0,  0 CYC:11934
C7A8  AD 02 20  LDA $2002 = 00                  A:00 X:FF Y:00 P:26 SP:FF PPU:  0,  0 CYC:11937
C7AB  29 80     AND #$80                        A:00 X:FF Y:00 P:26 SP:FF PPU:  0,  0 CYC:11941
C7AD  F0 F9     BEQ $C7A8                       A:00 X:FF Y:00 P:26 SP:FF PPU:  0,  0 CYC:11943
C7A8  AD 02 20  LDA $2002 = 00                  A:00 X:FF Y:00 P:26 SP:FF PPU:  0,  0 CYC:11946
C7AB  29 80     AND #$80                        A:00 X:FF Y:00 P:26 SP:FF PPU:  0,  0 CYC:11950
C7AD  F0 F9     BEQ $C7A8                       A:00 X:FF Y:00 P:26 SP:FF PPU:  0,  0 CYC:11952
C7A8  AD 02 20  LDA $2002 = 00                  A:00 X:FF Y:00 P:26 SP:FF PPU:  0,  0 CYC:11955
C7AB  29 80     AND #$80                        A:00 X:FF Y:00 P:26 SP:FF PPU:  0,  0 CYC:11959
C7AD  F0 F9     BEQ $C7A8                       A:00 X:FF Y:00 P:26 SP:FF PPU:  0,  0 CYC:11961
C7A8  AD 02 20  LDA $2002 = 00                  A:00 X:FF Y:00 P:26 SP:FF PPU:  0,  0 CYC:11964
C7AB  29 80     AND #$80                        A:00 X:FF Y:00 P:26 SP:FF PPU:  0,  0 CYC:11968
C7AD  F0 F9     BEQ $C7A8                       A:00 X:FF Y:00 P:26 SP:FF PPU:  0,  0 CYC:11970
C7A8  AD 02 20  LDA $2002 = 00                  A:00 X:FF Y:00 P:26 SP:FF PPU:  0,  0 CYC:11973
C7AB  29 80     AND #$80                        A:00 X:FF Y:00 P:26 SP:FF PPU:  0,  0 CYC:11977
C7AD  F0 F9     BEQ $C7A8                       A:00 X:FF Y:00 P:26 SP:FF PPU:  0,  0 CYC:11979
C7A8  AD 02 20  LDA $2002 = 00                  A:00 X:FF Y:00 P:26 SP:FF PPU:  0,  0 CYC:11982
C7AB  29 80     AND #$80                        A:00 X:FF Y:00 P:26 SP:FF PPU:  0,  0 CYC:11986
C7AD  F0 F9     BEQ $C7A8                       A:00 X:FF Y:00 P:26 SP:FF PPU:  0,  0 CYC:11988
C7A8  AD 02 20  LDA $2002 = 00                  A:00 X:FF Y:00 P:26 SP:FF PPU:  0,  0 CYC:11991
C7AB  29 80     AND #$80                        A:00 X:FF Y:00 P:26 SP:FF PPU:  0,  0 CYC:11995
C7AD  F0 F9     BEQ $C7A8                       A:00 X:FF Y:00 P:26 SP:FF PPU:  0,  0 CYC:11997
C7A8  AD 02 20  LDA $2002 = 00                  A:00 X:FF Y:00 P:26 SP:FF PPU:  0,  0 CYC:12000
C7AB  29 80     AND #$80                        A:00 X:FF Y:00 P:26 SP:FF PPU:  0,  0 CYC:12004
C7AD  F0 F9     BEQ $C7A8                       A:00 X:FF Y:00 P:26 SP:FF PPU:  0,  0 CYC:12006
C7A8  AD 02 20  LDA $2002 = 00                  A:00 X:FF Y:00 P:26 SP:FF PPU:  0,  0 CYC:12009
C7AB  29 80     AND #$80                        A:00 X:FF Y:00 P:26 SP:FF PPU:  0,  0 CYC:12013
C7AD  F0 F9     BEQ $C7A8                       A:00 X:FF Y:00 P:26 SP:FF PPU:  0,  0 CYC:12015
C7A8  AD 02 20  LDA $2002 = 00                  A:00 X:FF Y:00 P:26 SP:FF PPU:  0,  0 CYC:12018
C7AB  29 80     AND #$80                        A:00 X:FF Y:00 P:26 SP:FF PPU:  0,  0 CYC:12022
C7AD  F0 F9     BEQ $C7A8                       A:00 X:FF Y:00 P:26 SP:FF PPU:  0,  0 CYC:12024
C7A8  AD 02 20  LDA $2002 = 00                  A:00 X:FF Y:00 P:26 SP:FF PPU:  0,  0 CYC:12027
C7AB  29 80     AND #$80                        A:00 X:FF Y:00 P:26 SP:FF PPU:  0,  0 CYC:12031
C7AD  F0 F9     BEQ $C7A8                       A:00 X:FF Y:00 P:26 SP:FF PPU:  0,  0 CYC:12033
C7A8  AD 02 20  LDA $2002 = 00                  A:00 X:FF Y:00 P:26 SP:FF PPU:  0,  0 CYC:12036
C7AB  29 80     AND #$80                        A:00 X:FF Y:00 P:26 SP:FF PPU:  0,  0 CYC:12040
C7AD  F0 F9     BEQ $C7A8                       A:00 X:FF Y:00 P:26 SP:FF PPU:  0,  0 CYC:12042
C7A8  AD 02 20  LDA $2002 = 00                  A:00 X:FF Y:00 P:26 SP:FF PPU:  0,  0 CYC:12045
C7AB  29 80     AND #$80                        A:00 X:FF Y:00 P:26 SP:FF PPU:  0,  0 CYC:12049
C7AD  F0 F9     BEQ $C7A8                       A:00 X:FF Y:00 P:26 SP:FF PPU:  0,  0 CYC:12051
C7A8  AD 02 20  LDA $2002 = 00                  A:00 X:FF Y:00 P:26 SP:FF PPU:  0,  0 CYC:12054
C7AB  29 80     AND #$80                        A:00 X:FF Y:00 P:26 SP:FF PPU:  0,  0 CYC:12058
C7AD  F0 F9     BEQ $C7A8                       A:00 X:FF Y:00 P:26 SP:FF PPU:  0,  0 CYC:12060
C7A8  AD 02 20  LDA $2002 = 00                  A:00 X:FF Y:00 P:26 SP:FF PPU:  0,  0 CYC:12063
C7AB  29 80     AND #$80                        A:00 X:FF Y:00 P:26 SP:FF PPU:  0,  0 CYC:12067
C7AD  F0 F9     BEQ $C7A8                       A:00 X:FF Y:00 P:26 SP:FF PPU:  0,  0 CYC:12069
C7A8  AD 02 20  LDA $2002 = 00                  A:00 X:FF Y:00 P:26 SP:FF PPU:  0,  0 CYC:12072
C7AB  29 80     AND #$80                        A:00 X:FF Y:00 P:26 SP:FF PPU:  0,  0 CYC:12076
C7AD  F0 F9     BEQ $C7A8                       A:00 X:FF Y:00 P:26 SP:FF PPU:  0,  0 CYC:12078
C7A8  AD 02 20  LDA $2002 = 00                  A:00 X:FF Y:00 P:26 SP:FF PPU:  0,  0 CYC:12081
C7AB  29 80     AND #$80                        A:00 X:FF Y:00 P:26 SP:FF PPU:  0,  0 CYC:12085
C7AD  F0 F9     BEQ $C7A8                       A:00 X:FF Y:00 P:26 SP:FF PPU:  0,  0 CYC:12087
C7A8  AD 02 20  LDA $2002 = 00                  A:00 X:FF Y:00 P:26 SP:FF PPU:  0,  0 CYC:12090
C7AB  29 80     AND #$80                        A:00 X:FF Y:00 P:26 SP:FF PPU:  0,  0 CYC:12094
C7AD  F0 F9     BEQ $C7A8                       A:00 X:FF Y:00 P:26 SP:FF PPU:  0,  0 CYC:12096
C7A8  AD 02 20  LDA $2002 = 00                  A:00 X:FF Y:00 P:26 SP:FF PPU:  0,  0 CYC:12099
C7AB  29 80     AND #$80                        A:00 X:FF Y:00 P:26 SP:FF PPU:  0,  0 CYC:12103
C7AD  F0 F9     BEQ $C7A8                       A:00 X:FF Y:00 P:26 SP:FF PPU:  0,  0 CYC:12105
C7A8  AD 02 20  LDA $2002 = 00                  A:00 X:FF Y:00 P:26 SP:FF PPU:  0,  0 CYC:12108
C7AB  29 80     AND #$80                        A:00 X:FF Y:00 P:26 SP:FF PPU:  0,  0 CYC:12112
C7AD  F0 F9     BEQ $C7A8                       A:00 X:FF Y:00 P:26 SP:FF PPU:  0,  0 CYC:12114
C7A8  AD 02 20  LDA $2002 = 00                  A:00 X:FF Y:00 P:26 SP:FF PPU:  0,  0 CYC:12117
C7AB  29 80     AND #$80                        A:00 X:FF Y:00 P:26 SP:FF PPU:  0,  0 CYC:12121
C7AD  F0 F9     BEQ $C7A8                       A:00 X:FF Y:00 P:26 SP:FF PPU:  0,  0 CYC:12123
C7A8  AD 02 20  LDA $2002 = 00                  A:00 X:FF Y:00 P:26 SP:FF PPU:  0,  0 CYC:12126
C7AB  29 80     AND #$80                        A:00 X:FF Y:00 P:26 SP:FF PPU:  0,  0 CYC:12130
C7AD  F0 F9     BEQ $C7A8                       A:00 X:FF Y:00 P:26 SP:FF PPU:  0,  0 CYC:12132
C7A8  AD 02 20  LDA $2002 = 00                  A:00 X:FF Y:00 P:26 SP:FF PPU:  0,  0 CYC:12135
C7AB  29 80     AND #$80                        A:00 X:FF Y:00 P:26 SP:FF PPU:  0,  0 CYC:12139
C7AD  F0 F9     BEQ $C7A8                       A:00 X:FF Y:00 P:26 SP:FF PPU:  0,  0 CYC:12141
C7A8  AD 02 20  LDA $2002 = 00                  A:00 X:FF Y:00 P:26 SP:FF PPU:  0,  0 CYC:12144
C7AB  29 80     AND #$80                        A:00 X:FF Y:00 P:26 SP:FF PPU:  0,  0 CYC:12148
C7AD  F0 F9     BEQ $C7A8                       A:00 X:FF Y:00 P:26 SP:FF PPU:  0,  0 CYC:12150
C7A8  AD 02 20  LDA $2002 = 00                  A:00 X:FF Y:00 P:26 SP:FF PPU:  0,  0 CYC:12153
C7AB  29 80     AND #$80                        A:00 X:FF Y:00 P:26 SP:FF PPU:  0,  0 CYC:12157
C7AD  F0 F9     BEQ $C7A8                       A:00 X:FF Y:00 P:26 SP:FF PPU:  0,  0 CYC:12159
C7A8  AD 02 20  LDA $2002 = 00                  A:00 X:FF Y:00 P:26 SP:FF PPU:  0,  0 CYC:12162
C7AB  29 80     AND #$80                        A:00 X:FF Y:00 P:26 SP:FF PPU:  0,  0 CYC:12166
C7AD  F0 F9     BEQ $C7A8                       A:00 X:FF Y:00 P:26 SP:FF PPU:  0,  0 CYC:12168
C7A8  AD 02 20  LDA $2002 = 00                  A:00 X:FF Y:00 P:26 SP:FF PPU:  0,  0 CYC:12171
C7AB  29 80     AND #$80                        A:00 X:FF Y:00 P:26 SP:FF PPU:  0,  0 CYC:12175
C7AD  F0 F9     BEQ $C7A8                       A:00 X:FF Y:00 P:26 SP:FF PPU:  0,  0 CYC:12177
C7A8  AD 02 20  LDA $2002 = 00                  A:00 X:FF Y:00 P:26 SP:FF PPU:  0,  0 CYC:12180
C7AB  29 80     AND #$80                        A:00 X:FF Y:00 P:26 SP:FF PPU:  0,  0 CYC:12184
C7AD  F0 F9     BEQ $C7A8                       A:00 X:FF Y:00 P:26 SP:FF PPU:  0,  0 CYC:12186
C7A8  AD 02 20  LDA $2002 = 00                  A:00 X:FF Y:00 P:26 SP:FF PPU:  0,  0 CYC:12189
C7AB  29 80     AND #$80                        A:00 X:FF Y:00 P:26 SP:FF PPU:  0,  0 CYC:12193
C7AD  F0 F9     BEQ $C7A8                       A:00 X:FF Y:00 P:26 SP:FF PPU:  0,  0 CYC:12195
C7A8  AD 02 20  LDA $2002 = 00                  A:00 X:FF Y:00 P:26 SP:FF PPU:  0,  0 CYC:12198
C7AB  29 80     AND #$80                        A:00 X:FF Y:00 P:26 SP:FF PPU:  0,  0 CYC:12202
C7AD  F0 F9     BEQ $C7A8                       A:00 X:FF Y:00 P:26 SP:FF PPU:  0,  0 CYC:12204
C7A8  AD 02 20  LDA $2002 = 00                  A:00 X:FF Y:00 P:26 SP:FF PPU:  0,  0 CYC:12207
C7AB  29 80     AND #$80                        A:00 X:FF Y:00 P:26 SP:FF PPU:  0,  0 CYC:12211
C7AD  F0 F9     BEQ $C7A8                       A:00 X:FF Y:00 P:26 SP:FF PPU:  0,  0 CYC:12213
C7A8  AD 02 20  LDA $2002 = 00                  A:00 X:FF Y:00 P:26 SP:FF PPU:  0,  0 CYC:12216
C7AB  29 80     AND #$80                        A:00 X:FF Y:00 P:26 SP:FF PPU:  0,  0 CYC:12220
C7AD  F0 F9     BEQ $C7A8                       A:00 X:FF Y:00 P:26 SP:FF PPU:  0,  0 CYC:12222
C7A8  AD 02 20  LDA $2002 = 00                  A:00 X:FF Y:00 P:26 SP:FF PPU:  0,  0 CYC:12225
C7AB  29 80     AND #$80                        A:00 X:FF Y:00 P:26 SP:FF PPU:  0,  0 CYC:12229
C7AD  F0 F9     BEQ $C7A8                       A:00 X:FF Y:00 P:26 SP:FF PPU:  0,  0 CYC:12231
C7A8  AD 02 20  LDA $2002 = 00                  A:00 X:FF Y:00 P:26 SP:FF PPU:  0,  0 CYC:12234
C7AB  29 80     AND #$80                        A:00 X:FF Y:00 P:26 SP:FF PPU:  0,  0 CYC:12238
C7AD  F0 F9     BEQ $C7A8                       A:00 X:FF Y:00 P:26 SP:FF PPU:  0,  0 CYC:12240
C7A8  AD 02 20  LDA $2002 = 00                  A:00 X:FF Y:00 P:26 SP:FF PPU:  0,  0 CYC:12243
C7AB  29 80     AND #$80                        A:00 X:FF Y:00 P:26 SP:FF PPU:  0,  0 CYC:12247
C7AD  F0 F9     BEQ $C7A8                       A:00 X:FF Y:00 P:26 SP:FF PPU:  0,  0 CYC:12249
C7A8  AD 02 20  LDA $2002 = 00                  A:00 X:FF Y:00 P:26 SP:FF PPU:  0,  0 CYC:12252
C7AB  29 80     AND #$80                        A:00 X:FF Y:00 P:26 SP:FF PPU:  0,  0 CYC:12256
C7AD  F0 F9     BEQ $C7A8                       A:00 X:FF Y:00 P:26 SP:FF PPU:  0,  0 CYC:12258
C7A8  AD 02 20  LDA $2002 = 00                  A:00 X:FF Y:00 P:26 SP:FF PPU:  0,  0 CYC:12261
C7AB  29 80     AND #$80                        A:00 X:FF Y:00 P:26 SP:FF PPU:  0,  0 CYC:12265
C7AD  F0 F9     BEQ $C7A8                       A:00 X:FF Y:00 P:26 SP:FF PPU:  0,  0 CYC:12267
C7A8  AD 02 20  LDA $2002 = 00                  A:00 X:FF Y:00 P:26 SP:FF PPU:  0,  0 CYC:12270
C7AB  29 80     AND #$80                        A:00 X:FF Y:00 P:26 SP:FF PPU:  0,  0 CYC:12274
C7AD  F0 F9     BEQ $C7A8                       A:00 X:FF Y:00 P:26 SP:FF PPU:  0,  0 CYC:12276
C7A8  AD 02 20  LDA $2002 = 00                  A:00 X:FF Y:00 P:26 SP:FF PPU:  0,  0 CYC:12279
C7AB  29 80     AND #$80                        A:00 X:FF Y:00 P:26 SP:FF PPU:  0,  0 CYC:12283
C7AD  F0 F9     BEQ $C7A8                       A:00 X:FF Y:00 P:26 SP:FF PPU:  0,  0 CYC:12285
C7A8  AD 02 20  LDA $2002 = 00                  A:00 X:FF Y:00 P:26 SP:FF PPU:  0,  0 CYC:12288
C7AB  29 80     AND #$80                        A:00 X:FF Y:00 P:26 SP:FF PPU:  0,  0 CYC:12292
C7AD  F0 F9     BEQ $C7A8                       A:00 X:FF Y:00 P:26 SP:FF PPU:  0,  0 CYC:12294
C7A8  AD 02 20  LDA $2002 = 00                  A:00 X:FF Y:00 P:26 SP:FF PPU:  0,  0 CYC:12297
C7AB  29 80     AND #$80                        A:00 X:FF Y:00 P:26 SP:FF PPU:  0,  0 CYC:12301
C7AD  F0 F9     BEQ $C7A8                       A:00 X:FF Y:00 P:26 SP:FF PPU:  0,  0 CYC:12303
C7A8  AD 02 20  LDA $2002 = 00                  A:00 X:FF Y:00 P:26 SP:FF PPU:  0,  0 CYC:12306
C7AB  29 80     AND #$80                        A:00 X:FF Y:00 P:26 SP:FF PPU:  0,  0 CYC:12310
C7AD  F0 F9     BEQ $C7A8                       A:00 X:FF Y:00 P:26 SP:FF PPU:  0,  0 CYC:12312
C7A8  AD 02 20  LDA $2002 = 00                  A:00 X:FF Y:00 P:26 SP:FF PPU:  0,  0 CYC:12315
C7AB  29 80     AND #$80                        A:00 X:FF Y:00 P:26 SP:FF PPU:  0,  0 CYC:12319
C7AD  F0 F9     BEQ $C7A8                       A:00 X:FF Y:00 P:26 SP:FF PPU:  0,  0 CYC:12321
C7A8  AD 02 20  LDA $2002 = 00                  A:00 X:FF Y:00 P:26 SP:FF PPU:  0,  0 CYC:12324
C7AB  29 80     AND #$80                        A:00 X:FF Y:00 P:26 SP:FF PPU:  0,  0 CYC:12328
C7AD  F0 F9     BEQ $C7A8                       A:00 X:FF Y:00 P:26 SP:FF PPU:  0,  0 CYC:12330
C7A8  AD 02 20  LDA $2002 = 00                  A:00 X:FF Y:00 P:26 SP:FF PPU:  0,  0 CYC:12333
C7AB  29 80     AND #$80                        A:00 X:FF Y:00 P:26 SP:FF PPU:  0,  0 CYC:12337
C7AD  F0 F9     BEQ $C7A8                       A:00 X:FF Y:00 P:26 SP:FF PPU:  0,  0 CYC:12339
C7A8  AD 02 20  LDA $2002 = 00                  A:00 X:FF Y:00 P:26 SP:FF PPU:  0,  0 CYC:12342
C7AB  29 80     AND #$80                        A:00 X:FF Y:00 P:26 SP:FF PPU:  0,  0 CYC:12346
C7AD  F0 F9     BEQ $C7A8                       A:00 X:FF Y:00 P:26 SP:FF PPU:  0,  0 CYC:12348
C7A8  AD 02 20  LDA $2002 = 00                  A:00 X:FF Y:00 P:26 SP:FF PPU:  0,  0 CYC:12351
C7AB  29 80     AND #$80                        A:00 X:FF Y:00 P:26 SP:FF PPU:  0,  0 CYC:12355
C7AD  F0 F9     BEQ $C7A8                       A:00 X:FF Y:00 P:26 SP:FF PPU:  0,  0 CYC:12357
C7A8  AD 02 20  LDA $2002 = 00                  A:00 X:FF Y:00 P:26 SP:FF PPU:  0,  0 CYC:12360
C7AB  29 80     AND #$80                        A:00 X:FF Y:00 P:26 SP:FF PPU:  0,  0 CYC:12364
C7AD  F0 F9     BEQ $C7A8                       A:00 X:FF Y:00 P:26 SP:FF PPU:  0,  0 CYC:12366
C7A8  AD 02 20  LDA $2002 = 00                  A:00 X:FF Y:00 P:26 SP:FF PPU:  0,  0 CYC:12369
C7AB  29 80     AND #$80                        A:00 X:FF Y:00 P:26 SP:FF PPU:  0,  0 CYC:12373
C7AD  F0 F9     BEQ $C7A8                       A:00 X:FF Y:00 P:26 SP:FF PPU:  0,  0 CYC:12375
C7A8  AD 02 20  LDA $2002 = 00                  A:00 X:FF Y:00 P:26 SP:FF PPU:  0,  0 CYC:12378
C7AB  29 80     AND #$80                        A:00 X:FF Y:00 P:26 SP:FF PPU:  0,  0 CYC:12382
C7AD  F0 F9     BEQ $C7A8                       A:00 X:FF Y:00 P:26 SP:FF PPU:  0,  0 CYC:12384
C7A8  AD 02 20  LDA $2002 = 00                  A:00 X:FF Y:00 P:26 SP:FF PPU:  0,  0 CYC:12387
C7AB  29 80     AND #$80                        A:00 X:FF Y:00 P:26 SP:FF PPU:  0,  0 CYC:12391
C7AD  F0 F9     BEQ $C7A8                       A:00 X:FF Y:00 P:26 SP:FF PPU:  0,  0 CYC:12393
C7A8  AD 02 20  LDA $2002 = 00                  A:00 X:FF Y:00 P:26 SP:FF PPU:  0,  0 CYC:12396
C7AB  29 80     AND #$80                        A:00 X:FF Y:00 P:26 SP:FF PPU:  0,  0 CYC:12400
C7AD  F0 F9     BEQ $C7A8                       A:00 X:FF Y:00 P:26 SP:FF PPU:  0,  0 CYC:12402
C7A8  AD 02 20  LDA $2002 = 00                  A:00 X:FF Y:00 P:26 SP:FF PPU:  0,  0 CYC:12405
C7AB  29 80     AND #$80                        A:00 X:FF Y:00 P:26 SP:FF PPU:  0,  0 CYC:12409
C7AD  F0 F9     BEQ $C7A8                       A:00 X:FF Y:00 P:26 SP:FF PPU:  0,  0 CYC:12411
C7A8  AD 02 20  LDA $2002 = 00                  A:00 X:FF Y:00 P:26 SP:FF PPU:  0,  0 CYC:12414
C7AB  29 80     AND #$80                        A:00 X:FF Y:00 P:26 SP:FF PPU:  0,  0 CYC:12418
C7AD  F0 F9     BEQ $C7A8                       A:00 X:FF Y:00 P:26 SP:FF PPU:  0,  0 CYC:12420
C7A8  AD 02 20  LDA $2002 = 00                  A:00 X:FF Y:00 P:26 SP:FF PPU:  0,  0 CYC:12423
C7AB  29 80     AND #$80                        A:00 X:FF Y:00 P:26 SP:FF PPU:  0,  0 CYC:12427
C7AD  F0 F9     BEQ $C7A8                       A:00 X:FF Y:00 P:26 SP:FF PPU:  0,  0 CYC:12429
C7A8  AD 02 20  LDA $2002 = 00                  A:00 X:FF Y:00 P:26 SP:FF PPU:  0,  0 CYC:12432
C7AB  29 80     AND #$80                        A:00 X:FF Y:00 P:26 SP:FF PPU:  0,  0 CYC:12436
C7AD  F0 F9     BEQ $C7A8                       A:00 X:FF Y:00 P:26 SP:FF PPU:  0,  0 CYC:12438
C7A8  AD 02 20  LDA $2002 = 00                  A:00 X:FF Y:00 P:26 SP:FF PPU:  0,  0 CYC:12441
C7AB  29 80     AND #$80                        A:00 X:FF Y:00 P:26 SP:FF PPU:  0,  0 CYC:12445
C7AD  F0 F9     BEQ $C7A8                       A:00 X:FF Y:00 P:26 SP:FF PPU:  0,  0 CYC:12447
C7A8  AD 02 20  LDA $2002 = 00                  A:00 X:FF Y:00 P:26 SP:FF PPU:  0,  0 CYC:12450
C7AB  29 80     AND #$80                        A:00 X:FF Y:00 P:26 SP:FF PPU:  0,  0 CYC:12454
C7AD  F0 F9     BEQ $C7A8                       A:00 X:FF Y:00 P:26 SP:FF PPU:  0,  0 CYC:12456
C7A8  AD 02 20  LDA $2002 = 00                  A:00 X:FF Y:00 P:26 SP:FF PPU:  0,  0 CYC:12459
C7AB  29 80     AND #$80                        A:00 X:FF Y:00 P:26 SP:FF PPU:  0,  0 CYC:12463
C7AD  F0 F9     BEQ $C7A8                       A:00 X:FF Y:00 P:26 SP:FF PPU:  0,  0 CYC:12465
C7A8  AD 02 20  LDA $2002 = 00                  A:00 X:FF Y:00 P:26 SP:FF PPU:  0,  0 CYC:12468
C7AB  29 80     AND #$80                        A:00 X:FF Y:00 P:26 SP:FF PPU:  0,  0 CYC:12472
C7AD  F0 F9     BEQ $C7A8                       A:00 X:FF Y:00 P:26 SP:FF PPU:  0,  0 CYC:12474
C7A8  AD 02 20  LDA $2002 = 00                  A:00 X:FF Y:00 P:26 SP:FF PPU:  0,  0 CYC:12477
C7AB  29 80     AND #$80                        A:00 X:FF Y:00 P:26 SP:FF PPU:  0,  0 CYC:12481
C7AD  F0 F9     BEQ $C7A8                       A:00 X:FF Y:00 P:26 SP:FF PPU:  0,  0 CYC:12483
C7A8  AD 02 20  LDA $2002 = 00                  A:00 X:FF Y:00 P:26 SP:FF PPU:  0,  0 CYC:12486
C7AB  29 80     AND #$80                        A:00 X:FF Y:00 P:26 SP:FF PPU:  0,  0 CYC:12490
C7AD  F0 F9     BEQ $C7A8                       A:00 X:FF Y:00 P:26 SP:FF PPU:  0,  0 CYC:12492
C7A8  AD 02 20  LDA $2002 = 00                  A:00 X:FF Y:00 P:26 SP:FF PPU:  0,  0 CYC:12495
C7AB  29 80     AND #$80                        A:00 X:FF Y:00 P:26 SP:FF PPU:  0,  0 CYC:12499
C7AD  F0 F9     BEQ $C7A8                       A:00 X:FF Y:00 P:26 SP:FF PPU:  0,  0 CYC:12501
C7A8  AD 02 20  LDA $2002 = 00                  A:00 X:FF Y:00 P:26 SP:FF PPU:  0,  0 CYC:12504
C7AB  29 80     AND #$80                        A:00 X:FF Y:00 P:26 SP:FF PPU:  0,  0 CYC:12508
C7AD  F0 F9     BEQ $C7A8                       A:00 X:FF Y:00 P:26 SP:FF PPU:  0,  0 CYC:12510
C7A8  AD 02 20  LDA $2002 = 00                  A:00 X:FF Y:00 P:26 SP:FF PPU:  0,  0 CYC:12513
C7AB  29 80     AND #$80                        A:00 X:FF Y:00 P:26 SP:FF PPU:  0,  0 CYC:12517
C7AD  F0 F9     BEQ $C7A8                       A:00 X:FF Y:00 P:26 SP:FF PPU:  0,  0 CYC:12519
C7A8  AD 02 20  LDA $2002 = 00                  A:00 X:FF Y:00 P:26 SP:FF PPU:  0,  0 CYC:12522
C7AB  29 80     AND #$80                        A:00 X:FF Y:00 P:26 SP:FF PPU:  0,  0 CYC:12526
C7AD  F0 F9     BEQ $C7A8                       A:00 X:FF Y:00 P:26 SP:FF PPU:  0,  0 CYC:12528
C7A8  AD 02 20  LDA $2002 = 00                  A:00 X:FF Y:00 P:26 SP:FF PPU:  0,  0 CYC:12531
C7AB  29 80     AND #$80                        A:00 X:FF Y:00 P:26 SP:FF PPU:  0,  0 CYC:12535
C7AD  F0 F9     BEQ $C7A8                       A:00 X:FF Y:00 P:26 SP:FF PPU:  0,  0 CYC:12537
C7A8  AD 02 20  LDA $2002 = 00                  A:00 X:FF Y:00 P:26 SP:FF PPU:  0,  0 CYC:12540
C7AB  29 80     AND #$80                        A:00 X:FF Y:00 P:26 SP:FF PPU:  0,  0 CYC:12544
C7AD  F0 F9     BEQ $C7A8                       A:00 X:FF Y:00 P:26 SP:FF PPU:  0,  0 CYC:12546
C7A8  AD 02 20  LDA $2002 = 00                  A:00 X:FF Y:00 P:26 SP:FF PPU:  0,  0 CYC:12549
C7AB  29 80     AND #$80                        A:00 X:FF Y:00 P:26 SP:FF PPU:  0,  0 CYC:12553
C7AD  F0 F9     BEQ $C7A8                       A:00 X:FF Y:00 P:26 SP:FF PPU:  0,  0 CYC:12555
C7A8  AD 02 20  LDA $2002 = 00                  A:00 X:FF Y:00 P:26 SP:FF PPU:  0,  0 CYC:12558
C7AB  29 80     AND #$80                        A:00 X:FF Y:00 P:26 SP:FF PPU:  0,  0 CYC:12562
C7AD  F0 F9     BEQ $C7A8                       A:00 X:FF Y:00 P:26 SP:FF PPU:  0,  0 CYC:12564
C7A8  AD 02 20  LDA $2002 = 00                  A:00 X:FF Y:00 P:26 SP:FF PPU:  0,  0 CYC:12567
C7AB  29 80     AND #$80                        A:00 X:FF Y:00 P:26 SP:FF PPU:  0,  0 CYC:12571
C7AD  F0 F9     BEQ $C7A8                       A:00 X:FF Y:00 P:26 SP:FF PPU:  0,  0 CYC:12573
C7A8  AD 02 20  LDA $2002 = 00                  A:00 X:FF Y:00 P:26 SP:FF PPU:  0,  0 CYC:12576
C7AB  29 80     AND #$80                        A:00 X:FF Y:00 P:26 SP:FF PPU:  0,  0 CYC:12580
C7AD  F0 F9     BEQ $C7A8                       A:00 X:FF Y:00 P:26 SP:FF PPU:  0,  0 CYC:12582
C7A8  AD 02 20  LDA $2002 = 00                  A:00 X:FF Y:00 P:26 SP:FF PPU:  0,  0 CYC:12585
C7AB  29 80     AND #$80                        A:00 X:FF Y:00 P:26 SP:FF PPU:  0,  0 CYC:12589
C7AD  F0 F9     BEQ $C7A8                       A:00 X:FF Y:00 P:26 SP:FF PPU:  0,  0 CYC:12591
C7A8  AD 02 20  LDA $2002 = 00                  A:00 X:FF Y:00 P:26 SP:FF PPU:  0,  0 CYC:12594
C7AB  29 80     AND #$80                        A:00 X:FF Y:00 P:26 SP:FF PPU:  0,  0 CYC:12598
C7AD  F0 F9     BEQ $C7A8                       A:00 X:FF Y:00 P:26 SP:FF PPU:  0,  0 CYC:12600
C7A8  AD 02 20  LDA $2002 = 00                  A:00 X:FF Y:00 P:26 SP:FF PPU:  0,  0 CYC:12603
C7AB  29 80     AND #$80                        A:00 X:FF Y:00 P:26 SP:FF PPU:  0,  0 CYC:12607
C7AD  F0 F9     BEQ $C7A8                       A:00 X:FF Y:00 P:26 SP:FF PPU:  0,  0 CYC:12609
C7A8  AD 02 20  LDA $2002 = 00                  A:00 X:FF Y:00 P:26 SP:FF PPU:  0,  0 CYC:12612
C7AB  29 80     AND #$80                        A:00 X:FF Y:00 P:26 SP:FF PPU:  0,  0 CYC:12616
C7AD  F0 F9     BEQ $C7A8                       A:00 X:FF Y:00 P:26 SP:FF PPU:  0,  0 CYC:12618
C7A8  AD 02 20  LDA $2002 = 00                  A:00 X:FF Y:00 P:26 SP:FF PPU:  0,  0 CYC:12621
C7AB  29 80     AND #$80                        A:00 X:FF Y:00 P:26 SP:FF PPU:  0,  0 CYC:12625
C7AD  F0 F9     BEQ $C7A8                       A:00 X:FF Y:00 P:26 SP:FF PPU:  0,  0 CYC:12627
C7A8  AD 02 20  LDA $2002 = 00                  A:00 X:FF Y:00 P:26 SP:FF PPU:  0,  0 CYC:12630
C7AB  29 80     AND #$80                        A:00 X:FF Y:00 P:26 SP:FF PPU:  0,  0 CYC:12634
C7AD  F0 F9     BEQ $C7A8                       A:00 X:FF Y:00 P:26 SP:FF PPU:  0,  0 CYC:12636
C7A8  AD 02 20  LDA $2002 = 00                  A:00 X:FF Y:00 P:26 SP:FF PPU:  0,  0 CYC:12639
C7AB  29 80     AND #$80                        A:00 X:FF Y:00 P:26 SP:FF PPU:  0,  0 CYC:12643
C7AD  F0 F9     BEQ $C7A8                       A:00 X:FF Y:00 P:26 SP:FF PPU:  0,  0 CYC:12645
C7A8  AD 02 20  LDA $2002 = 00                  A:00 X:FF Y:00 P:26 SP:FF PPU:  0,  0 CYC:12648
C7AB  29 80     AND #$80                        A:00 X:FF Y:00 P:26 SP:FF PPU:  0,  0 CYC:12652
C7AD  F0 F9     BEQ $C7A8                       A:00 X:FF Y:00 P:26 SP:FF PPU:  0,  0 CYC:12654
C7A8  AD 02 20  LDA $2002 = 00                  A:00 X:FF Y:00 P:26 SP:FF PPU:  0,  0 CYC:12657
C7AB  29 80     AND #$80                        A:00 X:FF Y:00 P:26 SP:FF PPU:  0,  0 CYC:12661
C7AD  F0 F9     BEQ $C7A8                       A:00 X:FF Y:00 P:26 SP:FF PPU:  0,  0 CYC:12663
C7A8  AD 02 20  LDA $2002 = 00                  A:00 X:FF Y:00 P:26 SP:FF PPU:  0,  0 CYC:12666
C7AB  29 80     AND #$80                        A:00 X:FF Y:00 P:26 SP:FF PPU:  0,  0 CYC:12670
C7AD  F0 F9     BEQ $C7A8                       A:00 X:FF Y:00 P:26 SP:FF PPU:  0,  0 CYC:12672
C7A8  AD 02 20  LDA $2002 = 00                  A:00 X:FF Y:00 P:26 SP:FF PPU:  0,  0 CYC:12675
C7AB  29 80     AND #$80                        A:00 X:FF Y:00 P:26 SP:FF PPU:  0,  0 CYC:12679
C7AD  F0 F9     BEQ $C7A8                       A:00 X:FF Y:00 P:26 SP:FF PPU:  0,  0 CYC:12681
C7A8  AD 02 20  LDA $2002 = 00                  A:00 X:FF Y:00 P:26 SP:FF PPU:  0,  0 CYC:12684
C7AB  29 80     AND #$80                        A:00 X:FF Y:00 P:26 SP:FF PPU:  0,  0 CYC:12688
C7AD  F0 F9     BEQ $C7A8                       A:00 X:FF Y:00 P:26 SP:FF PPU:  0,  0 CYC:12690
C7A8  AD 02 20  LDA $2002 = 00                  A:00 X:FF Y:00 P:26 SP:FF PPU:  0,  0 CYC:12693
C7AB  29 80     AND #$80                        A:00 X:FF Y:00 P:26 SP:FF PPU:  0,  0 CYC:12697
C7AD  F0 F9     BEQ $C7A8                       A:00 X:FF Y:00 P:26 SP:FF PPU:  0,  0 CYC:12699
C7A8  AD 02 20  LDA $2002 = 00                  A:00 X:FF Y:00 P:26 SP:FF PPU:  0,  0 CYC:12702
C7AB  29 80     AND #$80                        A:00 X:FF Y:00 P:26 SP:FF PPU:  0,  0 CYC:12706
C7AD  F0 F9     BEQ $C7A8                       A:00 X:FF Y:00 P:26 SP:FF PPU:  0,  0 CYC:12708
C7A8  AD 02 20  LDA $2002 = 00                  A:00 X:FF Y:00 P:26 SP:FF PPU:  0,  0 CYC:12711
C7AB  29 80     AND #$80                        A:00 X:FF Y:00 P:26 SP:FF PPU:  0,  0 CYC:12715
C7AD  F0 F9     BEQ $C7A8                       A:00 X:FF Y:00 P:26 SP:FF PPU:  0,  0 CYC:12717
C7A8  AD 02 20  LDA $2002 = 00                  A:00 X:FF Y:00 P:26 SP:FF PPU:  0,  0 CYC:12720
C7AB  29 80     AND #$80                        A:00 X:FF Y:00 P:26 SP:FF PPU:  0,  0 CYC:12724
C7AD  F0 F9     BEQ $C7A8                       A:00 X:FF Y:00 P:26 SP:FF PPU:  0,  0 CYC:12726
C7A8  AD 02 20  LDA $2002 = 00                  A:00 X:FF Y:00 P:26 SP:FF PPU:  0,  0 CYC:12729
C7AB  29 80     AND #$80                        A:00 X:FF Y:00 P:26 SP:FF PPU:  0,  0 CYC:12733
C7AD  F0 F9     BEQ $C7A8                       A:00 X:FF Y:00 P:26 SP:FF PPU:  0,  0 CYC:12735
C7A8  AD 02 20  LDA $2002 = 00                  A:00 X:FF Y:00 P:26 SP:FF PPU:  0,  0 CYC:12738
C7AB  29 80     AND #$80                        A:00 X:FF Y:00 P:26 SP:FF PPU:  0,  0 CYC:12742
C7AD  F0 F9     BEQ $C7A8                       A:00 X:FF Y:00 P:26 SP:FF PPU:  0,  0 CYC:12744
C7A8  AD 02 20  LDA $2002 = 00                  A:00 X:FF Y:00 P:26 SP:FF PPU:  0,  0 CYC:12747
C7AB  29 80     AND #$80                        A:00 X:FF Y:00 P:26 SP:FF PPU:  0,  0 CYC:12751
C7AD  F0 F9     BEQ $C7A8                       A:00 X:FF Y:00 P:26 SP:FF PPU:  0,  0 CYC:12753
C7A8  AD 02 20  LDA $2002 = 00                  A:00 X:FF Y:00 P:26 SP:FF PPU:  0,  0 CYC:12756
C7AB  29 80     AND #$80                        A:00 X:FF Y:00 P:26 SP:FF PPU:  0,  0 CYC:12760
C7AD  F0 F9     BEQ $C7A8                       A:00 X:FF Y:00 P:26 SP:FF PPU:  0,  0 CYC:12762
C7A8  AD 02 20  LDA $2002 = 00                  A:00 X:FF Y:00 P:26 SP:FF PPU:  0,  0 CYC:12765
C7AB  29 80     AND #$80                        A:00 X:FF Y:00 P:26 SP:FF PPU:  0,  0 CYC:12769
C7AD  F0 F9     BEQ $C7A8                       A:00 X:FF Y:00 P:26 SP:FF PPU:  0,  0 CYC:12771
C7A8  AD 02 20  LDA $2002 = 00                  A:00 X:FF Y:00 P:26 SP:FF PPU:  0,  0 CYC:12774
C7AB  29 80     AND #$80                        A:00 X:FF Y:00 P:26 SP:FF PPU:  0,  0 CYC:12778
C7AD  F0 F9     BEQ $C7A8                       A:00 X:FF Y:00 P:26 SP:FF PPU:  0,  0 CYC:12780
C7A8  AD 02 20  LDA $2002 = 00                  A:00 X:FF Y:00 P:26 SP:FF PPU:  0,  0 CYC:12783
C7AB  29 80     AND #$80                        A:00 X:FF Y:00 P:26 SP:FF PPU:  0,  0 CYC:12787
C7AD  F0 F9     BEQ $C7A8                       A:00 X:FF Y:00 P:26 SP:FF PPU:  0,  0 CYC:12789
C7A8  AD 02 20  LDA $2002 = 00                  A:00 X:FF Y:00 P:26 SP:FF PPU:  0,  0 CYC:12792
C7AB  29 80     AND #$80                        A:00 X:FF Y:00 P:26 SP:FF PPU:  0,  0 CYC:12796
C7AD  F0 F9     BEQ $C7A8                       A:00 X:FF Y:00 P:26 SP:FF PPU:  0,  0 CYC:12798
C7A8  AD 02 20  LDA $2002 = 00                  A:00 X:FF Y:00 P:26 SP:FF PPU:  0,  0 CYC:12801
C7AB  29 80     AND #$80                        A:00 X:FF Y:00 P:26 SP:FF PPU:  0,  0 CYC:12805
C7AD  F0 F9     BEQ $C7A8                       A:00 X:FF Y:00 P:26 SP:FF PPU:  0,  0 CYC:12807
C7A8  AD 02 20  LDA $2002 = 00                  A:00 X:FF Y:00 P:26 SP:FF PPU:  0,  0 CYC:12810
C7AB  29 80     AND #$80                        A:00 X:FF Y:00 P:26 SP:FF PPU:  0,  0 CYC:12814
C7AD  F0 F9     BEQ $C7A8                       A:00 X:FF Y:00 P:26 SP:FF PPU:  0,  0 CYC:12816
C7A8  AD 02 20  LDA $2002 = 00                  A:00 X:FF Y:00 P:26 SP:FF PPU:  0,  0 CYC:12819
C7AB  29 80     AND #$80                        A:00 X:FF Y:00 P:26 SP:FF PPU:  0,  0 CYC:12823
C7AD  F0 F9     BEQ $C7A8                       A:00 X:FF Y:00 P:26 SP:FF PPU:  0,  0 CYC:12825
C7A8  AD 02 20  LDA $2002 = 00                  A:00 X:FF Y:00 P:26 SP:FF PPU:  0,  0 CYC:12828
C7AB  29 80     AND #$80                        A:00 X:FF Y:00 P:26 SP:FF PPU:  0,  0 CYC:12832
C7AD  F0 F9     BEQ $C7A8                       A:00 X:FF Y:00 P:26 SP:FF PPU:  0,  0 CYC:12834
C7A8  AD 02 20  LDA $2002 = 00                  A:00 X:FF Y:00 P:26 SP:FF PPU:  0,  0 CYC:12837
C7AB  29 80     AND #$80                        A:00 X:FF Y:00 P:26 SP:FF PPU:  0,  0 CYC:12841
C7AD  F0 F9     BEQ $C7A8                       A:00 X:FF Y:00 P:26 SP:FF PPU:  0,  0 CYC:12843
C7A8  AD 02 20  LDA $2002 = 00                  A:00 X:FF Y:00 P:26 SP:FF PPU:  0,  0 CYC:12846
C7AB  29 80     AND #$80                        A:00 X:FF Y:00 P:26 SP:FF PPU:  0,  0 CYC:12850
C7AD  F0 F9     BEQ $C7A8                       A:00 X:FF Y:00 P:26 SP:FF PPU:  0,  0 CYC:12852
C7A8  AD 02 20  LDA $2002 = 00                  A:00 X:FF Y:00 P:26 SP:FF PPU:  0,  0 CYC:12855
C7AB  29 80     AND #$80                        A:00 X:FF Y:00 P:26 SP:FF PPU:  0,  0 CYC:12859
C7AD  F0 F9     BEQ $C7A8                       A:00 X:FF Y:00 P:26 SP:FF PPU:  0,  0 CYC:12861
C7A8  AD 02 20  LDA $2002 = 00                  A:00 X:FF Y:00 P:26 SP:FF PPU:  0,  0 CYC:12864
C7AB  29 80     AND #$80                        A:00 X:FF Y:00 P:26 SP:FF PPU:  0,  0 CYC:12868
C7AD  F0 F9     BEQ $C7A8                       A:00 X:FF Y:00 P:26 SP:FF PPU:  0,  0 CYC:12870
C7A8  AD 02 20  LDA $2002 = 00                  A:00 X:FF Y:00 P:26 SP:FF PPU:  0,  0 CYC:12873
C7AB  29 80     AND #$80                        A:00 X:FF Y:00 P:26 SP:FF PPU:  0,  0 CYC:12877
C7AD  F0 F9     BEQ $C7A8                       A:00 X:FF Y:00 P:26 SP:FF PPU:  0,  0 CYC:12879
C7A8  AD 02 20  LDA $2002 = 00                  A:00 X:FF Y:00 P:26 SP:FF PPU:  0,  0 CYC:12882
C7AB  29 80     AND #$80                        A:00 X:FF Y:00 P:26 SP:FF PPU:  0,  0 CYC:12886
C7AD  F0 F9     BEQ $C7A8                       A:00 X:FF Y:00 P:26 SP:FF PPU:  0,  0 CYC:12888
C7A8  AD 02 20  LDA $2002 = 00                  A:00 X:FF Y:00 P:26 SP:FF PPU:  0,  0 CYC:12891
C7AB  29 80     AND #$80                        A:00 X:FF Y:00 P:26 SP:FF PPU:  0,  0 CYC:12895
C7AD  F0 F9     BEQ $C7A8                       A:00 X:FF Y:00 P:26 SP:FF PPU:  0,  0 CYC:12897
C7A8  AD 02 20  LDA $2002 = 00                  A:00 X:FF Y:00 P:26 SP:FF PPU:  0,  0 CYC:12900
C7AB  29 80     AND #$80                        A:00 X:FF Y:00 P:26 SP:FF PPU:  0,  0 CYC:12904
C7AD  F0 F9     BEQ $C7A8                       A:00 X:FF Y:00 P:26 SP:FF PPU:  0,  0 CYC:12906
C7A8  AD 02 20  LDA $2002 = 00                  A:00 X:FF Y:00 P:26 SP:FF PPU:  0,  0 CYC:12909
C7AB  29 80     AND #$80                        A:00 X:FF Y:00 P:26 SP:FF PPU:  0,  0 CYC:12913
C7AD  F0 F9     BEQ $C7A8                       A:00 X:FF Y:00 P:26 SP:FF PPU:  0,  0 CYC:12915
C7A8  AD 02 20  LDA $2002 = 00                  A:00 X:FF Y:00 P:26 SP:FF PPU:  0,  0 CYC:12918
C7AB  29 80     AND #$80                        A:00 X:FF Y:00 P:26 SP:FF PPU:  0,  0 CYC:12922
C7AD  F0 F9     BEQ $C7A8                       A:00 X:FF Y:00 P:26 SP:FF PPU:  0,  0 CYC:12924
C7A8  AD 02 20  LDA $2002 = 00                  A:00 X:FF Y:00 P:26 SP:FF PPU:  0,  0 CYC:12927
C7AB  29 80     AND #$80                        A:00 X:FF Y:00 P:26 SP:FF PPU:  0,  0 CYC:12931
C7AD  F0 F9     BEQ $C7A8                       A:00 X:FF Y:00 P:26 SP:FF PPU:  0,  0 CYC:12933
C7A8  AD 02 20  LDA $2002 = 00                  A:00 X:FF Y:00 P:26 SP:FF PPU:  0,  0 CYC:12936
C7AB  29 80     AND #$80                        A:00 X:FF Y:00 P:26 SP:FF PPU:  0,  0 CYC:12940
C7AD  F0 F9     BEQ $C7A8                       A:00 X:FF Y:00 P:26 SP:FF PPU:  0,  0 CYC:12942
C7A8  AD 02 20  LDA $2002 = 00                  A:00 X:FF Y:00 P:26 SP:FF PPU:  0,  0 CYC:12945
C7AB  29 80     AND #$80                        A:00 X:FF Y:00 P:26 SP:FF PPU:  0,  0 CYC:12949
C7AD  F0 F9     BEQ $C7A8                       A:00 X:FF Y:00 P:26 SP:FF PPU:  0,  0 CYC:12951
C7A8  AD 02 20  LDA $2002 = 00                  A:00 X:FF Y:00 P:26 SP:FF PPU:  0,  0 CYC:12954
C7AB  29 80     AND #$80                        A:00 X:FF Y:00 P:26 SP:FF PPU:  0,  0 CYC:12958
C7AD  F0 F9     BEQ $C7A8                       A:00 X:FF Y:00 P:26 SP:FF PPU:  0,  0 CYC:12960
C7A8  AD 02 20  LDA $2002 = 00                  A:00 X:FF Y:00 P:26 SP:FF PPU:  0,  0 CYC:12963
C7AB  29 80     AND #$80                        A:00 X:FF Y:00 P:26 SP:FF PPU:  0,  0 CYC:12967
C7AD  F0 F9     BEQ $C7A8                       A:00 X:FF Y:00 P:26 SP:FF PPU:  0,  0 CYC:12969
C7A8  AD 02 20  LDA $2002 = 00                  A:00 X:FF Y:00 P:26 SP:FF PPU:  0,  0 CYC:12972
C7AB  29 80     AND #$80                        A:00 X:FF Y:00 P:26 SP:FF PPU:  0,  0 CYC:12976
C7AD  F0 F9     BEQ $C7A8                       A:00 X:FF Y:00 P:26 SP:FF PPU:  0,  0 CYC:12978
C7A8  AD 02 20  LDA $2002 = 00                  A:00 X:FF Y:00 P:26 SP:FF PPU:  0,  0 CYC:12981
C7AB  29 80     AND #$80                        A:00 X:FF Y:00 P:26 SP:FF PPU:  0,  0 CYC:12985
C7AD  F0 F9     BEQ $C7A8                       A:00 X:FF Y:00 P:26 SP:FF PPU:  0,  0 CYC:12987
C7A8  AD 02 20  LDA $2002 = 00                  A:00 X:FF Y:00 P:26 SP:FF PPU:  0,  0 CYC:12990
C7AB  29 80     AND #$80                        A:00 X:FF Y:00 P:26 SP:FF PPU:  0,  0 CYC:12994
C7AD  F0 F9     BEQ $C7A8                       A:00 X:FF Y:00 P:26 SP:FF PPU:  0,  0 CYC:12996
C7A8  AD 02 20  LDA $2002 = 00                  A:00 X:FF Y:00 P:26 SP:FF PPU:  0,  0 CYC:12999
C7AB  29 80     AND #$80                        A:00 X:FF Y:00 P:26 SP:FF PPU:  0,  0 CYC:13003
C7AD  F0 F9     BEQ $C7A8                       A:00 X:FF Y:00 P:26 SP:FF PPU:  0,  0 CYC:13005
C7A8  AD 02 20  LDA $2002 = 00                  A:00 X:FF Y:00 P:26 SP:FF PPU:  0,  0 CYC:13008
C7AB  29 80     AND #$80                        A:00 X:FF Y:00 P:26 SP:FF PPU:  0,  0 CYC:13012
C7AD  F0 F9     BEQ $C7A8                       A:00 X:FF Y:00 P:26 SP:FF PPU:  0,  0 CYC:13014
C7A8  AD 02 20  LDA $2002 = 00                  A:00 X:FF Y:00 P:26 SP:FF PPU:  0,  0 CYC:13017
C7AB  29 80     AND #$80                        A:00 X:FF Y:00 P:26 SP:FF PPU:  0,  0 CYC:13021
C7AD  F0 F9     BEQ $C7A8                       A:00 X:FF Y:00 P:26 SP:FF PPU:  0,  0 CYC:13023
C7A8  AD 02 20  LDA $2002 = 00                  A:00 X:FF Y:00 P:26 SP:FF PPU:  0,  0 CYC:13026
C7AB  29 80     AND #$80                        A:00 X:FF Y:00 P:26 SP:FF PPU:  0,  0 CYC:13030
C7AD  F0 F9     BEQ $C7A8                       A:00 X:FF Y:00 P:26 SP:FF PPU:  0,  0 CYC:13032
C7A8  AD 02 20  LDA $2002 = 00                  A:00 X:FF Y:00 P:26 SP:FF PPU:  0,  0 CYC:13035
C7AB  29 80     AND #$80                        A:00 X:FF Y:00 P:26 SP:FF PPU:  0,  0 CYC:13039
C7AD  F0 F9     BEQ $C7A8                       A:00 X:FF Y:00 P:26 SP:FF PPU:  0,  0 CYC:13041
C7A8  AD 02 20  LDA $2002 = 00                  A:00 X:FF Y:00 P:26 SP:FF PPU:  0,  0 CYC:13044
C7AB  29 80     AND #$80                        A:00 X:FF Y:00 P:26 SP:FF PPU:  0,  0 CYC:13048
C7AD  F0 F9     BEQ $C7A8                       A:00 X:FF Y:00 P:26 SP:FF PPU:  0,  0 CYC:13050
C7A8  AD 02 20  LDA $2002 = 00                  A:00 X:FF Y:00 P:26 SP:FF PPU:  0,  0 CYC:13053
C7AB  29 80     AND #$80                        A:00 X:FF Y:00 P:26 SP:FF PPU:  0,  0 CYC:13057
C7AD  F0 F9     BEQ $C7A8                       A:00 X:FF Y:00 P:26 SP:FF PPU:  0,  0 CYC:13059
C7A8  AD 02 20  LDA $2002 = 00                  A:00 X:FF Y:00 P:26 SP:FF PPU:  0,  0 CYC:13062
C7AB  29 80     AND #$80                        A:00 X:FF Y:00 P:26 SP:FF PPU:  0,  0 CYC:13066
C7AD  F0 F9     BEQ $C7A8                       A:00 X:FF Y:00 P:26 SP:FF PPU:  0,  0 CYC:13068
C7A8  AD 02 20  LDA $2002 = 00                  A:00 X:FF Y:00 P:26 SP:FF PPU:  0,  0 CYC:13071
C7AB  29 80     AND #$80                        A:00 X:FF Y:00 P:26 SP:FF PPU:  0,  0 CYC:13075
C7AD  F0 F9     BEQ $C7A8                       A:00 X:FF Y:00 P:26 SP:FF PPU:  0,  0 CYC:13077
C7A8  AD 02 20  LDA $2002 = 00                  A:00 X:FF Y:00 P:26 SP:FF PPU:  0,  0 CYC:13080
C7AB  29 80     AND #$80                        A:00 X:FF Y:00 P:26 SP:FF PPU:  0,  0 CYC:13084
C7AD  F0 F9     BEQ $C7A8                       A:00 X:FF Y:00 P:26 SP:FF PPU:  0,  0 CYC:13086
C7A8  AD 02 20  LDA $2002 = 00                  A:00 X:FF Y:00 P:26 SP:FF PPU:  0,  0 CYC:13089
C7AB  29 80     AND #$80                        A:00 X:FF Y:00 P:26 SP:FF PPU:  0,  0 CYC:13093
C7AD  F0 F9     BEQ $C7A8                       A:00 X:FF Y:00 P:26 SP:FF PPU:  0,  0 CYC:13095
C7A8  AD 02 20  LDA $2002 = 00                  A:00 X:FF Y:00 P:26 SP:FF PPU:  0,  0 CYC:13098
C7AB  29 80     AND #$80                        A:00 X:FF Y:00 P:26 SP:FF PPU:  0,  0 CYC:13102
C7AD  F0 F9     BEQ $C7A8                       A:00 X:FF Y:00 P:26 SP:FF PPU:  0,  0 CYC:13104
C7A8  AD 02 20  LDA $2002 = 00                  A:00 X:FF Y:00 P:26 SP:FF PPU:  0,  0 CYC:13107
C7AB  29 80     AND #$80                        A:00 X:FF Y:00 P:26 SP:FF PPU:  0,  0 CYC:13111
C7AD  F0 F9     BEQ $C7A8                       A:00 X:FF Y:00 P:26 SP:FF PPU:  0,  0 CYC:13113
C7A8  AD 02 20  LDA $2002 = 00                  A:00 X:FF Y:00 P:26 SP:FF PPU:  0,  0 CYC:13116
C7AB  29 80     AND #$80                        A:00 X:FF Y:00 P:26 SP:FF PPU:  0,  0 CYC:13120
C7AD  F0 F9     BEQ $C7A8                       A:00 X:FF Y:00 P:26 SP:FF PPU:  0,  0 CYC:13122
C7A8  AD 02 20  LDA $2002 = 00                  A:00 X:FF Y:00 P:26 SP:FF PPU:  0,  0 CYC:13125
C7AB  29 80     AND #$80                        A:00 X:FF Y:00 P:26 SP:FF PPU:  0,  0 CYC:13129
C7AD  F0 F9     BEQ $C7A8                       A:00 X:FF Y:00 P:26 SP:FF PPU:  0,  0 CYC:13131
C7A8  AD 02 20  LDA $2002 = 00                  A:00 X:FF Y:00 P:26 SP:FF PPU:  0,  0 CYC:13134
C7AB  29 80     AND #$80                        A:00 X:FF Y:00 P:26 SP:FF PPU:  0,  0 CYC:13138
C7AD  F0 F9     BEQ $C7A8                       A:00 X:FF Y:00 P:26 SP:FF PPU:  0,  0 CYC:13140
C7A8  AD 02 20  LDA $2002 = 00                  A:00 X:FF Y:00 P:26 SP:FF PPU:  0,  0 CYC:13143
C7AB  29 80     AND #$80                        A:00 X:FF Y:00 P:26 SP:FF PPU:  0,  0 CYC:13147
C7AD  F0 F9     BEQ $C7A8                       A:00 X:FF Y:00 P:26 SP:FF PPU:  0,  0 CYC:13149
C7A8  AD 02 20  LDA $2002 = 00                  A:00 X:FF Y:00 P:26 SP:FF PPU:  0,  0 CYC:13152
C7AB  29 80     AND #$80                        A:00 X:FF Y:00 P:26 SP:FF PPU:  0,  0 CYC:13156
C7AD  F0 F9     BEQ $C7A8                       A:00 X:FF Y:00 P:26 SP:FF PPU:  0,  0 CYC:13158
C7A8  AD 02 20  LDA $2002 = 00                  A:00 X:FF Y:00 P:26 SP:FF PPU:  0,  0 CYC:13161
C7AB  29 80     AND #$80                        A:00 X:FF Y:00 P:26 SP:FF PPU:  0,  0 CYC:13165
C7AD  F0 F9     BEQ $C7A8                       A:00 X:FF Y:00 P:26 SP:FF PPU:  0,  0 CYC:13167
C7A8  AD 02 20  LDA $2002 = 00                  A:00 X:FF Y:00 P:26 SP:FF PPU:  0,  0 CYC:13170
C7AB  29 80     AND #$80                        A:00 X:FF Y:00 P:26 SP:FF PPU:  0,  0 CYC:13174
C7AD  F0 F9     BEQ $C7A8                       A:00 X:FF Y:00 P:26 SP:FF PPU:  0,  0 CYC:13176
C7A8  AD 02 20  LDA $2002 = 00                  A:00 X:FF Y:00 P:26 SP:FF PPU:  0,  0 CYC:13179
C7AB  29 80     AND #$80                        A:00 X:FF Y:00 P:26 SP:FF PPU:  0,  0 CYC:13183
C7AD  F0 F9     BEQ $C7A8                       A:00 X:FF Y:00 P:26 SP:FF PPU:  0,  0 CYC:13185
C7A8  AD 02 20  LDA $2002 = 00                  A:00 X:FF Y:00 P:26 SP:FF PPU:  0,  0 CYC:13188
C7AB  29 80     AND #$80                        A:00 X:FF Y:00 P:26 SP:FF PPU:  0,  0 CYC:13192
C7AD  F0 F9     BEQ $C7A8                       A:00 X:FF Y:00 P:26 SP:FF PPU:  0,  0 CYC:13194
C7A8  AD 02 20  LDA $2002 = 00                  A:00 X:FF Y:00 P:26 SP:FF PPU:  0,  0 CYC:13197
C7AB  29 80     AND #$80                        A:00 X:FF Y:00 P:26 SP:FF PPU:  0,  0 CYC:13201
C7AD  F0 F9     BEQ $C7A8                       A:00 X:FF Y:00 P:26 SP:FF PPU:  0,  0 CYC:13203
C7A8  AD 02 20  LDA $2002 = 00                  A:00 X:FF Y:00 P:26 SP:FF PPU:  0,  0 CYC:13206
C7AB  29 80     AND #$80                        A:00 X:FF Y:00 P:26 SP:FF PPU:  0,  0 CYC:13210
C7AD  F0 F9     BEQ $C7A8                       A:00 X:FF Y:00 P:26 SP:FF PPU:  0,  0 CYC:13212
C7A8  AD 02 20  LDA $2002 = 00                  A:00 X:FF Y:00 P:26 SP:FF PPU:  0,  0 CYC:13215
C7AB  29 80     AND #$80                        A:00 X:FF Y:00 P:26 SP:FF PPU:  0,  0 CYC:13219
C7AD  F0 F9     BEQ $C7A8                       A:00 X:FF Y:00 P:26 SP:FF PPU:  0,  0 CYC:13221
C7A8  AD 02 20  LDA $2002 = 00                  A:00 X:FF Y:00 P:26 SP:FF PPU:  0,  0 CYC:13224
C7AB  29 80     AND #$80                        A:00 X:FF Y:00 P:26 SP:FF PPU:  0,  0 CYC:13228
C7AD  F0 F9     BEQ $C7A8                       A:00 X:FF Y:00 P:26 SP:FF PPU:  0,  0 CYC:13230
C7A8  AD 02 20  LDA $2002 = 00                  A:00 X:FF Y:00 P:26 SP:FF PPU:  0,  0 CYC:13233
C7AB  29 80     AND #$80                        A:00 X:FF Y:00 P:26 SP:FF PPU:  0,  0 CYC:13237
C7AD  F0 F9     BEQ $C7A8                       A:00 X:FF Y:00 P:26 SP:FF PPU:  0,  0 CYC:13239
C7A8  AD 02 20  LDA $2002 = 00                  A:00 X:FF Y:00 P:26 SP:FF PPU:  0,  0 CYC:13242
C7AB  29 80     AND #$80                        A:00 X:FF Y:00 P:26 SP:FF PPU:  0,  0 CYC:13246
C7AD  F0 F9     BEQ $C7A8                       A:00 X:FF Y:00 P:26 SP:FF PPU:  0,  0 CYC:13248
C7A8  AD 02 20  LDA $2002 = 00                  A:00 X:FF Y:00 P:26 SP:FF PPU:  0,  0 CYC:13251
C7AB  29 80     AND #$80                        A:00 X:FF Y:00 P:26 SP:FF PPU:  0,  0 CYC:13255
C7AD  F0 F9     BEQ $C7A8                       A:00 X:FF Y:00 P:26 SP:FF PPU:  0,  0 CYC:13257
C7A8  AD 02 20  LDA $2002 = 00                  A:00 X:FF Y:00 P:26 SP:FF PPU:  0,  0 CYC:13260
C7AB  29 80     AND #$80                        A:00 X:FF Y:00 P:26 SP:FF PPU:  0,  0 CYC:13264
C7AD  F0 F9     BEQ $C7A8                       A:00 X:FF Y:00 P:26 SP:FF PPU:  0,  0 CYC:13266
C7A8  AD 02 20  LDA $2002 = 00                  A:00 X:FF Y:00 P:26 SP:FF PPU:  0,  0 CYC:13269
C7AB  29 80     AND #$80                        A:00 X:FF Y:00 P:26 SP:FF PPU:  0,  0 CYC:13273
C7AD  F0 F9     BEQ $C7A8                       A:00 X:FF Y:00 P:26 SP:FF PPU:  0,  0 CYC:13275
C7A8  AD 02 20  LDA $2002 = 00                  A:00 X:FF Y:00 P:26 SP:FF PPU:  0,  0 CYC:13278
C7AB  29 80     AND #$80                        A:00 X:FF Y:00 P:26 SP:FF PPU:  0,  0 CYC:13282
C7AD  F0 F9     BEQ $C7A8                       A:00 X:FF Y:00 P:26 SP:FF PPU:  0,  0 CYC:13284
C7A8  AD 02 20  LDA $2002 = 00                  A:00 X:FF Y:00 P:26 SP:FF PPU:  0,  0 CYC:13287
C7AB  29 80     AND #$80                        A:00 X:FF Y:00 P:26 SP:FF PPU:  0,  0 CYC:13291
C7AD  F0 F9     BEQ $C7A8                       A:00 X:FF Y:00 P:26 SP:FF PPU:  0,  0 CYC:13293
C7A8  AD 02 20  LDA $2002 = 00                  A:00 X:FF Y:00 P:26 SP:FF PPU:  0,  0 CYC:13296
C7AB  29 80     AND #$80                        A:00 X:FF Y:00 P:26 SP:FF PPU:  0,  0 CYC:13300
C7AD  F0 F9     BEQ $C7A8                       A:00 X:FF Y:00 P:26 SP:FF PPU:  0,  0 CYC:13302
C7A8  AD 02 20  LDA $2002 = 00                  A:00 X:FF Y:00 P:26 SP:FF PPU:  0,  0 CYC:13305
C7AB  29 80     AND #$80                        A:00 X:FF Y:00 P:26 SP:FF PPU:  0,  0 CYC:13309
C7AD  F0 F9     BEQ $C7A8                       A:00 X:FF Y:00 P:26 SP:FF PPU:  0,  0 CYC:13311
C7A8  AD 02 20  LDA $2002 = 00                  A:00 X:FF Y:00 P:26 SP:FF PPU:  0,  0 CYC:13314
C7AB  29 80     AND #$80                        A:00 X:FF Y:00 P:26 SP:FF PPU:  0,  0 CYC:13318
C7AD  F0 F9     BEQ $C7A8                       A:00 X:FF Y:00 P:26 SP:FF PPU:  0,  0 CYC:13320
C7A8  AD 02 20  LDA $2002 = 00                  A:00 X:FF Y:00 P:26 SP:FF PPU:  0,  0 CYC:13323
C7AB  29 80     AND #$80                        A:00 X:FF Y:00 P:26 SP:FF PPU:  0,  0 CYC:13327
C7AD  F0 F9     BEQ $C7A8                       A:00 X:FF Y:00 P:26 SP:FF PPU:  0,  0 CYC:13329
C7A8  AD 02 20  LDA $2002 = 00                  A:00 X:FF Y:00 P:26 SP:FF PPU:  0,  0 CYC:13332
C7AB  29 80     AND #$80                        A:00 X:FF Y:00 P:26 SP:FF PPU:  0,  0 CYC:13336
C7AD  F0 F9     BEQ $C7A8                       A:00 X:FF Y:00 P:26 SP:FF PPU:  0,  0 CYC:13338
C7A8  AD 02 20  LDA $2002 = 00                  A:00 X:FF Y:00 P:26 SP:FF PPU:  0,  0 CYC:13341
C7AB  29 80     AND #$80                        A:00 X:FF Y:00 P:26 SP:FF PPU:  0,  0 CYC:13345
C7AD  F0 F9     BEQ $C7A8                       A:00 X:FF Y:00 P:26 SP:FF PPU:  0,  0 CYC:13347
C7A8  AD 02 20  LDA $2002 = 00                  A:00 X:FF Y:00 P:26 SP:FF PPU:  0,  0 CYC:13350
C7AB  29 80     AND #$80                        A:00 X:FF Y:00 P:26 SP:FF PPU:  0,  0 CYC:13354
C7AD  F0 F9     BEQ $C7A8                       A:00 X:FF Y:00 P:26 SP:FF PPU:  0,  0 CYC:13356
C7A8  AD 02 20  LDA $2002 = 00                  A:00 X:FF Y:00 P:26 SP:FF PPU:  0,  0 CYC:13359
C7AB  29 80     AND #$80                        A:00 X:FF Y:00 P:26 SP:FF PPU:  0,  0 CYC:13363
C7AD  F0 F9     BEQ $C7A8                       A:00 X:FF Y:00 P:26 SP:FF PPU:  0,  0 CYC:13365
C7A8  AD 02 20  LDA $2002 = 00                  A:00 X:FF Y:00 P:26 SP:FF PPU:  0,  0 CYC:13368
C7AB  29 80     AND #$80                        A:00 X:FF Y:00 P:26 SP:FF PPU:  0,  0 CYC:13372
C7AD  F0 F9     BEQ $C7A8                       A:00 X:FF Y:00 P:26 SP:FF PPU:  0,  0 CYC:13374
C7A8  AD 02 20  LDA $2002 = 00                  A:00 X:FF Y:00 P:26 SP:FF PPU:  0,  0 CYC:13377
C7AB  29 80     AND #$80                        A:00 X:FF Y:00 P:26 SP:FF PPU:  0,  0 CYC:13381
C7AD  F0 F9     BEQ $C7A8                       A:00 X:FF Y:00 P:26 SP:FF PPU:  0,  0 CYC:13383
C7A8  AD 02 20  LDA $2002 = 00                  A:00 X:FF Y:00 P:26 SP:FF PPU:  0,  0 CYC:13386
C7AB  29 80     AND #$80                        A:00 X:FF Y:00 P:26 SP:FF PPU:  0,  0 CYC:13390
C7AD  F0 F9     BEQ $C7A8                       A:00 X:FF Y:00 P:26 SP:FF PPU:  0,  0 CYC:13392
C7A8  AD 02 20  LDA $2002 = 00                  A:00 X:FF Y:00 P:26 SP:FF PPU:  0,  0 CYC:13395
C7AB  29 80     AND #$80                        A:00 X:FF Y:00 P:26 SP:FF PPU:  0,  0 CYC:13399
C7AD  F0 F9     BEQ $C7A8                       A:00 X:FF Y:00 P:26 SP:FF PPU:  0,  0 CYC:13401
C7A8  AD 02 20  LDA $2002 = 00                  A:00 X:FF Y:00 P:26 SP:FF PPU:  0,  0 CYC:13404
C7AB  29 80     AND #$80                        A:00 X:FF Y:00 P:26 SP:FF PPU:  0,  0 CYC:13408
C7AD  F0 F9     BEQ $C7A8                       A:00 X:FF Y:00 P:26 SP:FF PPU:  0,  0 CYC:13410
C7A8  AD 02 20  LDA $2002 = 00                  A:00 X:FF Y:00 P:26 SP:FF PPU:  0,  0 CYC:13413
C7AB  29 80     AND #$80                        A:00 X:FF Y:00 P:26 SP:FF PPU:  0,  0 CYC:13417
C7AD  F0 F9     BEQ $C7A8                       A:00 X:FF Y:00 P:26 SP:FF PPU:  0,  0 CYC:13419
C7A8  AD 02 20  LDA $2002 = 00                  A:00 X:FF Y:00 P:26 SP:FF PPU:  0,  0 CYC:13422
C7AB  29 80     AND #$80                        A:00 X:FF Y:00 P:26 SP:FF PPU:  0,  0 CYC:13426
C7AD  F0 F9     BEQ $C7A8                       A:00 X:FF Y:00 P:26 SP:FF PPU:  0,  0 CYC:13428
C7A8  AD 02 20  LDA $2002 = 00                  A:00 X:FF Y:00 P:26 SP:FF PPU:  0,  0 CYC:13431
C7AB  29 80     AND #$80                        A:00 X:FF Y:00 P:26 SP:FF PPU:  0,  0 CYC:13435
C7AD  F0 F9     BEQ $C7A8                       A:00 X:FF Y:00 P:26 SP:FF PPU:  0,  0 CYC:13437
C7A8  AD 02 20  LDA $2002 = 00                  A:00 X:FF Y:00 P:26 SP:FF PPU:  0,  0 CYC:13440
C7AB  29 80     AND #$80                        A:00 X:FF Y:00 P:26 SP:FF PPU:  0,  0 CYC:13444
C7AD  F0 F9     BEQ $C7A8                       A:00 X:FF Y:00 P:26 SP:FF PPU:  0,  0 CYC:13446
C7A8  AD 02 20  LDA $2002 = 00                  A:00 X:FF Y:00 P:26 SP:FF PPU:  0,  0 CYC:13449
C7AB  29 80     AND #$80                        A:00 X:FF Y:00 P:26 SP:FF PPU:  0,  0 CYC:13453
C7AD  F0 F9     BEQ $C7A8                       A:00 X:FF Y:00 P:26 SP:FF PPU:  0,  0 CYC:13455
C7A8  AD 02 20  LDA $2002 = 00                  A:00 X:FF Y:00 P:26 SP:FF PPU:  0,  0 CYC:13458
C7AB  29 80     AND #$80                        A:00 X:FF Y:00 P:26 SP:FF PPU:  0,  0 CYC:13462
C7AD  F0 F9     BEQ $C7A8                       A:00 X:FF Y:00 P:26 SP:FF PPU:  0,  0 CYC:13464
C7A8  AD 02 20  LDA $2002 = 00                  A:00 X:FF Y:00 P:26 SP:FF PPU:  0,  0 CYC:13467
C7AB  29 80     AND #$80                        A:00 X:FF Y:00 P:26 SP:FF PPU:  0,  0 CYC:13471
C7AD  F0 F9     BEQ $C7A8                       A:00 X:FF Y:00 P:26 SP:FF PPU:  0,  0 CYC:13473
C7A8  AD 02 20  LDA $2002 = 00                  A:00 X:FF Y:00 P:26 SP:FF PPU:  0,  0 CYC:13476
C7AB  29 80     AND #$80                        A:00 X:FF Y:00 P:26 SP:FF PPU:  0,  0 CYC:13480
C7AD  F0 F9     BEQ $C7A8                       A:00 X:FF Y:00 P:26 SP:FF PPU:  0,  0 CYC:13482
C7A8  AD 02 20  LDA $2002 = 00                  A:00 X:FF Y:00 P:26 SP:FF PPU:  0,  0 CYC:13485
C7AB  29 80     AND #$80                        A:00 X:FF Y:00 P:26 SP:FF PPU:  0,  0 CYC:13489
C7AD  F0 F9     BEQ $C7A8                       A:00 X:FF Y:00 P:26 SP:FF PPU:  0,  0 CYC:13491
C7A8  AD 02 20  LDA $2002 = 00                  A:00 X:FF Y:00 P:26 SP:FF PPU:  0,  0 CYC:13494
C7AB  29 80     AND #$80                        A:00 X:FF Y:00 P:26 SP:FF PPU:  0,  0 CYC:13498
C7AD  F0 F9     BEQ $C7A8                       A:00 X:FF Y:00 P:26 SP:FF PPU:  0,  0 CYC:13500
C7A8  AD 02 20  LDA $2002 = 00                  A:00 X:FF Y:00 P:26 SP:FF PPU:  0,  0 CYC:13503
C7AB  29 80     AND #$80                        A:00 X:FF Y:00 P:26 SP:FF PPU:  0,  0 CYC:13507
C7AD  F0 F9     BEQ $C7A8                       A:00 X:FF Y:00 P:26 SP:FF PPU:  0,  0 CYC:13509
C7A8  AD 02 20  LDA $2002 = 00                  A:00 X:FF Y:00 P:26 SP:FF PPU:  0,  0 CYC:13512
C7AB  29 80     AND #$80                        A:00 X:FF Y:00 P:26 SP:FF PPU:  0,  0 CYC:13516
C7AD  F0 F9     BEQ $C7A8                       A:00 X:FF Y:00 P:26 SP:FF PPU:  0,  0 CYC:13518
C7A8  AD 02 20  LDA $2002 = 00                  A:00 X:FF Y:00 P:26 SP:FF PPU:  0,  0 CYC:13521
C7AB  29 80     AND #$80                        A:00 X:FF Y:00 P:26 SP:FF PPU:  0,  0 CYC:13525
C7AD  F0 F9     BEQ $C7A8                       A:00 X:FF Y:00 P:26 SP:FF PPU:  0,  0 CYC:13527
C7A8  AD 02 20  LDA $2002 = 00                  A:00 X:FF Y:00 P:26 SP:FF PPU:  0,  0 CYC:13530
C7AB  29 80     AND #$80                        A:00 X:FF Y:00 P:26 SP:FF PPU:  0,  0 CYC:13534
C7AD  F0 F9     BEQ $C7A8                       A:00 X:FF Y:00 P:26 SP:FF PPU:  0,  0 CYC:13536
C7A8  AD 02 20  LDA $2002 = 00                  A:00 X:FF Y:00 P:26 SP:FF PPU:  0,  0 CYC:13539
C7AB  29 80     AND #$80                        A:00 X:FF Y:00 P:26 SP:FF PPU:  0,  0 CYC:13543
C7AD  F0 F9     BEQ $C7A8                       A:00 X:FF Y:00 P:26 SP:FF PPU:  0,  0 CYC:13545
C7A8  AD 02 20  LDA $2002 = 00                  A:00 X:FF Y:00 P:26 SP:FF PPU:  0,  0 CYC:13548
C7AB  29 80     AND #$80                        A:00 X:FF Y:00 P:26 SP:FF PPU:  0,  0 CYC:13552
C7AD  F0 F9     BEQ $C7A8                       A:00 X:FF Y:00 P:26 SP:FF PPU:  0,  0 CYC:13554
C7A8  AD 02 20  LDA $2002 = 00                  A:00 X:FF Y:00 P:26 SP:FF PPU:  0,  0 CYC:13557
C7AB  29 80     AND #$80                        A:00 X:FF Y:00 P:26 SP:FF PPU:  0,  0 CYC:13561
C7AD  F0 F9     BEQ $C7A8                       A:00 X:FF Y:00 P:26 SP:FF PPU:  0,  0 CYC:13563
C7A8  AD 02 20  LDA $2002 = 00                  A:00 X:FF Y:00 P:26 SP:FF PPU:  0,  0 CYC:13566
C7AB  29 80     AND #$80                        A:00 X:FF Y:00 P:26 SP:FF PPU:  0,  0 CYC:13570
C7AD  F0 F9     BEQ $C7A8                       A:00 X:FF Y:00 P:26 SP:FF PPU:  0,  0 CYC:13572
C7A8  AD 02 20  LDA $2002 = 00                  A:00 X:FF Y:00 P:26 SP:FF PPU:  0,  0 CYC:13575
C7AB  29 80     AND #$80                        A:00 X:FF Y:00 P:26 SP:FF PPU:  0,  0 CYC:13579
C7AD  F0 F9     BEQ $C7A8                       A:00 X:FF Y:00 P:26 SP:FF PPU:  0,  0 CYC:13581
C7A8  AD 02 20  LDA $2002 = 00                  A:00 X:FF Y:00 P:26 SP:FF PPU:  0,  0 CYC:13584
C7AB  29 80     AND #$80                        A:00 X:FF Y:00 P:26 SP:FF PPU:  0,  0 CYC:13588
C7AD  F0 F9     BEQ $C7A8                       A:00 X:FF Y:00 P:26 SP:FF PPU:  0,  0 CYC:13590
C7A8  AD 02 20  LDA $2002 = 00                  A:00 X:FF Y:00 P:26 SP:FF PPU:  0,  0 CYC:13593
C7AB  29 80     AND #$80                        A:00 X:FF Y:00 P:26 SP:FF PPU:  0,  0 CYC:13597
C7AD  F0 F9     BEQ $C7A8                       A:00 X:FF Y:00 P:26 SP:FF PPU:  0,  0 CYC:13599
C7A8  AD 02 20  LDA $2002 = 00                  A:00 X:FF Y:00 P:26 SP:FF PPU:  0,  0 CYC:13602
C7AB  29 80     AND #$80                        A:00 X:FF Y:00 P:26 SP:FF PPU:  0,  0 CYC:13606
C7AD  F0 F9     BEQ $C7A8                       A:00 X:FF Y:00 P:26 SP:FF PPU:  0,  0 CYC:13608
C7A8  AD 02 20  LDA $2002 = 00                  A:00 X:FF Y:00 P:26 SP:FF PPU:  0,  0 CYC:13611
C7AB  29 80     AND #$80                        A:00 X:FF Y:00 P:26 SP:FF PPU:  0,  0 CYC:13615
C7AD  F0 F9     BEQ $C7A8                       A:00 X:FF Y:00 P:26 SP:FF PPU:  0,  0 CYC:13617
C7A8  AD 02 20  LDA $2002 = 00                  A:00 X:FF Y:00 P:26 SP:FF PPU:  0,  0 CYC:13620
C7AB  29 80     AND #$80                        A:00 X:FF Y:00 P:26 SP:FF PPU:  0,  0 CYC:13624
C7AD  F0 F9     BEQ $C7A8                       A:00 X:FF Y:00 P:26 SP:FF PPU:  0,  0 CYC:13626
C7A8  AD 02 20  LDA $2002 = 00                  A:00 X:FF Y:00 P:26 SP:FF PPU:  0,  0 CYC:13629
C7AB  29 80     AND #$80                        A:00 X:FF Y:00 P:26 SP:FF PPU:  0,  0 CYC:13633
C7AD  F0 F9     BEQ $C7A8                       A:00 X:FF Y:00 P:26 SP:FF PPU:  0,  0 CYC:13635
C7A8  AD 02 20  LDA $2002 = 00                  A:00 X:FF Y:00 P:26 SP:FF PPU:  0,  0 CYC:13638
C7AB  29 80     AND #$80                        A:00 X:FF Y:00 P:26 SP:FF PPU:  0,  0 CYC:13642
C7AD  F0 F9     BEQ $C7A8                       A:00 X:FF Y:00 P:26 SP:FF PPU:  0,  0 CYC:13644
C7A8  AD 02 20  LDA $2002 = 00                  A:00 X:FF Y:00 P:26 SP:FF PPU:  0,  0 CYC:13647
C7AB  29 80     AND #$80                        A:00 X:FF Y:00 P:26 SP:FF PPU:  0,  0 CYC:13651
C7AD  F0 F9     BEQ $C7A8                       A:00 X:FF Y:00 P:26 SP:FF PPU:  0,  0 CYC:13653
C7A8  AD 02 20  LDA $2002 = 00                  A:00 X:FF Y:00 P:26 SP:FF PPU:  0,  0 CYC:13656
C7AB  29 80     AND #$80                        A:00 X:FF Y:00 P:26 SP:FF PPU:  0,  0 CYC:13660
C7AD  F0 F9     BEQ $C7A8                       A:00 X:FF Y:00 P:26 SP:FF PPU:  0,  0 CYC:13662
C7A8  AD 02 20  LDA $2002 = 00                  A:00 X:FF Y:00 P:26 SP:FF PPU:  0,  0 CYC:13665
C7AB  29 80     AND #$80                        A:00 X:FF Y:00 P:26 SP:FF PPU:  0,  0 CYC:13669
C7AD  F0 F9     BEQ $C7A8                       A:00 X:FF Y:00 P:26 SP:FF PPU:  0,  0 CYC:13671
C7A8  AD 02 20  LDA $2002 = 00                  A:00 X:FF Y:00 P:26 SP:FF PPU:  0,  0 CYC:13674
C7AB  29 80     AND #$80                        A:00 X:FF Y:00 P:26 SP:FF PPU:  0,  0 CYC:13678
C7AD  F0 F9     BEQ $C7A8                       A:00 X:FF Y:00 P:26 SP:FF PPU:  0,  0 CYC:13680
C7A8  AD 02 20  LDA $2002 = 00                  A:00 X:FF Y:00 P:26 SP:FF PPU:  0,  0 CYC:13683
C7AB  29 80     AND #$80                        A:00 X:FF Y:00 P:26 SP:FF PPU:  0,  0 CYC:13687
C7AD  F0 F9     BEQ $C7A8                       A:00 X:FF Y:00 P:26 SP:FF PPU:  0,  0 CYC:13689
C7A8  AD 02 20  LDA $2002 = 00                  A:00 X:FF Y:00 P:26 SP:FF PPU:  0,  0 CYC:13692
C7AB  29 80     AND #$80                        A:00 X:FF Y:00 P:26 SP:FF PPU:  0,  0 CYC:13696
C7AD  F0 F9     BEQ $C7A8                       A:00 X:FF Y:00 P:26 SP:FF PPU:  0,  0 CYC:13698
C7A8  AD 02 20  LDA $2002 = 00                  A:00 X:FF Y:00 P:26 SP:FF PPU:  0,  0 CYC:13701
C7AB  29 80     AND #$80                        A:00 X:FF Y:00 P:26 SP:FF PPU:  0,  0 CYC:13705
C7AD  F0 F9     BEQ $C7A8                       A:00 X:FF Y:00 P:26 SP:FF PPU:  0,  0 CYC:13707
C7A8  AD 02 20  LDA $2002 = 00                  A:00 X:FF Y:00 P:26 SP:FF PPU:  0,  0 CYC:13710
C7AB  29 80     AND #$80                        A:00 X:FF Y:00 P:26 SP:FF PPU:  0,  0 CYC:13714
C7AD  F0 F9     BEQ $C7A8                       A:00 X:FF Y:00 P:26 SP:FF PPU:  0,  0 CYC:13716
C7A8  AD 02 20  LDA $2002 = 00                  A:00 X:FF Y:00 P:26 SP:FF PPU:  0,  0 CYC:13719
C7AB  29 80     AND #$80                        A:00 X:FF Y:00 P:26 SP:FF PPU:  0,  0 CYC:13723
C7AD  F0 F9     BEQ $C7A8                       A:00 X:FF Y:00 P:26 SP:FF PPU:  0,  0 CYC:13725
C7A8  AD 02 20  LDA $2002 = 00                  A:00 X:FF Y:00 P:26 SP:FF PPU:  0,  0 CYC:13728
C7AB  29 80     AND #$80                        A:00 X:FF Y:00 P:26 SP:FF PPU:  0,  0 CYC:13732
C7AD  F0 F9     BEQ $C7A8                       A:00 X:FF Y:00 P:26 SP:FF PPU:  0,  0 CYC:13734
C7A8  AD 02 20  LDA $2002 = 00                  A:00 X:FF Y:00 P:26 SP:FF PPU:  0,  0 CYC:13737
C7AB  29 80     AND #$80                        A:00 X:FF Y:00 P:26 SP:FF PPU:  0,  0 CYC:13741
C7AD  F0 F9     BEQ $C7A8                       A:00 X:FF Y:00 P:26 SP:FF PPU:  0,  0 CYC:13743
C7A8  AD 02 20  LDA $2002 = 00                  A:00 X:FF Y:00 P:26 SP:FF PPU:  0,  0 CYC:13746
C7AB  29 80     AND #$80                        A:00 X:FF Y:00 P:26 SP:FF PPU:  0,  0 CYC:13750
C7AD  F0 F9     BEQ $C7A8                       A:00 X:FF Y:00 P:26 SP:FF PPU:  0,  0 CYC:13752
C7A8  AD 02 20  LDA $2002 = 00                  A:00 X:FF Y:00 P:26 SP:FF PPU:  0,  0 CYC:13755
C7AB  29 80     AND #$80                        A:00 X:FF Y:00 P:26 SP:FF PPU:  0,  0 CYC:13759
C7AD  F0 F9     BEQ $C7A8                       A:00 X:FF Y:00 P:26 SP:FF PPU:  0,  0 CYC:13761
C7A8  AD 02 20  LDA $2002 = 00                  A:00 X:FF Y:00 P:26 SP:FF PPU:  0,  0 CYC:13764
C7AB  29 80     AND #$80                        A:00 X:FF Y:00 P:26 SP:FF PPU:  0,  0 CYC:13768
C7AD  F0 F9     BEQ $C7A8                       A:00 X:FF Y:00 P:26 SP:FF PPU:  0,  0 CYC:13770
C7A8  AD 02 20  LDA $2002 = 00                  A:00 X:FF Y:00 P:26 SP:FF PPU:  0,  0 CYC:13773
C7AB  29 80     AND #$80                        A:00 X:FF Y:00 P:26 SP:FF PPU:  0,  0 CYC:13777
C7AD  F0 F9     BEQ $C7A8                       A:00 X:FF Y:00 P:26 SP:FF PPU:  0,  0 CYC:13779
C7A8  AD 02 20  LDA $2002 = 00                  A:00 X:FF Y:00 P:26 SP:FF PPU:  0,  0 CYC:13782
C7AB  29 80     AND #$80                        A:00 X:FF Y:00 P:26 SP:FF PPU:  0,  0 CYC:13786
C7AD  F0 F9     BEQ $C7A8                       A:00 X:FF Y:00 P:26 SP:FF PPU:  0,  0 CYC:13788
C7A8  AD 02 20  LDA $2002 = 00                  A:00 X:FF Y:00 P:26 SP:FF PPU:  0,  0 CYC:13791
C7AB  29 80     AND #$80                        A:00 X:FF Y:00 P:26 SP:FF PPU:  0,  0 CYC:13795
C7AD  F0 F9     BEQ $C7A8                       A:00 X:FF Y:00 P:26 SP:FF PPU:  0,  0 CYC:13797
C7A8  AD 02 20  LDA $2002 = 00                  A:00 X:FF Y:00 P:26 SP:FF PPU:  0,  0 CYC:13800
C7AB  29 80     AND #$80                        A:00 X:FF Y:00 P:26 SP:FF PPU:  0,  0 CYC:13804
C7AD  F0 F9     BEQ $C7A8                       A:00 X:FF Y:00 P:26 SP:FF PPU:  0,  0 CYC:13806
C7A8  AD 02 20  LDA $2002 = 00                  A:00 X:FF Y:00 P:26 SP:FF PPU:  0,  0 CYC:13809
C7AB  29 80     AND #$80                        A:00 X:FF Y:00 P:26 SP:FF PPU:  0,  0 CYC:13813
C7AD  F0 F9     BEQ $C7A8                       A:00 X:FF Y:00 P:26 SP:FF PPU:  0,  0 CYC:13815
C7A8  AD 02 20  LDA $2002 = 00                  A:00 X:FF Y:00 P:26 SP:FF PPU:  0,  0 CYC:13818
C7AB  29 80     AND #$80                        A:00 X:FF Y:00 P:26 SP:FF PPU:  0,  0 CYC:13822
C7AD  F0 F9     BEQ $C7A8                       A:00 X:FF Y:00 P:26 SP:FF PPU:  0,  0 CYC:13824
C7A8  AD 02 20  LDA $2002 = 00                  A:00 X:FF Y:00 P:26 SP:FF PPU:  0,  0 CYC:13827
C7AB  29 80     AND #$80                        A:00 X:FF Y:00 P:26 SP:FF PPU:  0,  0 CYC:13831
C7AD  F0 F9     BEQ $C7A8                       A:00 X:FF Y:00 P:26 SP:FF PPU:  0,  0 CYC:13833
C7A8  AD 02 20  LDA $2002 = 00                  A:00 X:FF Y:00 P:26 SP:FF PPU:  0,  0 CYC:13836
C7AB  29 80     AND #$80                        A:00 X:FF Y:00 P:26 SP:FF PPU:  0,  0 CYC:13840
C7AD  F0 F9     BEQ $C7A8                       A:00 X:FF Y:00 P:26 SP:FF PPU:  0,  0 CYC:13842
C7A8  AD 02 20  LDA $2002 = 00                  A:00 X:FF Y:00 P:26 SP:FF PPU:  0,  0 CYC:13845
C7AB  29 80     AND #$80                        A:00 X:FF Y:00 P:26 SP:FF PPU:  0,  0 CYC:13849
C7AD  F0 F9     BEQ $C7A8                       A:00 X:FF Y:00 P:26 SP:FF PPU:  0,  0 CYC:13851
C7A8  AD 02 20  LDA $2002 = 00                  A:00 X:FF Y:00 P:26 SP:FF PPU:  0,  0 CYC:13854
C7AB  29 80     AND #$80                        A:00 X:FF Y:00 P:26 SP:FF PPU:  0,  0 CYC:13858
C7AD  F0 F9     BEQ $C7A8                       A:00 X:FF Y:00 P:26 SP:FF PPU:  0,  0 CYC:13860
C7A8  AD 02 20  LDA $2002 = 00                  A:00 X:FF Y:00 P:26 SP:FF PPU:  0,  0 CYC:13863
C7AB  29 80     AND #$80                        A:00 X:FF Y:00 P:26 SP:FF PPU:  0,  0 CYC:13867
C7AD  F0 F9     BEQ $C7A8                       A:00 X:FF Y:00 P:26 SP:FF PPU:  0,  0 CYC:13869
C7A8  AD 02 20  LDA $2002 = 00                  A:00 X:FF Y:00 P:26 SP:FF PPU:  0,  0 CYC:13872
C7AB  29 80     AND #$80                        A:00 X:FF Y:00 P:26 SP:FF PPU:  0,  0 CYC:13876
C7AD  F0 F9     BEQ $C7A8                       A:00 X:FF Y:00 P:26 SP:FF PPU:  0,  0 CYC:13878
C7A8  AD 02 20  LDA $2002 = 00                  A:00 X:FF Y:00 P:26 SP:FF PPU:  0,  0 CYC:13881
C7AB  29 80     AND #$80                        A:00 X:FF Y:00 P:26 SP:FF PPU:  0,  0 CYC:13885
C7AD  F0 F9     BEQ $C7A8                       A:00 X:FF Y:00 P:26 SP:FF PPU:  0,  0 CYC:13887
C7A8  AD 02 20  LDA $2002 = 00                  A:00 X:FF Y:00 P:26 SP:FF PPU:  0,  0 CYC:13890
C7AB  29 80     AND #$80                        A:00 X:FF Y:00 P:26 SP:FF PPU:  0,  0 CYC:13894
C7AD  F0 F9     BEQ $C7A8                       A:00 X:FF Y:00 P:26 SP:FF PPU:  0,  0 CYC:13896
C7A8  AD 02 20  LDA $2002 = 00                  A:00 X:FF Y:00 P:26 SP:FF PPU:  0,  0 CYC:13899
C7AB  29 80     AND #$80                        A:00 X:FF Y:00 P:26 SP:FF PPU:  0,  0 CYC:13903
C7AD  F0 F9     BEQ $C7A8                       A:00 X:FF Y:00 P:26 SP:FF PPU:  0,  0 CYC:13905
C7A8  AD 02 20  LDA $2002 = 00                  A:00 X:FF Y:00 P:26 SP:FF PPU:  0,  0 CYC:13908
C7AB  29 80     AND #$80                        A:00 X:FF Y:00 P:26 SP:FF PPU:  0,  0 CYC:13912
C7AD  F0 F9     BEQ $C7A8                       A:00 X:FF Y:00 P:26 SP:FF PPU:  0,  0 CYC:13914
C7A8  AD 02 20  LDA $2002 = 00                  A:00 X:FF Y:00 P:26 SP:FF PPU:  0,  0 CYC:13917
C7AB  29 80     AND #$80                        A:00 X:FF Y:00 P:26 SP:FF PPU:  0,  0 CYC:13921
C7AD  F0 F9     BEQ $C7A8                       A:00 X:FF Y:00 P:26 SP:FF PPU:  0,  0 CYC:13923
C7A8  AD 02 20  LDA $2002 = 00                  A:00 X:FF Y:00 P:26 SP:FF PPU:  0,  0 CYC:13926
C7AB  29 80     AND #$80                        A:00 X:FF Y:00 P:26 SP:FF PPU:  0,  0 CYC:13930
C7AD  F0 F9     BEQ $C7A8                       A:00 X:FF Y:00 P:26 SP:FF PPU:  0,  0 CYC:13932
C7A8  AD 02 20  LDA $2002 = 00                  A:00 X:FF Y:00 P:26 SP:FF PPU:  0,  0 CYC:13935
C7AB  29 80     AND #$80                        A:00 X:FF Y:00 P:26 SP:FF PPU:  0,  0 CYC:13939
C7AD  F0 F9     BEQ $C7A8                       A:00 X:FF Y:00 P:26 SP:FF PPU:  0,  0 CYC:13941
C7A8  AD 02 20  LDA $2002 = 00                  A:00 X:FF Y:00 P:26 SP:FF PPU:  0,  0 CYC:13944
C7AB  29 80     AND #$80                        A:00 X:FF Y:00 P:26 SP:FF PPU:  0,  0 CYC:13948
C7AD  F0 F9     BEQ $C7A8                       A:00 X:FF Y:00 P:26 SP:FF PPU:  0,  0 CYC:13950
C7A8  AD 02 20  LDA $2002 = 00                  A:00 X:FF Y:00 P:26 SP:FF PPU:  0,  0 CYC:13953
C7AB  29 80     AND #$80                        A:00 X:FF Y:00 P:26 SP:FF PPU:  0,  0 CYC:13957
C7AD  F0 F9     BEQ $C7A8                       A:00 X:FF Y:00 P:26 SP:FF PPU:  0,  0 CYC:13959
C7A8  AD 02 20  LDA $2002 = 00                  A:00 X:FF Y:00 P:26 SP:FF PPU:  0,  0 CYC:13962
C7AB  29 80     AND #$80                        A:00 X:FF Y:00 P:26 SP:FF PPU:  0,  0 CYC:13966
C7AD  F0 F9     BEQ $C7A8                       A:00 X:FF Y:00 P:26 SP:FF PPU:  0,  0 CYC:13968
C7A8  AD 02 20  LDA $2002 = 00                  A:00 X:FF Y:00 P:26 SP:FF PPU:  0,  0 CYC:13971
C7AB  29 80     AND #$80                        A:00 X:FF Y:00 P:26 SP:FF PPU:  0,  0 CYC:13975
C7AD  F0 F9     BEQ $C7A8                       A:00 X:FF Y:00 P:26 SP:FF PPU:  0,  0 CYC:13977
C7A8  AD 02 20  LDA $2002 = 00                  A:00 X:FF Y:00 P:26 SP:FF PPU:  0,  0 CYC:13980
C7AB  29 80     AND #$80                        A:00 X:FF Y:00 P:26 SP:FF PPU:  0,  0 CYC:13984
C7AD  F0 F9     BEQ $C7A8                       A:00 X:FF Y:00 P:26 SP:FF PPU:  0,  0 CYC:13986
C7A8  AD 02 20  LDA $2002 = 00                  A:00 X:FF Y:00 P:26 SP:FF PPU:  0,  0 CYC:13989
C7AB  29 80     AND #$80                        A:00 X:FF Y:00 P:26 SP:FF PPU:  0,  0 CYC:13993
C7AD  F0 F9     BEQ $C7A8                       A:00 X:FF Y:00 P:26 SP:FF PPU:  0,  0 CYC:13995
C7A8  AD 02 20  LDA $2002 = 00                  A:00 X:FF Y:00 P:26 SP:FF PPU:  0,  0 CYC:13998
C7AB  29 80     AND #$80                        A:00 X:FF Y:00 P:26 SP:FF PPU:  0,  0 CYC:14002
C7AD  F0 F9     BEQ $C7A8                       A:00 X:FF Y:00 P:26 SP:FF PPU:  0,  0 CYC:14004
C7A8  AD 02 20  LDA $2002 = 00                  A:00 X:FF Y:00 P:26 SP:FF PPU:  0,  0 CYC:14007
C7AB  29 80     AND #$80                        A:00 X:FF Y:00 P:26 SP:FF PPU:  0,  0 CYC:14011
C7AD  F0 F9     BEQ $C7A8                       A:00 X:FF Y:00 P:26 SP:FF PPU:  0,  0 CYC:14013
C7A8  AD 02 20  LDA $2002 = 00                  A:00 X:FF Y:00 P:26 SP:FF PPU:  0,  0 CYC:14016
C7AB  29 80     AND #$80                        A:00 X:FF Y:00 P:26 SP:FF PPU:  0,  0 CYC:14020
C7AD  F0 F9     BEQ $C7A8                       A:00 X:FF Y:00 P:26 SP:FF PPU:  0,  0 CYC:14022
C7A8  AD 02 20  LDA $2002 = 00                  A:00 X:FF Y:00 P:26 SP:FF PPU:  0,  0 CYC:14025
C7AB  29 80     AND #$80                        A:00 X:FF Y:00 P:26 SP:FF PPU:  0,  0 CYC:14029
C7AD  F0 F9     BEQ $C7A8                       A:00 X:FF Y:00 P:26 SP:FF PPU:  0,  0 CYC:14031
C7A8  AD 02 20  LDA $2002 = 00                  A:00 X:FF Y:00 P:26 SP:FF PPU:  0,  0 CYC:14034
C7AB  29 80     AND #$80                        A:00 X:FF Y:00 P:26 SP:FF PPU:  0,  0 CYC:14038
C7AD  F0 F9     BEQ $C7A8                       A:00 X:FF Y:00 P:26 SP:FF PPU:  0,  0 CYC:14040
C7A8  AD 02 20  LDA $2002 = 00                  A:00 X:FF Y:00 P:26 SP:FF PPU:  0,  0 CYC:14043
C7AB  29 80     AND #$80                        A:00 X:FF Y:00 P:26 SP:FF PPU:  0,  0 CYC:14047
C7AD  F0 F9     BEQ $C7A8                       A:00 X:FF Y:00 P:26 SP:FF PPU:  0,  0 CYC:14049
C7A8  AD 02 20  LDA $2002 = 00                  A:00 X:FF Y:00 P:26 SP:FF PPU:  0,  0 CYC:14052
C7AB  29 80     AND #$80                        A:00 X:FF Y:00 P:26 SP:FF PPU:  0,  0 CYC:14056
C7AD  F0 F9     BEQ $C7A8                       A:00 X:FF Y:00 P:26 SP:FF PPU:  0,  0 CYC:14058
C7A8  AD 02 20  LDA $2002 = 00                  A:00 X:FF Y:00 P:26 SP:FF PPU:  0,  0 CYC:14061
C7AB  29 80     AND #$80                        A:00 X:FF Y:00 P:26 SP:FF PPU:  0,  0 CYC:14065
C7AD  F0 F9     BEQ $C7A8                       A:00 X:FF Y:00 P:26 SP:FF PPU:  0,  0 CYC:14067
C7A8  AD 02 20  LDA $2002 = 00                  A:00 X:FF Y:00 P:26 SP:FF PPU:  0,  0 CYC:14070
C7AB  29 80     AND #$80                        A:00 X:FF Y:00 P:26 SP:FF PPU:  0,  0 CYC:14074
C7AD  F0 F9     BEQ $C7A8                       A:00 X:FF Y:00 P:26 SP:FF PPU:  0,  0 CYC:14076
C7A8  AD 02 20  LDA $2002 = 00                  A:00 X:FF Y:00 P:26 SP:FF PPU:  0,  0 CYC:14079
C7AB  29 80     AND #$80                        A:00 X:FF Y:00 P:26 SP:FF PPU:  0,  0 CYC:14083
C7AD  F0 F9     BEQ $C7A8                       A:00 X:FF Y:00 P:26 SP:FF PPU:  0,  0 CYC:14085
C7A8  AD 02 20  LDA $2002 = 00                  A:00 X:FF Y:00 P:26 SP:FF PPU:  0,  0 CYC:14088
C7AB  29 80     AND #$80                        A:00 X:FF Y:00 P:26 SP:FF PPU:  0,  0 CYC:14092
C7AD  F0 F9     BEQ $C7A8                       A:00 X:FF Y:00 P:26 SP:FF PPU:  0,  0 CYC:14094
C7A8  AD 02 20  LDA $2002 = 00                  A:00 X:FF Y:00 P:26 SP:FF PPU:  0,  0 CYC:14097
C7AB  29 80     AND #$80                        A:00 X:FF Y:00 P:26 SP:FF PPU:  0,  0 CYC:14101
C7AD  F0 F9     BEQ $C7A8                       A:00 X:FF Y:00 P:26 SP:FF PPU:  0,  0 CYC:14103
C7A8  AD 02 20  LDA $2002 = 00                  A:00 X:FF Y:00 P:26 SP:FF PPU:  0,  0 CYC:14106
C7AB  29 80     AND #$80                        A:00 X:FF Y:00 P:26 SP:FF PPU:  0,  0 CYC:14110
C7AD  F0 F9     BEQ $C7A8                       A:00 X:FF Y:00 P:26 SP:FF PPU:  0,  0 CYC:14112
C7A8  AD 02 20  LDA $2002 = 00                  A:00 X:FF Y:00 P:26 SP:FF PPU:  0,  0 CYC:14115
C7AB  29 80     AND #$80                        A:00 X:FF Y:00 P:26 SP:FF PPU:  0,  0 CYC:14119
C7AD  F0 F9     BEQ $C7A8                       A:00 X:FF Y:00 P:26 SP:FF PPU:  0,  0 CYC:14121
C7A8  AD 02 20  LDA $2002 = 00                  A:00 X:FF Y:00 P:26 SP:FF PPU:  0,  0 CYC:14124
C7AB  29 80     AND #$80                        A:00 X:FF Y:00 P:26 SP:FF PPU:  0,  0 CYC:14128
C7AD  F0 F9     BEQ $C7A8                       A:00 X:FF Y:00 P:26 SP:FF PPU:  0,  0 CYC:14130
C7A8  AD 02 20  LDA $2002 = 00                  A:00 X:FF Y:00 P:26 SP:FF PPU:  0,  0 CYC:14133
C7AB  29 80     AND #$80                        A:00 X:FF Y:00 P:26 SP:FF PPU:  0,  0 CYC:14137
C7AD  F0 F9     BEQ $C7A8                       A:00 X:FF Y:00 P:26 SP:FF PPU:  0,  0 CYC:14139
C7A8  AD 02 20  LDA $2002 = 00                  A:00 X:FF Y:00 P:26 SP:FF PPU:  0,  0 CYC:14142
C7AB  29 80     AND #$80                        A:00 X:FF Y:00 P:26 SP:FF PPU:  0,  0 CYC:14146
C7AD  F0 F9     BEQ $C7A8                       A:00 X:FF Y:00 P:26 SP:FF PPU:  0,  0 CYC:14148
C7A8  AD 02 20  LDA $2002 = 00                  A:00 X:FF Y:00 P:26 SP:FF PPU:  0,  0 CYC:14151
C7AB  29 80     AND #$80                        A:00 X:FF Y:00 P:26 SP:FF PPU:  0,  0 CYC:14155
C7AD  F0 F9     BEQ $C7A8                       A:00 X:FF Y:00 P:26 SP:FF PPU:  0,  0 CYC:14157
C7A8  AD 02 20  LDA $2002 = 00                  A:00 X:FF Y:00 P:26 SP:FF PPU:  0,  0 CYC:14160
C7AB  29 80     AND #$80                        A:00 X:FF Y:00 P:26 SP:FF PPU:  0,  0 CYC:14164
C7AD  F0 F9     BEQ $C7A8                       A:00 X:FF Y:00 P:26 SP:FF PPU:  0,  0 CYC:14166
C7A8  AD 02 20  LDA $2002 = 00                  A:00 X:FF Y:00 P:26 SP:FF PPU:  0,  0 CYC:14169
C7AB  29 80     AND #$80                        A:00 X:FF Y:00 P:26 SP:FF PPU:  0,  0 CYC:14173
C7AD  F0 F9     BEQ $C7A8                       A:00 X:FF Y:00 P:26 SP:FF PPU:  0,  0 CYC:14175
C7A8  AD 02 20  LDA $2002 = 00                  A:00 X:FF Y:00 P:26 SP:FF PPU:  0,  0 CYC:14178
C7AB  29 80     AND #$80                        A:00 X:FF Y:00 P:26 SP:FF PPU:  0,  0 CYC:14182
C7AD  F0 F9     BEQ $C7A8                       A:00 X:FF Y:00 P:26 SP:FF PPU:  0,  0 CYC:14184
C7A8  AD 02 20  LDA $2002 = 00                  A:00 X:FF Y:00 P:26 SP:FF PPU:  0,  0 CYC:14187
C7AB  29 80     AND #$80                        A:00 X:FF Y:00 P:26 SP:FF PPU:  0,  0 CYC:14191
C7AD  F0 F9     BEQ $C7A8                       A:00 X:FF Y:00 P:26 SP:FF PPU:  0,  0 CYC:14193
C7A8  AD 02 20  LDA $2002 = 00                  A:00 X:FF Y:00 P:26 SP:FF PPU:  0,  0 CYC:14196
C7AB  29 80     AND #$80                        A:00 X:FF Y:00 P:26 SP:FF PPU:  0,  0 CYC:14200
C7AD  F0 F9     BEQ $C7A8                       A:00 X:FF Y:00 P:26 SP:FF PPU:  0,  0 CYC:14202
C7A8  AD 02 20  LDA $2002 = 00                  A:00 X:FF Y:00 P:26 SP:FF PPU:  0,  0 CYC:14205
C7AB  29 80     AND #$80                        A:00 X:FF Y:00 P:26 SP:FF PPU:  0,  0 CYC:14209
C7AD  F0 F9     BEQ $C7A8                       A:00 X:FF Y:00 P:26 SP:FF PPU:  0,  0 CYC:14211
C7A8  AD 02 20  LDA $2002 = 00                  A:00 X:FF Y:00 P:26 SP:FF PPU:  0,  0 CYC:14214
C7AB  29 80     AND #$80                        A:00 X:FF Y:00 P:26 SP:FF PPU:  0,  0 CYC:14218
C7AD  F0 F9     BEQ $C7A8                       A:00 X:FF Y:00 P:26 SP:FF PPU:  0,  0 CYC:14220
C7A8  AD 02 20  LDA $2002 = 00                  A:00 X:FF Y:00 P:26 SP:FF PPU:  0,  0 CYC:14223
C7AB  29 80     AND #$80                        A:00 X:FF Y:00 P:26 SP:FF PPU:  0,  0 CYC:14227
C7AD  F0 F9     BEQ $C7A8                       A:00 X:FF Y:00 P:26 SP:FF PPU:  0,  0 CYC:14229
C7A8  AD 02 20  LDA $2002 = 00                  A:00 X:FF Y:00 P:26 SP:FF PPU:  0,  0 CYC:14232
C7AB  29 80     AND #$80                        A:00 X:FF Y:00 P:26 SP:FF PPU:  0,  0 CYC:14236
C7AD  F0 F9     BEQ $C7A8                       A:00 X:FF Y:00 P:26 SP:FF PPU:  0,  0 CYC:14238
C7A8  AD 02 20  LDA $2002 = 00                  A:00 X:FF Y:00 P:26 SP:FF PPU:  0,  0 CYC:14241
C7AB  29 80     AND #$80                        A:00 X:FF Y:00 P:26 SP:FF PPU:  0,  0 CYC:14245
C7AD  F0 F9     BEQ $C7A8                       A:00 X:FF Y:00 P:26 SP:FF PPU:  0,  0 CYC:14247
C7A8  AD 02 20  LDA $2002 = 00                  A:00 X:FF Y:00 P:26 SP:FF PPU:  0,  0 CYC:14250
C7AB  29 80     AND #$80                        A:00 X:FF Y:00 P:26 SP:FF PPU:  0,  0 CYC:14254
C7AD  F0 F9     BEQ $C7A8                       A:00 X:FF Y:00 P:26 SP:FF PPU:  0,  0 CYC:14256
C7A8  AD 02 20  LDA $2002 = 00                  A:00 X:FF Y:00 P:26 SP:FF PPU:  0,  0 CYC:14259
C7AB  29 80     AND #$80                        A:00 X:FF Y:00 P:26 SP:FF PPU:  0,  0 CYC:14263
C7AD  F0 F9     BEQ $C7A8                       A:00 X:FF Y:00 P:26 SP:FF PPU:  0,  0 CYC:14265
C7A8  AD 02 20  LDA $2002 = 00                  A:00 X:FF Y:00 P:26 SP:FF PPU:  0,  0 CYC:14268
C7AB  29 80     AND #$80                        A:00 X:FF Y:00 P:26 SP:FF PPU:  0,  0 CYC:14272
C7AD  F0 F9     BEQ $C7A8                       A:00 X:FF Y:00 P:26 SP:FF PPU:  0,  0 CYC:14274
C7A8  AD 02 20  LDA $2002 = 00                  A:00 X:FF Y:00 P:26 SP:FF PPU:  0,  0 CYC:14277
C7AB  29 80     AND #$80                        A:00 X:FF Y:00 P:26 SP:FF PPU:  0,  0 CYC:14281
C7AD  F0 F9     BEQ $C7A8                       A:00 X:FF Y:00 P:26 SP:FF PPU:  0,  0 CYC:14283
C7A8  AD 02 20  LDA $2002 = 00                  A:00 X:FF Y:00 P:26 SP:FF PPU:  0,  0 CYC:14286
C7AB  29 80     AND #$80                        A:00 X:FF Y:00 P:26 SP:FF PPU:  0,  0 CYC:14290
C7AD  F0 F9     BEQ $C7A8                       A:00 X:FF Y:00 P:26 SP:FF PPU:  0,  0 CYC:14292
C7A8  AD 02 20  LDA $2002 = 00                  A:00 X:FF Y:00 P:26 SP:FF PPU:  0,  0 CYC:14295
C7AB  29 80     AND #$80                        A:00 X:FF Y:00 P:26 SP:FF PPU:  0,  0 CYC:14299
C7AD  F0 F9     BEQ $C7A8                       A:00 X:FF Y:00 P:26 SP:FF PPU:  0,  0 CYC:14301
C7A8  AD 02 20  LDA $2002 = 00                  A:00 X:FF Y:00 P:26 SP:FF PPU:  0,  0 CYC:14304
C7AB  29 80     AND #$80                        A:00 X:FF Y:00 P:26 SP:FF PPU:  0,  0 CYC:14308
C7AD  F0 F9     BEQ $C7A8                       A:00 X:FF Y:00 P:26 SP:FF PPU:  0,  0 CYC:14310
C7A8  AD 02 20  LDA $2002 = 00                  A:00 X:FF Y:00 P:26 SP:FF PPU:  0,  0 CYC:14313
C7AB  29 80     AND #$80                        A:00 X:FF Y:00 P:26 SP:FF PPU:  0,  0 CYC:14317
C7AD  F0 F9     BEQ $C7A8                       A:00 X:FF Y:00 P:26 SP:FF PPU:  0,  0 CYC:14319
C7A8  AD 02 20  LDA $2002 = 00                  A:00 X:FF Y:00 P:26 SP:FF PPU:  0,  0 CYC:14322
C7AB  29 80     AND #$80                        A:00 X:FF Y:00 P:26 SP:FF PPU:  0,  0 CYC:14326
C7AD  F0 F9     BEQ $C7A8                       A:00 X:FF Y:00 P:26 SP:FF PPU:  0,  0 CYC:14328
C7A8  AD 02 20  LDA $2002 = 00                  A:00 X:FF Y:00 P:26 SP:FF PPU:  0,  0 CYC:14331
C7AB  29 80     AND #$80                        A:00 X:FF Y:00 P:26 SP:FF PPU:  0,  0 CYC:14335
C7AD  F0 F9     BEQ $C7A8                       A:00 X:FF Y:00 P:26 SP:FF PPU:  0,  0 CYC:14337
C7A8  AD 02 20  LDA $2002 = 00                  A:00 X:FF Y:00 P:26 SP:FF PPU:  0,  0 CYC:14340
C7AB  29 80     AND #$80                        A:00 X:FF Y:00 P:26 SP:FF PPU:  0,  0 CYC:14344
C7AD  F0 F9     BEQ $C7A8                       A:00 X:FF Y:00 P:26 SP:FF PPU:  0,  0 CYC:14346
C7A8  AD 02 20  LDA $2002 = 00                  A:00 X:FF Y:00 P:26 SP:FF PPU:  0,  0 CYC:14349
C7AB  29 80     AND #$80                        A:00 X:FF Y:00 P:26 SP:FF PPU:  0,  0 CYC:14353
C7AD  F0 F9     BEQ $C7A8                       A:00 X:FF Y:00 P:26 SP:FF PPU:  0,  0 CYC:14355
C7A8  AD 02 20  LDA $2002 = 00                  A:00 X:FF Y:00 P:26 SP:FF PPU:  0,  0 CYC:14358
C7AB  29 80     AND #$80                        A:00 X:FF Y:00 P:26 SP:FF PPU:  0,  0 CYC:14362
C7AD  F0 F9     BEQ $C7A8                       A:00 X:FF Y:00 P:26 SP:FF PPU:  0,  0 CYC:14364
C7A8  AD 02 20  LDA $2002 = 00                  A:00 X:FF Y:00 P:26 SP:FF PPU:  0,  0 CYC:14367
C7AB  29 80     AND #$80                        A:00 X:FF Y:00 P:26 SP:FF PPU:  0,  0 CYC:14371
C7AD  F0 F9     BEQ $C7A8                       A:00 X:FF Y:00 P:26 SP:FF PPU:  0,  0 CYC:14373
C7A8  AD 02 20  LDA $2002 = 00                  A:00 X:FF Y:00 P:26 SP:FF PPU:  0,  0 CYC:14376
C7AB  29 80     AND #$80                        A:00 X:FF Y:00 P:26 SP:FF PPU:  0,  0 CYC:14380
C7AD  F0 F9     BEQ $C7A8                       A:00 X:FF Y:00 P:26 SP:FF PPU:  0,  0 CYC:14382
C7A8  AD 02 20  LDA $2002 = 00                  A:00 X:FF Y:00 P:26 SP:FF PPU:  0,  0 CYC:14385
C7AB  29 80     AND #$80                        A:00 X:FF Y:00 P:26 SP:FF PPU:  0,  0 CYC:14389
C7AD  F0 F9     BEQ $C7A8                       A:00 X:FF Y:00 P:26 SP:FF PPU:  0,  0 CYC:14391
C7A8  AD 02 20  LDA $2002 = 00                  A:00 X:FF Y:00 P:26 SP:FF PPU:  0,  0 CYC:14394
C7AB  29 80     AND #$80                        A:00 X:FF Y:00 P:26 SP:FF PPU:  0,  0 CYC:14398
C7AD  F0 F9     BEQ $C7A8                       A:00 X:FF Y:00 P:26 SP:FF PPU:  0,  0 CYC:14400
C7A8  AD 02 20  LDA $2002 = 00                  A:00 X:FF Y:00 P:26 SP:FF PPU:  0,  0 CYC:14403
C7AB  29 80     AND #$80                        A:00 X:FF Y:00 P:26 SP:FF PPU:  0,  0 CYC:14407
C7AD  F0 F9     BEQ $C7A8                       A:00 X:FF Y:00 P:26 SP:FF PPU:  0,  0 CYC:14409
C7A8  AD 02 20  LDA $2002 = 00                  A:00 X:FF Y:00 P:26 SP:FF PPU:  0,  0 CYC:14412
C7AB  29 80     AND #$80                        A:00 X:FF Y:00 P:26 SP:FF PPU:  0,  0 CYC:14416
C7AD  F0 F9     BEQ $C7A8                       A:00 X:FF Y:00 P:26 SP:FF PPU:  0,  0 CYC:14418
C7A8  AD 02 20  LDA $2002 = 00                  A:00 X:FF Y:00 P:26 SP:FF PPU:  0,  0 CYC:14421
C7AB  29 80     AND #$80                        A:00 X:FF Y:00 P:26 SP:FF PPU:  0,  0 CYC:14425
C7AD  F0 F9     BEQ $C7A8                       A:00 X:FF Y:00 P:26 SP:FF PPU:  0,  0 CYC:14427
C7A8  AD 02 20  LDA $2002 = 00                  A:00 X:FF Y:00 P:26 SP:FF PPU:  0,  0 CYC:14430
C7AB  29 80     AND #$80                        A:00 X:FF Y:00 P:26 SP:FF PPU:  0,  0 CYC:14434
C7AD  F0 F9     BEQ $C7A8                       A:00 X:FF Y:00 P:26 SP:FF PPU:  0,  0 CYC:14436
C7A8  AD 02 20  LDA $2002 = 00                  A:00 X:FF Y:00 P:26 SP:FF PPU:  0,  0 CYC:14439
C7AB  29 80     AND #$80                        A:00 X:FF Y:00 P:26 SP:FF PPU:  0,  0 CYC:14443
C7AD  F0 F9     BEQ $C7A8                       A:00 X:FF Y:00 P:26 SP:FF PPU:  0,  0 CYC:14445
C7A8  AD 02 20  LDA $2002 = 00                  A:00 X:FF Y:00 P:26 SP:FF PPU:  0,  0 CYC:14448
C7AB  29 80     AND #$80                        A:00 X:FF Y:00 P:26 SP:FF PPU:  0,  0 CYC:14452
C7AD  F0 F9     BEQ $C7A8                       A:00 X:FF Y:00 P:26 SP:FF PPU:  0,  0 CYC:14454
C7A8  AD 02 20  LDA $2002 = 00                  A:00 X:FF Y:00 P:26 SP:FF PPU:  0,  0 CYC:14457
C7AB  29 80     AND #$80                        A:00 X:FF Y:00 P:26 SP:FF PPU:  0,  0 CYC:14461
C7AD  F0 F9     BEQ $C7A8                       A:00 X:FF Y:00 P:26 SP:FF PPU:  0,  0 CYC:14463
C7A8  AD 02 20  LDA $2002 = 00                  A:00 X:FF Y:00 P:26 SP:FF PPU:  0,  0 CYC:14466
C7AB  29 80     AND #$80                        A:00 X:FF Y:00 P:26 SP:FF PPU:  0,  0 CYC:14470
C7AD  F0 F9     BEQ $C7A8                       A:00 X:FF Y:00 P:26 SP:FF PPU:  0,  0 CYC:14472
C7A8  AD 02 20  LDA $2002 = 00                  A:00 X:FF Y:00 P:26 SP:FF PPU:  0,  0 CYC:14475
C7AB  29 80     AND #$80                        A:00 X:FF Y:00 P:26 SP:FF PPU:  0,  0 CYC:14479
C7AD  F0 F9     BEQ $C7A8                       A:00 X:FF Y:00 P:26 SP:FF PPU:  0,  0 CYC:14481
C7A8  AD 02 20  LDA $2002 = 00                  A:00 X:FF Y:00 P:26 SP:FF PPU:  0,  0 CYC:14484
C7AB  29 80     AND #$80                        A:00 X:FF Y:00 P:26 SP:FF PPU:  0,  0 CYC:14488
C7AD  F0 F9     BEQ $C7A8                       A:00 X:FF Y:00 P:26 SP:FF PPU:  0,  0 CYC:14490
C7A8  AD 02 20  LDA $2002 = 00                  A:00 X:FF Y:00 P:26 SP:FF PPU:  0,  0 CYC:14493
C7AB  29 80     AND #$80                        A:00 X:FF Y:00 P:26 SP:FF PPU:  0,  0 CYC:14497
C7AD  F0 F9     BEQ $C7A8                       A:00 X:FF Y:00 P:26 SP:FF PPU:  0,  0 CYC:14499
C7A8  AD 02 20  LDA $2002 = 00                  A:00 X:FF Y:00 P:26 SP:FF PPU:  0,  0 CYC:14502
C7AB  29 80     AND #$80                        A:00 X:FF Y:00 P:26 SP:FF PPU:  0,  0 CYC:14506
C7AD  F0 F9     BEQ $C7A8                       A:00 X:FF Y:00 P:26 SP:FF PPU:  0,  0 CYC:14508
C7A8  AD 02 20  LDA $2002 = 00                  A:00 X:FF Y:00 P:26 SP:FF PPU:  0,  0 CYC:14511
C7AB  29 80     AND #$80                        A:00 X:FF Y:00 P:26 SP:FF PPU:  0,  0 CYC:14515
C7AD  F0 F9     BEQ $C7A8                       A:00 X:FF Y:00 P:26 SP:FF PPU:  0,  0 CYC:14517
C7A8  AD 02 20  LDA $2002 = 00                  A:00 X:FF Y:00 P:26 SP:FF PPU:  0,  0 CYC:14520
C7AB  29 80     AND #$80                        A:00 X:FF Y:00 P:26 SP:FF PPU:  0,  0 CYC:14524
C7AD  F0 F9     BEQ $C7A8                       A:00 X:FF Y:00 P:26 SP:FF PPU:  0,  0 CYC:14526
C7A8  AD 02 20  LDA $2002 = 00                  A:00 X:FF Y:00 P:26 SP:FF PPU:  0,  0 CYC:14529
C7AB  29 80     AND #$80                        A:00 X:FF Y:00 P:26 SP:FF PPU:  0,  0 CYC:14533
C7AD  F0 F9     BEQ $C7A8                       A:00 X:FF Y:00 P:26 SP:FF PPU:  0,  0 CYC:14535
C7A8  AD 02 20  LDA $2002 = 00                  A:00 X:FF Y:00 P:26 SP:FF PPU:  0,  0 CYC:14538
C7AB  29 80     AND #$80                        A:00 X:FF Y:00 P:26 SP:FF PPU:  0,  0 CYC:14542
C7AD  F0 F9     BEQ $C7A8                       A:00 X:FF Y:00 P:26 SP:FF PPU:  0,  0 CYC:14544
C7A8  AD 02 20  LDA $2002 = 00                  A:00 X:FF Y:00 P:26 SP:FF PPU:  0,  0 CYC:14547
C7AB  29 80     AND #$80                        A:00 X:FF Y:00 P:26 SP:FF PPU:  0,  0 CYC:14551
C7AD  F0 F9     BEQ $C7A8                       A:00 X:FF Y:00 P:26 SP:FF PPU:  0,  0 CYC:14553
C7A8  AD 02 20  LDA $2002 = 00                  A:00 X:FF Y:00 P:26 SP:FF PPU:  0,  0 CYC:14556
C7AB  29 80     AND #$80                        A:00 X:FF Y:00 P:26 SP:FF PPU:  0,  0 CYC:14560
C7AD  F0 F9     BEQ $C7A8                       A:00 X:FF Y:00 P:26 SP:FF PPU:  0,  0 CYC:14562
C7A8  AD 02 20  LDA $2002 = 00                  A:00 X:FF Y:00 P:26 SP:FF PPU:  0,  0 CYC:14565
C7AB  29 80     AND #$80                        A:00 X:FF Y:00 P:26 SP:FF PPU:  0,  0 CYC:14569
C7AD  F0 F9     BEQ $C7A8                       A:00 X:FF Y:00 P:26 SP:FF PPU:  0,  0 CYC:14571
C7A8  AD 02 20  LDA $2002 = 00                  A:00 X:FF Y:00 P:26 SP:FF PPU:  0,  0 CYC:14574
C7AB  29 80     AND #$80                        A:00 X:FF Y:00 P:26 SP:FF PPU:  0,  0 CYC:14578
C7AD  F0 F9     BEQ $C7A8                       A:00 X:FF Y:00 P:26 SP:FF PPU:  0,  0 CYC:14580
C7A8  AD 02 20  LDA $2002 = 00                  A:00 X:FF Y:00 P:26 SP:FF PPU:  0,  0 CYC:14583
C7AB  29 80     AND #$80                        A:00 X:FF Y:00 P:26 SP:FF PPU:  0,  0 CYC:14587
C7AD  F0 F9     BEQ $C7A8                       A:00 X:FF Y:00 P:26 SP:FF PPU:  0,  0 CYC:14589
C7A8  AD 02 20  LDA $2002 = 00                  A:00 X:FF Y:00 P:26 SP:FF PPU:  0,  0 CYC:14592
C7AB  29 80     AND #$80                        A:00 X:FF Y:00 P:26 SP:FF PPU:  0,  0 CYC:14596
C7AD  F0 F9     BEQ $C7A8                       A:00 X:FF Y:00 P:26 SP:FF PPU:  0,  0 CYC:14598
C7A8  AD 02 20  LDA $2002 = 00                  A:00 X:FF Y:00 P:26 SP:FF PPU:  0,  0 CYC:14601
C7AB  29 80     AND #$80                        A:00 X:FF Y:00 P:26 SP:FF PPU:  0,  0 CYC:14605
C7AD  F0 F9     BEQ $C7A8                       A:00 X:FF Y:00 P:26 SP:FF PPU:  0,  0 CYC:14607
C7A8  AD 02 20  LDA $2002 = 00                  A:00 X:FF Y:00 P:26 SP:FF PPU:  0,  0 CYC:14610
C7AB  29 80     AND #$80                        A:00 X:FF Y:00 P:26 SP:FF PPU:  0,  0 CYC:14614
C7AD  F0 F9     BEQ $C7A8                       A:00 X:FF Y:00 P:26 SP:FF PPU:  0,  0 CYC:14616
C7A8  AD 02 20  LDA $2002 = 00                  A:00 X:FF Y:00 P:26 SP:FF PPU:  0,  0 CYC:14619
C7AB  29 80     AND #$80                        A:00 X:FF Y:00 P:26 SP:FF PPU:  0,  0 CYC:14623
C7AD  F0 F9     BEQ $C7A8                       A:00 X:FF Y:00 P:26 SP:FF PPU:  0,  0 CYC:14625
C7A8  AD 02 20  LDA $2002 = 00                  A:00 X:FF Y:00 P:26 SP:FF PPU:  0,  0 CYC:14628
C7AB  29 80     AND #$80                        A:00 X:FF Y:00 P:26 SP:FF PPU:  0,  0 CYC:14632
C7AD  F0 F9     BEQ $C7A8                       A:00 X:FF Y:00 P:26 SP:FF PPU:  0,  0 CYC:14634
C7A8  AD 02 20  LDA $2002 = 00                  A:00 X:FF Y:00 P:26 SP:FF PPU:  0,  0 CYC:14637
C7AB  29 80     AND #$80                        A:00 X:FF Y:00 P:26 SP:FF PPU:  0,  0 CYC:14641
C7AD  F0 F9     BEQ $C7A8                       A:00 X:FF Y:00 P:26 SP:FF PPU:  0,  0 CYC:14643
C7A8  AD 02 20  LDA $2002 = 00                  A:00 X:FF Y:00 P:26 SP:FF PPU:  0,  0 CYC:14646
C7AB  29 80     AND #$80                        A:00 X:FF Y:00 P:26 SP:FF PPU:  0,  0 CYC:14650
C7AD  F0 F9     BEQ $C7A8                       A:00 X:FF Y:00 P:26 SP:FF PPU:  0,  0 CYC:14652
C7A8  AD 02 20  LDA $2002 = 00                  A:00 X:FF Y:00 P:26 SP:FF PPU:  0,  0 CYC:14655
C7AB  29 80     AND #$80                        A:00 X:FF Y:00 P:26 SP:FF PPU:  0,  0 CYC:14659
C7AD  F0 F9     BEQ $C7A8                       A:00 X:FF Y:00 P:26 SP:FF PPU:  0,  0 CYC:14661
C7A8  AD 02 20  LDA $2002 = 00                  A:00 X:FF Y:00 P:26 SP:FF PPU:  0,  0 CYC:14664
C7AB  29 80     AND #$80                        A:00 X:FF Y:00 P:26 SP:FF PPU:  0,  0 CYC:14668
C7AD  F0 F9     BEQ $C7A8                       A:00 X:FF Y:00 P:26 SP:FF PPU:  0,  0 CYC:14670
C7A8  AD 02 20  LDA $2002 = 00                  A:00 X:FF Y:00 P:26 SP:FF PPU:  0,  0 CYC:14673
C7AB  29 80     AND #$80                        A:00 X:FF Y:00 P:26 SP:FF PPU:  0,  0 CYC:14677
C7AD  F0 F9     BEQ $C7A8                       A:00 X:FF Y:00 P:26 SP:FF PPU:  0,  0 CYC:14679
C7A8  AD 02 20  LDA $2002 = 00                  A:00 X:FF Y:00 P:26 SP:FF PPU:  0,  0 CYC:14682
C7AB  29 80     AND #$80                        A:00 X:FF Y:00 P:26 SP:FF PPU:  0,  0 CYC:14686
C7AD  F0 F9     BEQ $C7A8                       A:00 X:FF Y:00 P:26 SP:FF PPU:  0,  0 CYC:14688
C7A8  AD 02 20  LDA $2002 = 00                  A:00 X:FF Y:00 P:26 SP:FF PPU:  0,  0 CYC:14691
C7AB  29 80     AND #$80                        A:00 X:FF Y:00 P:26 SP:FF PPU:  0,  0 CYC:14695
C7AD  F0 F9     BEQ $C7A8                       A:00 X:FF Y:00 P:26 SP:FF PPU:  0,  0 CYC:14697
C7A8  AD 02 20  LDA $2002 = 00                  A:00 X:FF Y:00 P:26 SP:FF PPU:  0,  0 CYC:14700
C7AB  29 80     AND #$80                        A:00 X:FF Y:00 P:26 SP:FF PPU:  0,  0 CYC:14704
C7AD  F0 F9     BEQ $C7A8                       A:00 X:FF Y:00 P:26 SP:FF PPU:  0,  0 CYC:14706
C7A8  AD 02 20  LDA $2002 = 00                  A:00 X:FF Y:00 P:26 SP:FF PPU:  0,  0 CYC:14709
C7AB  29 80     AND #$80                        A:00 X:FF Y:00 P:26 SP:FF PPU:  0,  0 CYC:14713
C7AD  F0 F9     BEQ $C7A8                       A:00 X:FF Y:00 P:26 SP:FF PPU:  0,  0 CYC:14715
C7A8  AD 02 20  LDA $2002 = 00                  A:00 X:FF Y:00 P:26 SP:FF PPU:  0,  0 CYC:14718
C7AB  29 80     AND #$80                        A:00 X:FF Y:00 P:26 SP:FF PPU:  0,  0 CYC:14722
C7AD  F0 F9     BEQ $C7A8                       A:00 X:FF Y:00 P:26 SP:FF PPU:  0,  0 CYC:14724
C7A8  AD 02 20  LDA $2002 = 00                  A:00 X:FF Y:00 P:26 SP:FF PPU:  0,  0 CYC:14727
C7AB  29 80     AND #$80                        A:00 X:FF Y:00 P:26 SP:FF PPU:  0,  0 CYC:14731
C7AD  F0 F9     BEQ $C7A8                       A:00 X:FF Y:00 P:26 SP:FF PPU:  0,  0 CYC:14733
C7A8  AD 02 20  LDA $2002 = 00                  A:00 X:FF Y:00 P:26 SP:FF PPU:  0,  0 CYC:14736
C7AB  29 80     AND #$80                        A:00 X:FF Y:00 P:26 SP:FF PPU:  0,  0 CYC:14740
C7AD  F0 F9     BEQ $C7A8                       A:00 X:FF Y:00 P:26 SP:FF PPU:  0,  0 CYC:14742
C7A8  AD 02 20  LDA $2002 = 00                  A:00 X:FF Y:00 P:26 SP:FF PPU:  0,  0 CYC:14745
C7AB  29 80     AND #$80                        A:00 X:FF Y:00 P:26 SP:FF PPU:  0,  0 CYC:14749
C7AD  F0 F9     BEQ $C7A8                       A:00 X:FF Y:00 P:26 SP:FF PPU:  0,  0 CYC:14751
C7A8  AD 02 20  LDA $2002 = 00                  A:00 X:FF Y:00 P:26 SP:FF PPU:  0,  0 CYC:14754
C7AB  29 80     AND #$80                        A:00 X:FF Y:00 P:26 SP:FF PPU:  0,  0 CYC:14758
C7AD  F0 F9     BEQ $C7A8                       A:00 X:FF Y:00 P:26 SP:FF PPU:  0,  0 CYC:14760
C7A8  AD 02 20  LDA $2002 = 00                  A:00 X:FF Y:00 P:26 SP:FF PPU:  0,  0 CYC:14763
C7AB  29 80     AND #$80                        A:00 X:FF Y:00 P:26 SP:FF PPU:  0,  0 CYC:14767
C7AD  F0 F9     BEQ $C7A8                       A:00 X:FF Y:00 P:26 SP:FF PPU:  0,  0 CYC:14769
C7A8  AD 02 20  LDA $2002 = 00                  A:00 X:FF Y:00 P:26 SP:FF PPU:  0,  0 CYC:14772
C7AB  29 80     AND #$80                        A:00 X:FF Y:00 P:26 SP:FF PPU:  0,  0 CYC:14776
C7AD  F0 F9     BEQ $C7A8                       A:00 X:FF Y:00 P:26 SP:FF PPU:  0,  0 CYC:14778
C7A8  AD 02 20  LDA $2002 = 00                  A:00 X:FF Y:00 P:26 SP:FF PPU:  0,  0 CYC:14781
C7AB  29 80     AND #$80                        A:00 X:FF Y:00 P:26 SP:FF PPU:  0,  0 CYC:14785
C7AD  F0 F9     BEQ $C7A8                       A:00 X:FF Y:00 P:26 SP:FF PPU:  0,  0 CYC:14787
C7A8  AD 02 20  LDA $2002 = 00                  A:00 X:FF Y:00 P:26 SP:FF PPU:  0,  0 CYC:14790
C7AB  29 80     AND #$80                        A:00 X:FF Y:00 P:26 SP:FF PPU:  0,  0 CYC:14794
C7AD  F0 F9     BEQ $C7A8                       A:00 X:FF Y:00 P:26 SP:FF PPU:  0,  0 CYC:14796
C7A8  AD 02 20  LDA $2002 = 00                  A:00 X:FF Y:00 P:26 SP:FF PPU:  0,  0 CYC:14799
C7AB  29 80     AND #$80                        A:00 X:FF Y:00 P:26 SP:FF PPU:  0,  0 CYC:14803
C7AD  F0 F9     BEQ $C7A8                       A:00 X:FF Y:00 P:26 SP:FF PPU:  0,  0 CYC:14805
C7A8  AD 02 20  LDA $2002 = 00                  A:00 X:FF Y:00 P:26 SP:FF PPU:  0,  0 CYC:14808
C7AB  29 80     AND #$80                        A:00 X:FF Y:00 P:26 SP:FF PPU:  0,  0 CYC:14812
C7AD  F0 F9     BEQ $C7A8                       A:00 X:FF Y:00 P:26 SP:FF PPU:  0,  0 CYC:14814
C7A8  AD 02 20  LDA $2002 = 00                  A:00 X:FF Y:00 P:26 SP:FF PPU:  0,  0 CYC:14817
C7AB  29 80     AND #$80                        A:00 X:FF Y:00 P:26 SP:FF PPU:  0,  0 CYC:14821
C7AD  F0 F9     BEQ $C7A8                       A:00 X:FF Y:00 P:26 SP:FF PPU:  0,  0 CYC:14823
C7A8  AD 02 20  LDA $2002 = 00                  A:00 X:FF Y:00 P:26 SP:FF PPU:  0,  0 CYC:14826
C7AB  29 80     AND #$80                        A:00 X:FF Y:00 P:26 SP:FF PPU:  0,  0 CYC:14830
C7AD  F0 F9     BEQ $C7A8                       A:00 X:FF Y:00 P:26 SP:FF PPU:  0,  0 CYC:14832
C7A8  AD 02 20  LDA $2002 = 00                  A:00 X:FF Y:00 P:26 SP:FF PPU:  0,  0 CYC:14835
C7AB  29 80     AND #$80                        A:00 X:FF Y:00 P:26 SP:FF PPU:  0,  0 CYC:14839
C7AD  F0 F9     BEQ $C7A8                       A:00 X:FF Y:00 P:26 SP:FF PPU:  0,  0 CYC:14841
C7A8  AD 02 20  LDA $2002 = 00                  A:00 X:FF Y:00 P:26 SP:FF PPU:  0,  0 CYC:14844
C7AB  29 80     AND #$80                        A:00 X:FF Y:00 P:26 SP:FF PPU:  0,  0 CYC:14848
C7AD  F0 F9     BEQ $C7A8                       A:00 X:FF Y:00 P:26 SP:FF PPU:  0,  0 CYC:14850
C7A8  AD 02 20  LDA $2002 = 00                  A:00 X:FF Y:00 P:26 SP:FF PPU:  0,  0 CYC:14853
C7AB  29 80     AND #$80                        A:00 X:FF Y:00 P:26 SP:FF PPU:  0,  0 CYC:14857
C7AD  F0 F9     BEQ $C7A8                       A:00 X:FF Y:00 P:26 SP:FF PPU:  0,  0 CYC:14859
C7A8  AD 02 20  LDA $2002 = 00                  A:00 X:FF Y:00 P:26 SP:FF PPU:  0,  0 CYC:14862
C7AB  29 80     AND #$80                        A:00 X:FF Y:00 P:26 SP:FF PPU:  0,  0 CYC:14866
C7AD  F0 F9     BEQ $C7A8                       A:00 X:FF Y:00 P:26 SP:FF PPU:  0,  0 CYC:14868
C7A8  AD 02 20  LDA $2002 = 00                  A:00 X:FF Y:00 P:26 SP:FF PPU:  0,  0 CYC:14871
C7AB  29 80     AND #$80                        A:00 X:FF Y:00 P:26 SP:FF PPU:  0,  0 CYC:14875
C7AD  F0 F9     BEQ $C7A8                       A:00 X:FF Y:00 P:26 SP:FF PPU:  0,  0 CYC:14877
C7A8  AD 02 20  LDA $2002 = 00                  A:00 X:FF Y:00 P:26 SP:FF PPU:  0,  0 CYC:14880
C7AB  29 80     AND #$80                        A:00 X:FF Y:00 P:26 SP:FF PPU:  0,  0 CYC:14884
C7AD  F0 F9     BEQ $C7A8                       A:00 X:FF Y:00 P:26 SP:FF PPU:  0,  0 CYC:14886
C7A8  AD 02 20  LDA $2002 = 00                  A:00 X:FF Y:00 P:26 SP:FF PPU:  0,  0 CYC:14889
C7AB  29 80     AND #$80                        A:00 X:FF Y:00 P:26 SP:FF PPU:  0,  0 CYC:14893
C7AD  F0 F9     BEQ $C7A8                       A:00 X:FF Y:00 P:26 SP:FF PPU:  0,  0 CYC:14895
C7A8  AD 02 20  LDA $2002 = 00                  A:00 X:FF Y:00 P:26 SP:FF PPU:  0,  0 CYC:14898
C7AB  29 80     AND #$80                        A:00 X:FF Y:00 P:26 SP:FF PPU:  0,  0 CYC:14902
C7AD  F0 F9     BEQ $C7A8                       A:00 X:FF Y:00 P:26 SP:FF PPU:  0,  0 CYC:14904
C7A8  AD 02 20  LDA $2002 = 00                  A:00 X:FF Y:00 P:26 SP:FF PPU:  0,  0 CYC:14907
C7AB  29 80     AND #$80                        A:00 X:FF Y:00 P:26 SP:FF PPU:  0,  0 CYC:14911
C7AD  F0 F9     BEQ $C7A8                       A:00 X:FF Y:00 P:26 SP:FF PPU:  0,  0 CYC:14913
C7A8  AD 02 20  LDA $2002 = 00                  A:00 X:FF Y:00 P:26 SP:FF PPU:  0,  0 CYC:14916
C7AB  29 80     AND #$80                        A:00 X:FF Y:00 P:26 SP:FF PPU:  0,  0 CYC:14920
C7AD  F0 F9     BEQ $C7A8                       A:00 X:FF Y:00 P:26 SP:FF PPU:  0,  0 CYC:14922
C7A8  AD 02 20  LDA $2002 = 00                  A:00 X:FF Y:00 P:26 SP:FF PPU:  0,  0 CYC:14925
C7AB  29 80     AND #$80                        A:00 X:FF Y:00 P:26 SP:FF PPU:  0,  0 CYC:14929
C7AD  F0 F9     BEQ $C7A8                       A:00 X:FF Y:00 P:26 SP:FF PPU:  0,  0 CYC:14931
C7A8  AD 02 20  LDA $2002 = 00                  A:00 X:FF Y:00 P:26 SP:FF PPU:  0,  0 CYC:14934
C7AB  29 80     AND #$80                        A:00 X:FF Y:00 P:26 SP:FF PPU:  0,  0 CYC:14938
C7AD  F0 F9     BEQ $C7A8                       A:00 X:FF Y:00 P:26 SP:FF PPU:  0,  0 CYC:14940
C7A8  AD 02 20  LDA $2002 = 00                  A:00 X:FF Y:00 P:26 SP:FF PPU:  0,  0 CYC:14943
C7AB  29 80     AND #$80                        A:00 X:FF Y:00 P:26 SP:FF PPU:  0,  0 CYC:14947
C7AD  F0 F9     BEQ $C7A8                       A:00 X:FF Y:00 P:26 SP:FF PPU:  0,  0 CYC:14949
C7A8  AD 02 20  LDA $2002 = 00                  A:00 X:FF Y:00 P:26 SP:FF PPU:  0,  0 CYC:14952
C7AB  29 80     AND #$80                        A:00 X:FF Y:00 P:26 SP:FF PPU:  0,  0 CYC:14956
C7AD  F0 F9     BEQ $C7A8                       A:00 X:FF Y:00 P:26 SP:FF PPU:  0,  0 CYC:14958
C7A8  AD 02 20  LDA $2002 = 00                  A:00 X:FF Y:00 P:26 SP:FF PPU:  0,  0 CYC:14961
C7AB  29 80     AND #$80                        A:00 X:FF Y:00 P:26 SP:FF PPU:  0,  0 CYC:14965
C7AD  F0 F9     BEQ $C7A8                       A:00 X:FF Y:00 P:26 SP:FF PPU:  0,  0 CYC:14967
C7A8  AD 02 20  LDA $2002 = 00                  A:00 X:FF Y:00 P:26 SP:FF PPU:  0,  0 CYC:14970
C7AB  29 80     AND #$80                        A:00 X:FF Y:00 P:26 SP:FF PPU:  0,  0 CYC:14974
C7AD  F0 F9     BEQ $C7A8                       A:00 X:FF Y:00 P:26 SP:FF PPU:  0,  0 CYC:14976
C7A8  AD 02 20  LDA $2002 = 00                  A:00 X:FF Y:00 P:26 SP:FF PPU:  0,  0 CYC:14979
C7AB  29 80     AND #$80                        A:00 X:FF Y:00 P:26 SP:FF PPU:  0,  0 CYC:14983
C7AD  F0 F9     BEQ $C7A8                       A:00 X:FF Y:00 P:26 SP:FF PPU:  0,  0 CYC:14985
C7A8  AD 02 20  LDA $2002 = 00                  A:00 X:FF Y:00 P:26 SP:FF PPU:  0,  0 CYC:14988
C7AB  29 80     AND #$80                        A:00 X:FF Y:00 P:26 SP:FF PPU:  0,  0 CYC:14992
C7AD  F0 F9     BEQ $C7A8                       A:00 X:FF Y:00 P:26 SP:FF PPU:  0,  0 CYC:14994
C7A8  AD 02 20  LDA $2002 = 00                  A:00 X:FF Y:00 P:26 SP:FF PPU:  0,  0 CYC:14997
C7AB  29 80     AND #$80                        A:00 X:FF Y:00 P:26 SP:FF PPU:  0,  0 CYC:15001
C7AD  F0 F9     BEQ $C7A8                       A:00 X:FF Y:00 P:26 SP:FF PPU:  0,  0 CYC:15003
C7A8  AD 02 20  LDA $2002 = 00                  A:00 X:FF Y:00 P:26 SP:FF PPU:  0,  0 CYC:15006
C7AB  29 80     AND #$80                        A:00 X:FF Y:00 P:26 SP:FF PPU:  0,  0 CYC:15010
C7AD  F0 F9     BEQ $C7A8                       A:00 X:FF Y:00 P:26 SP:FF PPU:  0,  0 CYC:15012
C7A8  AD 02 20  LDA $2002 = 00                  A:00 X:FF Y:00 P:26 SP:FF PPU:  0,  0 CYC:15015
C7AB  29 80     AND #$80                        A:00 X:FF Y:00 P:26 SP:FF PPU:  0,  0 CYC:15019
C7AD  F0 F9     BEQ $C7A8                       A:00 X:FF Y:00 P:26 SP:FF PPU:  0,  0 CYC:15021
C7A8  AD 02 20  LDA $2002 = 00                  A:00 X:FF Y:00 P:26 SP:FF PPU:  0,  0 CYC:15024
C7AB  29 80     AND #$80                        A:00 X:FF Y:00 P:26 SP:FF PPU:  0,  0 CYC:15028
C7AD  F0 F9     BEQ $C7A8                       A:00 X:FF Y:00 P:26 SP:FF PPU:  0,  0 CYC:15030
C7A8  AD 02 20  LDA $2002 = 00                  A:00 X:FF Y:00 P:26 SP:FF PPU:  0,  0 CYC:15033
C7AB  29 80     AND #$80                        A:00 X:FF Y:00 P:26 SP:FF PPU:  0,  0 CYC:15037
C7AD  F0 F9     BEQ $C7A8                       A:00 X:FF Y:00 P:26 SP:FF PPU:  0,  0 CYC:15039
C7A8  AD 02 20  LDA $2002 = 00                  A:00 X:FF Y:00 P:26 SP:FF PPU:  0,  0 CYC:15042
C7AB  29 80     AND #$80                        A:00 X:FF Y:00 P:26 SP:FF PPU:  0,  0 CYC:15046
C7AD  F0 F9     BEQ $C7A8                       A:00 X:FF Y:00 P:26 SP:FF PPU:  0,  0 CYC:15048
C7A8  AD 02 20  LDA $2002 = 00                  A:00 X:FF Y:00 P:26 SP:FF PPU:  0,  0 CYC:15051
C7AB  29 80     AND #$80                        A:00 X:FF Y:00 P:26 SP:FF PPU:  0,  0 CYC:15055
C7AD  F0 F9     BEQ $C7A8                       A:00 X:FF Y:00 P:26 SP:FF PPU:  0,  0 CYC:15057
C7A8  AD 02 20  LDA $2002 = 00                  A:00 X:FF Y:00 P:26 SP:FF PPU:  0,  0 CYC:15060
C7AB  29 80     AND #$80                        A:00 X:FF Y:00 P:26 SP:FF PPU:  0,  0 CYC:15064
C7AD  F0 F9     BEQ $C7A8                       A:00 X:FF Y:00 P:26 SP:FF PPU:  0,  0 CYC:15066
C7A8  AD 02 20  LDA $2002 = 00                  A:00 X:FF Y:00 P:26 SP:FF PPU:  0,  0 CYC:15069
C7AB  29 80     AND #$80                        A:00 X:FF Y:00 P:26 SP:FF PPU:  0,  0 CYC:15073
C7AD  F0 F9     BEQ $C7A8                       A:00 X:FF Y:00 P:26 SP:FF PPU:  0,  0 CYC:15075
C7A8  AD 02 20  LDA $2002 = 00                  A:00 X:FF Y:00 P:26 SP:FF PPU:  0,  0 CYC:15078
C7AB  29 80     AND #$80                        A:00 X:FF Y:00 P:26 SP:FF PPU:  0,  0 CYC:15082
C7AD  F0 F9     BEQ $C7A8                       A:00 X:FF Y:00 P:26 SP:FF PPU:  0,  0 CYC:15084
C7A8  AD 02 20  LDA $2002 = 00                  A:00 X:FF Y:00 P:26 SP:FF PPU:  0,  0 CYC:15087
C7AB  29 80     AND #$80                        A:00 X:FF Y:00 P:26 SP:FF PPU:  0,  0 CYC:15091
C7AD  F0 F9     BEQ $C7A8                       A:00 X:FF Y:00 P:26 SP:FF PPU:  0,  0 CYC:15093
C7A8  AD 02 20  LDA $2002 = 00                  A:00 X:FF Y:00 P:26 SP:FF PPU:  0,  0 CYC:15096
C7AB  29 80     AND #$80                        A:00 X:FF Y:00 P:26 SP:FF PPU:  0,  0 CYC:15100
C7AD  F0 F9     BEQ $C7A8                       A:00 X:FF Y:00 P:26 SP:FF PPU:  0,  0 CYC:15102
C7A8  AD 02 20  LDA $2002 = 00                  A:00 X:FF Y:00 P:26 SP:FF PPU:  0,  0 CYC:15105
C7AB  29 80     AND #$80                        A:00 X:FF Y:00 P:26 SP:FF PPU:  0,  0 CYC:15109
C7AD  F0 F9     BEQ $C7A8                       A:00 X:FF Y:00 P:26 SP:FF PPU:  0,  0 CYC:15111
C7A8  AD 02 20  LDA $2002 = 00                  A:00 X:FF Y:00 P:26 SP:FF PPU:  0,  0 CYC:15114
C7AB  29 80     AND #$80                        A:00 X:FF Y:00 P:26 SP:FF PPU:  0,  0 CYC:15118
C7AD  F0 F9     BEQ $C7A8                       A:00 X:FF Y:00 P:26 SP:FF PPU:  0,  0 CYC:15120
C7A8  AD 02 20  LDA $2002 = 00                  A:00 X:FF Y:00 P:26 SP:FF PPU:  0,  0 CYC:15123
C7AB  29 80     AND #$80                        A:00 X:FF Y:00 P:26 SP:FF PPU:  0,  0 CYC:15127
C7AD  F0 F9     BEQ $C7A8                       A:00 X:FF Y:00 P:26 SP:FF PPU:  0,  0 CYC:15129
C7A8  AD 02 20  LDA $2002 = 00                  A:00 X:FF Y:00 P:26 SP:FF PPU:  0,  0 CYC:15132
C7AB  29 80     AND #$80                        A:00 X:FF Y:00 P:26 SP:FF PPU:  0,  0 CYC:15136
C7AD  F0 F9     BEQ $C7A8                       A:00 X:FF Y:00 P:26 SP:FF PPU:  0,  0 CYC:15138
C7A8  AD 02 20  LDA $2002 = 00                  A:00 X:FF Y:00 P:26 SP:FF PPU:  0,  0 CYC:15141
C7AB  29 80     AND #$80                        A:00 X:FF Y:00 P:26 SP:FF PPU:  0,  0 CYC:15145
C7AD  F0 F9     BEQ $C7A8                       A:00 X:FF Y:00 P:26 SP:FF PPU:  0,  0 CYC:15147
C7A8  AD 02 20  LDA $2002 = 00                  A:00 X:FF Y:00 P:26 SP:FF PPU:  0,  0 CYC:15150
C7AB  29 80     AND #$80                        A:00 X:FF Y:00 P:26 SP:FF PPU:  0,  0 CYC:15154
C7AD  F0 F9     BEQ $C7A8                       A:00 X:FF Y:00 P:26 SP:FF PPU:  0,  0 CYC:15156
C7A8  AD 02 20  LDA $2002 = 00                  A:00 X:FF Y:00 P:26 SP:FF PPU:  0,  0 CYC:15159
C7AB  29 80     AND #$80                        A:00 X:FF Y:00 P:26 SP:FF PPU:  0,  0 CYC:15163
C7AD  F0 F9     BEQ $C7A8                       A:00 X:FF Y:00 P:26 SP:FF PPU:  0,  0 CYC:15165
C7A8  AD 02 20  LDA $2002 = 00                  A:00 X:FF Y:00 P:26 SP:FF PPU:  0,  0 CYC:15168
C7AB  29 80     AND #$80                        A:00 X:FF Y:00 P:26 SP:FF PPU:  0,  0 CYC:15172
C7AD  F0 F9     BEQ $C7A8                       A:00 X:FF Y:00 P:26 SP:FF PPU:  0,  0 CYC:15174
C7A8  AD 02 20  LDA $2002 = 00                  A:00 X:FF Y:00 P:26 SP:FF PPU:  0,  0 CYC:15177
C7AB  29 80     AND #$80                        A:00 X:FF Y:00 P:26 SP:FF PPU:  0,  0 CYC:15181
C7AD  F0 F9     BEQ $C7A8                       A:00 X:FF Y:00 P:26 SP:FF PPU:  0,  0 CYC:15183
C7A8  AD 02 20  LDA $2002 = 00                  A:00 X:FF Y:00 P:26 SP:FF PPU:  0,  0 CYC:15186
C7AB  29 80     AND #$80                        A:00 X:FF Y:00 P:26 SP:FF PPU:  0,  0 CYC:15190
C7AD  F0 F9     BEQ $C7A8                       A:00 X:FF Y:00 P:26 SP:FF PPU:  0,  0 CYC:15192
C7A8  AD 02 20  LDA $2002 = 00                  A:00 X:FF Y:00 P:26 SP:FF PPU:  0,  0 CYC:15195
C7AB  29 80     AND #$80                        A:00 X:FF Y:00 P:26 SP:FF PPU:  0,  0 CYC:15199
C7AD  F0 F9     BEQ $C7A8                       A:00 X:FF Y:00 P:26 SP:FF PPU:  0,  0 CYC:15201
C7A8  AD 02 20  LDA $2002 = 00                  A:00 X:FF Y:00 P:26 SP:FF PPU:  0,  0 CYC:15204
C7AB  29 80     AND #$80                        A:00 X:FF Y:00 P:26 SP:FF PPU:  0,  0 CYC:15208
C7AD  F0 F9     BEQ $C7A8                       A:00 X:FF Y:00 P:26 SP:FF PPU:  0,  0 CYC:15210
C7A8  AD 02 20  LDA $2002 = 00                  A:00 X:FF Y:00 P:26 SP:FF PPU:  0,  0 CYC:15213
C7AB  29 80     AND #$80                        A:00 X:FF Y:00 P:26 SP:FF PPU:  0,  0 CYC:15217
C7AD  F0 F9     BEQ $C7A8                       A:00 X:FF Y:00 P:26 SP:FF PPU:  0,  0 CYC:15219
C7A8  AD 02 20  LDA $2002 = 00                  A:00 X:FF Y:00 P:26 SP:FF PPU:  0,  0 CYC:15222
C7AB  29 80     AND #$80                        A:00 X:FF Y:00 P:26 SP:FF PPU:  0,  0 CYC:15226
C7AD  F0 F9     BEQ $C7A8                       A:00 X:FF Y:00 P:26 SP:FF PPU:  0,  0 CYC:15228
C7A8  AD 02 20  LDA $2002 = 00                  A:00 X:FF Y:00 P:26 SP:FF PPU:  0,  0 CYC:15231
C7AB  29 80     AND #$80                        A:00 X:FF Y:00 P:26 SP:FF PPU:  0,  0 CYC:15235
C7AD  F0 F9     BEQ $C7A8                       A:00 X:FF Y:00 P:26 SP:FF PPU:  0,  0 CYC:15237
C7A8  AD 02 20  LDA $2002 = 00                  A:00 X:FF Y:00 P:26 SP:FF PPU:  0,  0 CYC:15240
C7AB  29 80     AND #$80                        A:00 X:FF Y:00 P:26 SP:FF PPU:  0,  0 CYC:15244
C7AD  F0 F9     BEQ $C7A8                       A:00 X:FF Y:00 P:26 SP:FF PPU:  0,  0 CYC:15246
C7A8  AD 02 20  LDA $2002 = 00                  A:00 X:FF Y:00 P:26 SP:FF PPU:  0,  0 CYC:15249
C7AB  29 80     AND #$80                        A:00 X:FF Y:00 P:26 SP:FF PPU:  0,  0 CYC:15253
C7AD  F0 F9     BEQ $C7A8                       A:00 X:FF Y:00 P:26 SP:FF PPU:  0,  0 CYC:15255
C7A8  AD 02 20  LDA $2002 = 00                  A:00 X:FF Y:00 P:26 SP:FF PPU:  0,  0 CYC:15258
C7AB  29 80     AND #$80                        A:00 X:FF Y:00 P:26 SP:FF PPU:  0,  0 CYC:15262
C7AD  F0 F9     BEQ $C7A8                       A:00 X:FF Y:00 P:26 SP:FF PPU:  0,  0 CYC:15264
C7A8  AD 02 20  LDA $2002 = 00                  A:00 X:FF Y:00 P:26 SP:FF PPU:  0,  0 CYC:15267
C7AB  29 80     AND #$80                        A:00 X:FF Y:00 P:26 SP:FF PPU:  0,  0 CYC:15271
C7AD  F0 F9     BEQ $C7A8                       A:00 X:FF Y:00 P:26 SP:FF PPU:  0,  0 CYC:15273
C7A8  AD 02 20  LDA $2002 = 00                  A:00 X:FF Y:00 P:26 SP:FF PPU:  0,  0 CYC:15276
C7AB  29 80     AND #$80                        A:00 X:FF Y:00 P:26 SP:FF PPU:  0,  0 CYC:15280
C7AD  F0 F9     BEQ $C7A8                       A:00 X:FF Y:00 P:26 SP:FF PPU:  0,  0 CYC:15282
C7A8  AD 02 20  LDA $2002 = 00                  A:00 X:FF Y:00 P:26 SP:FF PPU:  0,  0 CYC:15285
C7AB  29 80     AND #$80                        A:00 X:FF Y:00 P:26 SP:FF PPU:  0,  0 CYC:15289
C7AD  F0 F9     BEQ $C7A8                       A:00 X:FF Y:00 P:26 SP:FF PPU:  0,  0 CYC:15291
C7A8  AD 02 20  LDA $2002 = 00                  A:00 X:FF Y:00 P:26 SP:FF PPU:  0,  0 CYC:15294
C7AB  29 80     AND #$80                        A:00 X:FF Y:00 P:26 SP:FF PPU:  0,  0 CYC:15298
C7AD  F0 F9     BEQ $C7A8                       A:00 X:FF Y:00 P:26 SP:FF PPU:  0,  0 CYC:15300
C7A8  AD 02 20  LDA $2002 = 00                  A:00 X:FF Y:00 P:26 SP:FF PPU:  0,  0 CYC:15303
C7AB  29 80     AND #$80                        A:00 X:FF Y:00 P:26 SP:FF PPU:  0,  0 CYC:15307
C7AD  F0 F9     BEQ $C7A8                       A:00 X:FF Y:00 P:26 SP:FF PPU:  0,  0 CYC:15309
C7A8  AD 02 20  LDA $2002 = 00                  A:00 X:FF Y:00 P:26 SP:FF PPU:  0,  0 CYC:15312
C7AB  29 80     AND #$80                        A:00 X:FF Y:00 P:26 SP:FF PPU:  0,  0 CYC:15316
C7AD  F0 F9     BEQ $C7A8                       A:00 X:FF Y:00 P:26 SP:FF PPU:  0,  0 CYC:15318
C7A8  AD 02 20  LDA $2002 = 00                  A:00 X:FF Y:00 P:26 SP:FF PPU:  0,  0 CYC:15321
C7AB  29 80     AND #$80                        A:00 X:FF Y:00 P:26 SP:FF PPU:  0,  0 CYC:15325
C7AD  F0 F9     BEQ $C7A8                       A:00 X:FF Y:00 P:26 SP:FF PPU:  0,  0 CYC:15327
C7A8  AD 02 20  LDA $2002 = 00                  A:00 X:FF Y:00 P:26 SP:FF PPU:  0,  0 CYC:15330
C7AB  29 80     AND #$80                        A:00 X:FF Y:00 P:26 SP:FF PPU:  0,  0 CYC:15334
C7AD  F0 F9     BEQ $C7A8                       A:00 X:FF Y:00 P:26 SP:FF PPU:  0,  0 CYC:15336
C7A8  AD 02 20  LDA $2002 = 00                  A:00 X:FF Y:00 P:26 SP:FF PPU:  0,  0 CYC:15339
C7AB  29 80     AND #$80                        A:00 X:FF Y:00 P:26 SP:FF PPU:  0,  0 CYC:15343
C7AD  F0 F9     BEQ $C7A8                       A:00 X:FF Y:00 P:26 SP:FF PPU:  0,  0 CYC:15345
C7A8  AD 02 20  LDA $2002 = 00                  A:00 X:FF Y:00 P:26 SP:FF PPU:  0,  0 CYC:15348
C7AB  29 80     AND #$80                        A:00 X:FF Y:00 P:26 SP:FF PPU:  0,  0 CYC:15352
C7AD  F0 F9     BEQ $C7A8                       A:00 X:FF Y:00 P:26 SP:FF PPU:  0,  0 CYC:15354
C7A8  AD 02 20  LDA $2002 = 00                  A:00 X:FF Y:00 P:26 SP:FF PPU:  0,  0 CYC:15357
C7AB  29 80     AND #$80                        A:00 X:FF Y:00 P:26 SP:FF PPU:  0,  0 CYC:15361
C7AD  F0 F9     BEQ $C7A8                       A:00 X:FF Y:00 P:26 SP:FF PPU:  0,  0 CYC:15363
C7A8  AD 02 20  LDA $2002 = 00                  A:00 X:FF Y:00 P:26 SP:FF PPU:  0,  0 CYC:15366
C7AB  29 80     AND #$80                        A:00 X:FF Y:00 P:26 SP:FF PPU:  0,  0 CYC:15370
C7AD  F0 F9     BEQ $C7A8                       A:00 X:FF Y:00 P:26 SP:FF PPU:  0,  0 CYC:15372
C7A8  AD 02 20  LDA $2002 = 00                  A:00 X:FF Y:00 P:26 SP:FF PPU:  0,  0 CYC:15375
C7AB  29 80     AND #$80                        A:00 X:FF Y:00 P:26 SP:FF PPU:  0,  0 CYC:15379
C7AD  F0 F9     BEQ $C7A8                       A:00 X:FF Y:00 P:26 SP:FF PPU:  0,  0 CYC:15381
C7A8  AD 02 20  LDA $2002 = 00                  A:00 X:FF Y:00 P:26 SP:FF PPU:  0,  0 CYC:15384
C7AB  29 80     AND #$80                        A:00 X:FF Y:00 P:26 SP:FF PPU:  0,  0 CYC:15388
C7AD  F0 F9     BEQ $C7A8                       A:00 X:FF Y:00 P:26 SP:FF PPU:  0,  0 CYC:15390
C7A8  AD 02 20  LDA $2002 = 00                  A:00 X:FF Y:00 P:26 SP:FF PPU:  0,  0 CYC:15393
C7AB  29 80     AND #$80                        A:00 X:FF Y:00 P:26 SP:FF PPU:  0,  0 CYC:15397
C7AD  F0 F9     BEQ $C7A8                       A:00 X:FF Y:00 P:26 SP:FF PPU:  0,  0 CYC:15399
C7A8  AD 02 20  LDA $2002 = 00                  A:00 X:FF Y:00 P:26 SP:FF PPU:  0,  0 CYC:15402
C7AB  29 80     AND #$80                        A:00 X:FF Y:00 P:26 SP:FF PPU:  0,  0 CYC:15406
C7AD  F0 F9     BEQ $C7A8                       A:00 X:FF Y:00 P:26 SP:FF PPU:  0,  0 CYC:15408
C7A8  AD 02 20  LDA $2002 = 00                  A:00 X:FF Y:00 P:26 SP:FF PPU:  0,  0 CYC:15411
C7AB  29 80     AND #$80                        A:00 X:FF Y:00 P:26 SP:FF PPU:  0,  0 CYC:15415
C7AD  F0 F9     BEQ $C7A8                       A:00 X:FF Y:00 P:26 SP:FF PPU:  0,  0 CYC:15417
C7A8  AD 02 20  LDA $2002 = 00                  A:00 X:FF Y:00 P:26 SP:FF PPU:  0,  0 CYC:15420
C7AB  29 80     AND #$80                        A:00 X:FF Y:00 P:26 SP:FF PPU:  0,  0 CYC:15424
C7AD  F0 F9     BEQ $C7A8                       A:00 X:FF Y:00 P:26 SP:FF PPU:  0,  0 CYC:15426
C7A8  AD 02 20  LDA $2002 = 00                  A:00 X:FF Y:00 P:26 SP:FF PPU:  0,  0 CYC:15429
C7AB  29 80     AND #$80                        A:00 X:FF Y:00 P:26 SP:FF PPU:  0,  0 CYC:15433
C7AD  F0 F9     BEQ $C7A8                       A:00 X:FF Y:00 P:26 SP:FF PPU:  0,  0 CYC:15435
C7A8  AD 02 20  LDA $2002 = 00                  A:00 X:FF Y:00 P:26 SP:FF PPU:  0,  0 CYC:15438
C7AB  29 80     AND #$80                        A:00 X:FF Y:00 P:26 SP:FF PPU:  0,  0 CYC:15442
C7AD  F0 F9     BEQ $C7A8                       A:00 X:FF Y:00 P:26 SP:FF PPU:  0,  0 CYC:15444
C7A8  AD 02 20  LDA $2002 = 00                  A:00 X:FF Y:00 P:26 SP:FF PPU:  0,  0 CYC:15447
C7AB  29 80     AND #$80                        A:00 X:FF Y:00 P:26 SP:FF PPU:  0,  0 CYC:15451
C7AD  F0 F9     BEQ $C7A8                       A:00 X:FF Y:00 P:26 SP:FF PPU:  0,  0 CYC:15453
C7A8  AD 02 20  LDA $2002 = 00                  A:00 X:FF Y:00 P:26 SP:FF PPU:  0,  0 CYC:15456
C7AB  29 80     AND #$80                        A:00 X:FF Y:00 P:26 SP:FF PPU:  0,  0 CYC:15460
C7AD  F0 F9     BEQ $C7A8                       A:00 X:FF Y:00 P:26 SP:FF PPU:  0,  0 CYC:15462
C7A8  AD 02 20  LDA $2002 = 00                  A:00 X:FF Y:00 P:26 SP:FF PPU:  0,  0 CYC:15465
C7AB  29 80     AND #$80                        A:00 X:FF Y:00 P:26 SP:FF PPU:  0,  0 CYC:15469
C7AD  F0 F9     BEQ $C7A8                       A:00 X:FF Y:00 P:26 SP:FF PPU:  0,  0 CYC:15471
C7A8  AD 02 20  LDA $2002 = 00                  A:00 X:FF Y:00 P:26 SP:FF PPU:  0,  0 CYC:15474
C7AB  29 80     AND #$80                        A:00 X:FF Y:00 P:26 SP:FF PPU:  0,  0 CYC:15478
C7AD  F0 F9     BEQ $C7A8                       A:00 X:FF Y:00 P:26 SP:FF PPU:  0,  0 CYC:15480
C7A8  AD 02 20  LDA $2002 = 00                  A:00 X:FF Y:00 P:26 SP:FF PPU:  0,  0 CYC:15483
C7AB  29 80     AND #$80                        A:00 X:FF Y:00 P:26 SP:FF PPU:  0,  0 CYC:15487
C7AD  F0 F9     BEQ $C7A8                       A:00 X:FF Y:00 P:26 SP:FF PPU:  0,  0 CYC:15489
C7A8  AD 02 20  LDA $2002 = 00                  A:00 X:FF Y:00 P:26 SP:FF PPU:  0,  0 CYC:15492
C7AB  29 80     AND #$80                        A:00 X:FF Y:00 P:26 SP:FF PPU:  0,  0 CYC:15496
C7AD  F0 F9     BEQ $C7A8                       A:00 X:FF Y:00 P:26 SP:FF PPU:  0,  0 CYC:15498
C7A8  AD 02 20  LDA $2002 = 00                  A:00 X:FF Y:00 P:26 SP:FF PPU:  0,  0 CYC:15501
C7AB  29 80     AND #$80                        A:00 X:FF Y:00 P:26 SP:FF PPU:  0,  0 CYC:15505
C7AD  F0 F9     BEQ $C7A8                       A:00 X:FF Y:00 P:26 SP:FF PPU:  0,  0 CYC:15507
C7A8  AD 02 20  LDA $2002 = 00                  A:00 X:FF Y:00 P:26 SP:FF PPU:  0,  0 CYC:15510
C7AB  29 80     AND #$80                        A:00 X:FF Y:00 P:26 SP:FF PPU:  0,  0 CYC:15514
C7AD  F0 F9     BEQ $C7A8                       A:00 X:FF Y:00 P:26 SP:FF PPU:  0,  0 CYC:15516
C7A8  AD 02 20  LDA $2002 = 00                  A:00 X:FF Y:00 P:26 SP:FF PPU:  0,  0 CYC:15519
C7AB  29 80     AND #$80                        A:00 X:FF Y:00 P:26 SP:FF PPU:  0,  0 CYC:15523
C7AD  F0 F9     BEQ $C7A8                       A:00 X:FF Y:00 P:26 SP:FF PPU:  0,  0 CYC:15525
C7A8  AD 02 20  LDA $2002 = 00                  A:00 X:FF Y:00 P:26 SP:FF PPU:  0,  0 CYC:15528
C7AB  29 80     AND #$80                        A:00 X:FF Y:00 P:26 SP:FF PPU:  0,  0 CYC:15532
C7AD  F0 F9     BEQ $C7A8                       A:00 X:FF Y:00 P:26 SP:FF PPU:  0,  0 CYC:15534
C7A8  AD 02 20  LDA $2002 = 00                  A:00 X:FF Y:00 P:26 SP:FF PPU:  0,  0 CYC:15537
C7AB  29 80     AND #$80                        A:00 X:FF Y:00 P:26 SP:FF PPU:  0,  0 CYC:15541
C7AD  F0 F9     BEQ $C7A8                       A:00 X:FF Y:00 P:26 SP:FF PPU:  0,  0 CYC:15543
C7A8  AD 02 20  LDA $2002 = 00                  A:00 X:FF Y:00 P:26 SP:FF PPU:  0,  0 CYC:15546
C7AB  29 80     AND #$80                        A:00 X:FF Y:00 P:26 SP:FF PPU:  0,  0 CYC:15550
C7AD  F0 F9     BEQ $C7A8                       A:00 X:FF Y:00 P:26 SP:FF PPU:  0,  0 CYC:15552
C7A8  AD 02 20  LDA $2002 = 00                  A:00 X:FF Y:00 P:26 SP:FF PPU:  0,  0 CYC:15555
C7AB  29 80     AND #$80                        A:00 X:FF Y:00 P:26 SP:FF PPU:  0,  0 CYC:15559
C7AD  F0 F9     BEQ $C7A8                       A:00 X:FF Y:00 P:26 SP:FF PPU:  0,  0 CYC:15561
C7A8  AD 02 20  LDA $2002 = 00                  A:00 X:FF Y:00 P:26 SP:FF PPU:  0,  0 CYC:15564
C7AB  29 80     AND #$80                        A:00 X:FF Y:00 P:26 SP:FF PPU:  0,  0 CYC:15568
C7AD  F0 F9     BEQ $C7A8                       A:00 X:FF Y:00 P:26 SP:FF PPU:  0,  0 CYC:15570
C7A8  AD 02 20  LDA $2002 = 00                  A:00 X:FF Y:00 P:26 SP:FF PPU:  0,  0 CYC:15573
C7AB  29 80     AND #$80                        A:00 X:FF Y:00 P:26 SP:FF PPU:  0,  0 CYC:15577
C7AD  F0 F9     BEQ $C7A8                       A:00 X:FF Y:00 P:26 SP:FF PPU:  0,  0 CYC:15579
C7A8  AD 02 20  LDA $2002 = 00                  A:00 X:FF Y:00 P:26 SP:FF PPU:  0,  0 CYC:15582
C7AB  29 80     AND #$80                        A:00 X:FF Y:00 P:26 SP:FF PPU:  0,  0 CYC:15586
C7AD  F0 F9     BEQ $C7A8                       A:00 X:FF Y:00 P:26 SP:FF PPU:  0,  0 CYC:15588
C7A8  AD 02 20  LDA $2002 = 00                  A:00 X:FF Y:00 P:26 SP:FF PPU:  0,  0 CYC:15591
C7AB  29 80     AND #$80                        A:00 X:FF Y:00 P:26 SP:FF PPU:  0,  0 CYC:15595
C7AD  F0 F9     BEQ $C7A8                       A:00 X:FF Y:00 P:26 SP:FF PPU:  0,  0 CYC:15597
C7A8  AD 02 20  LDA $2002 = 00                  A:00 X:FF Y:00 P:26 SP:FF PPU:  0,  0 CYC:15600
C7AB  29 80     AND #$80                        A:00 X:FF Y:00 P:26 SP:FF PPU:  0,  0 CYC:15604
C7AD  F0 F9     BEQ $C7A8                       A:00 X:FF Y:00 P:26 SP:FF PPU:  0,  0 CYC:15606
C7A8  AD 02 20  LDA $2002 = 00                  A:00 X:FF Y:00 P:26 SP:FF PPU:  0,  0 CYC:15609
C7AB  29 80     AND #$80                        A:00 X:FF Y:00 P:26 SP:FF PPU:  0,  0 CYC:15613
C7AD  F0 F9     BEQ $C7A8                       A:00 X:FF Y:00 P:26 SP:FF PPU:  0,  0 CYC:15615
C7A8  AD 02 20  LDA $2002 = 00                  A:00 X:FF Y:00 P:26 SP:FF PPU:  0,  0 CYC:15618
C7AB  29 80     AND #$80                        A:00 X:FF Y:00 P:26 SP:FF PPU:  0,  0 CYC:15622
C7AD  F0 F9     BEQ $C7A8                       A:00 X:FF Y:00 P:26 SP:FF PPU:  0,  0 CYC:15624
C7A8  AD 02 20  LDA $2002 = 00                  A:00 X:FF Y:00 P:26 SP:FF PPU:  0,  0 CYC:15627
C7AB  29 80     AND #$80                        A:00 X:FF Y:00 P:26 SP:FF PPU:  0,  0 CYC:15631
C7AD  F0 F9     BEQ $C7A8                       A:00 X:FF Y:00 P:26 SP:FF PPU:  0,  0 CYC:15633
C7A8  AD 02 20  LDA $2002 = 00                  A:00 X:FF Y:00 P:26 SP:FF PPU:  0,  0 CYC:15636
C7AB  29 80     AND #$80                        A:00 X:FF Y:00 P:26 SP:FF PPU:  0,  0 CYC:15640
C7AD  F0 F9     BEQ $C7A8                       A:00 X:FF Y:00 P:26 SP:FF PPU:  0,  0 CYC:15642
C7A8  AD 02 20  LDA $2002 = 00                  A:00 X:FF Y:00 P:26 SP:FF PPU:  0,  0 CYC:15645
C7AB  29 80     AND #$80                        A:00 X:FF Y:00 P:26 SP:FF PPU:  0,  0 CYC:15649
C7AD  F0 F9     BEQ $C7A8                       A:00 X:FF Y:00 P:26 SP:FF PPU:  0,  0 CYC:15651
C7A8  AD 02 20  LDA $2002 = 00                  A:00 X:FF Y:00 P:26 SP:FF PPU:  0,  0 CYC:15654
C7AB  29 80     AND #$80                        A:00 X:FF Y:00 P:26 SP:FF PPU:  0,  0 CYC:15658
C7AD  F0 F9     BEQ $C7A8                       A:00 X:FF Y:00 P:26 SP:FF PPU:  0,  0 CYC:15660
C7A8  AD 02 20  LDA $2002 = 00                  A:00 X:FF Y:00 P:26 SP:FF PPU:  0,  0 CYC:15663
C7AB  29 80     AND #$80                        A:00 X:FF Y:00 P:26 SP:FF PPU:  0,  0 CYC:15667
C7AD  F0 F9     BEQ $C7A8                       A:00 X:FF Y:00 P:26 SP:FF PPU:  0,  0 CYC:15669
C7A8  AD 02 20  LDA $2002 = 00                  A:00 X:FF Y:00 P:26 SP:FF PPU:  0,  0 CYC:15672
C7AB  29 80     AND #$80                        A:00 X:FF Y:00 P:26 SP:FF PPU:  0,  0 CYC:15676
C7AD  F0 F9     BEQ $C7A8                       A:00 X:FF Y:00 P:26 SP:FF PPU:  0,  0 CYC:15678
C7A8  AD 02 20  LDA $2002 = 00                  A:00 X:FF Y:00 P:26 SP:FF PPU:  0,  0 CYC:15681
C7AB  29 80     AND #$80                        A:00 X:FF Y:00 P:26 SP:FF PPU:  0,  0 CYC:15685
C7AD  F0 F9     BEQ $C7A8                       A:00 X:FF Y:00 P:26 SP:FF PPU:  0,  0 CYC:15687
C7A8  AD 02 20  LDA $2002 = 00                  A:00 X:FF Y:00 P:26 SP:FF PPU:  0,  0 CYC:15690
C7AB  29 80     AND #$80                        A:00 X:FF Y:00 P:26 SP:FF PPU:  0,  0 CYC:15694
C7AD  F0 F9     BEQ $C7A8                       A:00 X:FF Y:00 P:26 SP:FF PPU:  0,  0 CYC:15696
C7A8  AD 02 20  LDA $2002 = 00                  A:00 X:FF Y:00 P:26 SP:FF PPU:  0,  0 CYC:15699
C7AB  29 80     AND #$80                        A:00 X:FF Y:00 P:26 SP:FF PPU:  0,  0 CYC:15703
C7AD  F0 F9     BEQ $C7A8                       A:00 X:FF Y:00 P:26 SP:FF PPU:  0,  0 CYC:15705
C7A8  AD 02 20  LDA $2002 = 00                  A:00 X:FF Y:00 P:26 SP:FF PPU:  0,  0 CYC:15708
C7AB  29 80     AND #$80                        A:00 X:FF Y:00 P:26 SP:FF PPU:  0,  0 CYC:15712
C7AD  F0 F9     BEQ $C7A8                       A:00 X:FF Y:00 P:26 SP:FF PPU:  0,  0 CYC:15714
C7A8  AD 02 20  LDA $2002 = 00                  A:00 X:FF Y:00 P:26 SP:FF PPU:  0,  0 CYC:15717
C7AB  29 80     AND #$80                        A:00 X:FF Y:00 P:26 SP:FF PPU:  0,  0 CYC:15721
C7AD  F0 F9     BEQ $C7A8                       A:00 X:FF Y:00 P:26 SP:FF PPU:  0,  0 CYC:15723
C7A8  AD 02 20  LDA $2002 = 00                  A:00 X:FF Y:00 P:26 SP:FF PPU:  0,  0 CYC:15726
C7AB  29 80     AND #$80                        A:00 X:FF Y:00 P:26 SP:FF PPU:  0,  0 CYC:15730
C7AD  F0 F9     BEQ $C7A8                       A:00 X:FF Y:00 P:26 SP:FF PPU:  0,  0 CYC:15732
C7A8  AD 02 20  LDA $2002 = 00                  A:00 X:FF Y:00 P:26 SP:FF PPU:  0,  0 CYC:15735
C7AB  29 80     AND #$80                        A:00 X:FF Y:00 P:26 SP:FF PPU:  0,  0 CYC:15739
C7AD  F0 F9     BEQ $C7A8                       A:00 X:FF Y:00 P:26 SP:FF PPU:  0,  0 CYC:15741
C7A8  AD 02 20  LDA $2002 = 00                  A:00 X:FF Y:00 P:26 SP:FF PPU:  0,  0 CYC:15744
C7AB  29 80     AND #$80                        A:00 X:FF Y:00 P:26 SP:FF PPU:  0,  0 CYC:15748
C7AD  F0 F9     BEQ $C7A8                       A:00 X:FF Y:00 P:26 SP:FF PPU:  0,  0 CYC:15750
C7A8  AD 02 20  LDA $2002 = 00                  A:00 X:FF Y:00 P:26 SP:FF PPU:  0,  0 CYC:15753
C7AB  29 80     AND #$80                        A:00 X:FF Y:00 P:26 SP:FF PPU:  0,  0 CYC:15757
C7AD  F0 F9     BEQ $C7A8                       A:00 X:FF Y:00 P:26 SP:FF PPU:  0,  0 CYC:15759
C7A8  AD 02 20  LDA $2002 = 00                  A:00 X:FF Y:00 P:26 SP:FF PPU:  0,  0 CYC:15762
C7AB  29 80     AND #$80                        A:00 X:FF Y:00 P:26 SP:FF PPU:  0,  0 CYC:15766
C7AD  F0 F9     BEQ $C7A8                       A:00 X:FF Y:00 P:26 SP:FF PPU:  0,  0 CYC:15768
C7A8  AD 02 20  LDA $2002 = 00                  A:00 X:FF Y:00 P:26 SP:FF PPU:  0,  0 CYC:15771
C7AB  29 80     AND #$80                        A:00 X:FF Y:00 P:26 SP:FF PPU:  0,  0 CYC:15775
C7AD  F0 F9     BEQ $C7A8                       A:00 X:FF Y:00 P:26 SP:FF PPU:  0,  0 CYC:15777
C7A8  AD 02 20  LDA $2002 = 00                  A:00 X:FF Y:00 P:26 SP:FF PPU:  0,  0 CYC:15780
C7AB  29 80     AND #$80                        A:00 X:FF Y:00 P:26 SP:FF PPU:  0,  0 CYC:15784
C7AD  F0 F9     BEQ $C7A8                       A:00 X:FF Y:00 P:26 SP:FF PPU:  0,  0 CYC:15786
C7A8  AD 02 20  LDA $2002 = 00                  A:00 X:FF Y:00 P:26 SP:FF PPU:  0,  0 CYC:15789
C7AB  29 80     AND #$80                        A:00 X:FF Y:00 P:26 SP:FF PPU:  0,  0 CYC:15793
C7AD  F0 F9     BEQ $C7A8                       A:00 X:FF Y:00 P:26 SP:FF PPU:  0,  0 CYC:15795
C7A8  AD 02 20  LDA $2002 = 00                  A:00 X:FF Y:00 P:26 SP:FF PPU:  0,  0 CYC:15798
C7AB  29 80     AND #$80                        A:00 X:FF Y:00 P:26 SP:FF PPU:  0,  0 CYC:15802
C7AD  F0 F9     BEQ $C7A8                       A:00 X:FF Y:00 P:26 SP:FF PPU:  0,  0 CYC:15804
C7A8  AD 02 20  LDA $2002 = 00                  A:00 X:FF Y:00 P:26 SP:FF PPU:  0,  0 CYC:15807
C7AB  29 80     AND #$80                        A:00 X:FF Y:00 P:26 SP:FF PPU:  0,  0 CYC:15811
C7AD  F0 F9     BEQ $C7A8                       A:00 X:FF Y:00 P:26 SP:FF PPU:  0,  0 CYC:15813
C7A8  AD 02 20  LDA $2002 = 00                  A:00 X:FF Y:00 P:26 SP:FF PPU:  0,  0 CYC:15816
C7AB  29 80     AND #$80                        A:00 X:FF Y:00 P:26 SP:FF PPU:  0,  0 CYC:15820
C7AD  F0 F9     BEQ $C7A8                       A:00 X:FF Y:00 P:26 SP:FF PPU:  0,  0 CYC:15822
C7A8  AD 02 20  LDA $2002 = 00                  A:00 X:FF Y:00 P:26 SP:FF PPU:  0,  0 CYC:15825
C7AB  29 80     AND #$80                        A:00 X:FF Y:00 P:26 SP:FF PPU:  0,  0 CYC:15829
C7AD  F0 F9     BEQ $C7A8                       A:00 X:FF Y:00 P:26 SP:FF PPU:  0,  0 CYC:15831
C7A8  AD 02 20  LDA $2002 = 00                  A:00 X:FF Y:00 P:26 SP:FF PPU:  0,  0 CYC:15834
C7AB  29 80     AND #$80                        A:00 X:FF Y:00 P:26 SP:FF PPU:  0,  0 CYC:15838
C7AD  F0 F9     BEQ $C7A8                       A:00 X:FF Y:00 P:26 SP:FF PPU:  0,  0 CYC:15840
C7A8  AD 02 20  LDA $2002 = 00                  A:00 X:FF Y:00 P:26 SP:FF PPU:  0,  0 CYC:15843
C7AB  29 80     AND #$80                        A:00 X:FF Y:00 P:26 SP:FF PPU:  0,  0 CYC:15847
C7AD  F0 F9     BEQ $C7A8                       A:00 X:FF Y:00 P:26 SP:FF PPU:  0,  0 CYC:15849
C7A8  AD 02 20  LDA $2002 = 00                  A:00 X:FF Y:00 P:26 SP:FF PPU:  0,  0 CYC:15852
C7AB  29 80     AND #$80                        A:00 X:FF Y:00 P:26 SP:FF PPU:  0,  0 CYC:15856
C7AD  F0 F9     BEQ $C7A8                       A:00 X:FF Y:00 P:26 SP:FF PPU:  0,  0 CYC:15858
C7A8  AD 02 20  LDA $2002 = 00                  A:00 X:FF Y:00 P:26 SP:FF PPU:  0,  0 CYC:15861
C7AB  29 80     AND #$80                        A:00 X:FF Y:00 P:26 SP:FF PPU:  0,  0 CYC:15865
C7AD  F0 F9     BEQ $C7A8                       A:00 X:FF Y:00 P:26 SP:FF PPU:  0,  0 CYC:15867
C7A8  AD 02 20  LDA $2002 = 00                  A:00 X:FF Y:00 P:26 SP:FF PPU:  0,  0 CYC:15870
C7AB  29 80     AND #$80                        A:00 X:FF Y:00 P:26 SP:FF PPU:  0,  0 CYC:15874
C7AD  F0 F9     BEQ $C7A8                       A:00 X:FF Y:00 P:26 SP:FF PPU:  0,  0 CYC:15876
C7A8  AD 02 20  LDA $2002 = 00                  A:00 X:FF Y:00 P:26 SP:FF PPU:  0,  0 CYC:15879
C7AB  29 80     AND #$80                        A:00 X:FF Y:00 P:26 SP:FF PPU:  0,  0 CYC:15883
C7AD  F0 F9     BEQ $C7A8                       A:00 X:FF Y:00 P:26 SP:FF PPU:  0,  0 CYC:15885
C7A8  AD 02 20  LDA $2002 = 00                  A:00 X:FF Y:00 P:26 SP:FF PPU:  0,  0 CYC:15888
C7AB  29 80     AND #$80                        A:00 X:FF Y:00 P:26 SP:FF PPU:  0,  0 CYC:15892
C7AD  F0 F9     BEQ $C7A8                       A:00 X:FF Y:00 P:26 SP:FF PPU:  0,  0 CYC:15894
C7A8  AD 02 20  LDA $2002 = 00                  A:00 X:FF Y:00 P:26 SP:FF PPU:  0,  0 CYC:15897
C7AB  29 80     AND #$80                        A:00 X:FF Y:00 P:26 SP:FF PPU:  0,  0 CYC:15901
C7AD  F0 F9     BEQ $C7A8                       A:00 X:FF Y:00 P:26 SP:FF PPU:  0,  0 CYC:15903
C7A8  AD 02 20  LDA $2002 = 00                  A:00 X:FF Y:00 P:26 SP:FF PPU:  0,  0 CYC:15906
C7AB  29 80     AND #$80                        A:00 X:FF Y:00 P:26 SP:FF PPU:  0,  0 CYC:15910
C7AD  F0 F9     BEQ $C7A8                       A:00 X:FF Y:00 P:26 SP:FF PPU:  0,  0 CYC:15912
C7A8  AD 02 20  LDA $2002 = 00                  A:00 X:FF Y:00 P:26 SP:FF PPU:  0,  0 CYC:15915
C7AB  29 80     AND #$80                        A:00 X:FF Y:00 P:26 SP:FF PPU:  0,  0 CYC:15919
C7AD  F0 F9     BEQ $C7A8                       A:00 X:FF Y:00 P:26 SP:FF PPU:  0,  0 CYC:15921
C7A8  AD 02 20  LDA $2002 = 00                  A:00 X:FF Y:00 P:26 SP:FF PPU:  0,  0 CYC:15924
C7AB  29 80     AND #$80                        A:00 X:FF Y:00 P:26 SP:FF PPU:  0,  0 CYC:15928
C7AD  F0 F9     BEQ $C7A8                       A:00 X:FF Y:00 P:26 SP:FF PPU:  0,  0 CYC:15930
C7A8  AD 02 20  LDA $2002 = 00                  A:00 X:FF Y:00 P:26 SP:FF PPU:  0,  0 CYC:15933
C7AB  29 80     AND #$80                        A:00 X:FF Y:00 P:26 SP:FF PPU:  0,  0 CYC:15937
C7AD  F0 F9     BEQ $C7A8                       A:00 X:FF Y:00 P:26 SP:FF PPU:  0,  0 CYC:15939
C7A8  AD 02 20  LDA $2002 = 00                  A:00 X:FF Y:00 P:26 SP:FF PPU:  0,  0 CYC:15942
C7AB  29 80     AND #$80                        A:00 X:FF Y:00 P:26 SP:FF PPU:  0,  0 CYC:15946
C7AD  F0 F9     BEQ $C7A8                       A:00 X:FF Y:00 P:26 SP:FF PPU:  0,  0 CYC:15948
C7A8  AD 02 20  LDA $2002 = 00                  A:00 X:FF Y:00 P:26 SP:FF PPU:  0,  0 CYC:15951
C7AB  29 80     AND #$80                        A:00 X:FF Y:00 P:26 SP:FF PPU:  0,  0 CYC:15955
C7AD  F0 F9     BEQ $C7A8                       A:00 X:FF Y:00 P:26 SP:FF PPU:  0,  0 CYC:15957
C7A8  AD 02 20  LDA $2002 = 00                  A:00 X:FF Y:00 P:26 SP:FF PPU:  0,  0 CYC:15960
C7AB  29 80     AND #$80                        A:00 X:FF Y:00 P:26 SP:FF PPU:  0,  0 CYC:15964
C7AD  F0 F9     BEQ $C7A8                       A:00 X:FF Y:00 P:26 SP:FF PPU:  0,  0 CYC:15966
C7A8  AD 02 20  LDA $2002 = 00                  A:00 X:FF Y:00 P:26 SP:FF PPU:  0,  0 CYC:15969
C7AB  29 80     AND #$80                        A:00 X:FF Y:00 P:26 SP:FF PPU:  0,  0 CYC:15973
C7AD  F0 F9     BEQ $C7A8                       A:00 X:FF Y:00 P:26 SP:FF PPU:  0,  0 CYC:15975
C7A8  AD 02 20  LDA $2002 = 00                  A:00 X:FF Y:00 P:26 SP:FF PPU:  0,  0 CYC:15978
C7AB  29 80     AND #$80                        A:00 X:FF Y:00 P:26 SP:FF PPU:  0,  0 CYC:15982
C7AD  F0 F9     BEQ $C7A8                       A:00 X:FF Y:00 P:26 SP:FF PPU:  0,  0 CYC:15984
C7A8  AD 02 20  LDA $2002 = 00                  A:00 X:FF Y:00 P:26 SP:FF PPU:  0,  0 CYC:15987
C7AB  29 80     AND #$80                        A:00 X:FF Y:00 P:26 SP:FF PPU:  0,  0 CYC:15991
C7AD  F0 F9     BEQ $C7A8                       A:00 X:FF Y:00 P:26 SP:FF PPU:  0,  0 CYC:15993
C7A8  AD 02 20  LDA $2002 = 00                  A:00 X:FF Y:00 P:26 SP:FF PPU:  0,  0 CYC:15996
C7AB  29 80     AND #$80                        A:00 X:FF Y:00 P:26 SP:FF PPU:  0,  0 CYC:16000
C7AD  F0 F9     BEQ $C7A8                       A:00 X:FF Y:00 P:26 SP:FF PPU:  0,  0 CYC:16002
C7A8  AD 02 20  LDA $2002 = 00                  A:00 X:FF Y:00 P:26 SP:FF PPU:  0,  0 CYC:16005
C7AB  29 80     AND #$80                        A:00 X:FF Y:00 P:26 SP:FF PPU:  0,  0 CYC:16009
C7AD  F0 F9     BEQ $C7A8                       A:00 X:FF Y:00 P:26 SP:FF PPU:  0,  0 CYC:16011
C7A8  AD 02 20  LDA $2002 = 00                  A:00 X:FF Y:00 P:26 SP:FF PPU:  0,  0 CYC:16014
C7AB  29 80     AND #$80                        A:00 X:FF Y:00 P:26 SP:FF PPU:  0,  0 CYC:16018
C7AD  F0 F9     BEQ $C7A8                       A:00 X:FF Y:00 P:26 SP:FF PPU:  0,  0 CYC:16020
C7A8  AD 02 20  LDA $2002 = 00                  A:00 X:FF Y:00 P:26 SP:FF PPU:  0,  0 CYC:16023
C7AB  29 80     AND #$80                        A:00 X:FF Y:00 P:26 SP:FF PPU:  0,  0 CYC:16027
C7AD  F0 F9     BEQ $C7A8                       A:00 X:FF Y:00 P:26 SP:FF PPU:  0,  0 CYC:16029
C7A8  AD 02 20  LDA $2002 = 00                  A:00 X:FF Y:00 P:26 SP:FF PPU:  0,  0 CYC:16032
C7AB  29 80     AND #$80                        A:00 X:FF Y:00 P:26 SP:FF PPU:  0,  0 CYC:16036
C7AD  F0 F9     BEQ $C7A8                       A:00 X:FF Y:00 P:26 SP:FF PPU:  0,  0 CYC:16038
C7A8  AD 02 20  LDA $2002 = 00                  A:00 X:FF Y:00 P:26 SP:FF PPU:  0,  0 CYC:16041
C7AB  29 80     AND #$80                        A:00 X:FF Y:00 P:26 SP:FF PPU:  0,  0 CYC:16045
C7AD  F0 F9     BEQ $C7A8                       A:00 X:FF Y:00 P:26 SP:FF PPU:  0,  0 CYC:16047
C7A8  AD 02 20  LDA $2002 = 00                  A:00 X:FF Y:00 P:26 SP:FF PPU:  0,  0 CYC:16050
C7AB  29 80     AND #$80                        A:00 X:FF Y:00 P:26 SP:FF PPU:  0,  0 CYC:16054
C7AD  F0 F9     BEQ $C7A8                       A:00 X:FF Y:00 P:26 SP:FF PPU:  0,  0 CYC:16056
C7A8  AD 02 20  LDA $2002 = 00                  A:00 X:FF Y:00 P:26 SP:FF PPU:  0,  0 CYC:16059
C7AB  29 80     AND #$80                        A:00 X:FF Y:00 P:26 SP:FF PPU:  0,  0 CYC:16063
C7AD  F0 F9     BEQ $C7A8                       A:00 X:FF Y:00 P:26 SP:FF PPU:  0,  0 CYC:16065
C7A8  AD 02 20  LDA $2002 = 00                  A:00 X:FF Y:00 P:26 SP:FF PPU:  0,  0 CYC:16068
C7AB  29 80     AND #$80                        A:00 X:FF Y:00 P:26 SP:FF PPU:  0,  0 CYC:16072
C7AD  F0 F9     BEQ $C7A8                       A:00 X:FF Y:00 P:26 SP:FF PPU:  0,  0 CYC:16074
C7A8  AD 02 20  LDA $2002 = 00                  A:00 X:FF Y:00 P:26 SP:FF PPU:  0,  0 CYC:16077
C7AB  29 80     AND #$80                        A:00 X:FF Y:00 P:26 SP:FF PPU:  0,  0 CYC:16081
C7AD  F0 F9     BEQ $C7A8                       A:00 X:FF Y:00 P:26 SP:FF PPU:  0,  0 CYC:16083
C7A8  AD 02 20  LDA $2002 = 00                  A:00 X:FF Y:00 P:26 SP:FF PPU:  0,  0 CYC:16086
C7AB  29 80     AND #$80                        A:00 X:FF Y:00 P:26 SP:FF PPU:  0,  0 CYC:16090
C7AD  F0 F9     BEQ $C7A8                       A:00 X:FF Y:00 P:26 SP:FF PPU:  0,  0 CYC:16092
C7A8  AD 02 20  LDA $2002 = 00                  A:00 X:FF Y:00 P:26 SP:FF PPU:  0,  0 CYC:16095
C7AB  29 80     AND #$80                        A:00 X:FF Y:00 P:26 SP:FF PPU:  0,  0 CYC:16099
C7AD  F0 F9     BEQ $C7A8                       A:00 X:FF Y:00 P:26 SP:FF PPU:  0,  0 CYC:16101
C7A8  AD 02 20  LDA $2002 = 00                  A:00 X:FF Y:00 P:26 SP:FF PPU:  0,  0 CYC:16104
C7AB  29 80     AND #$80                        A:00 X:FF Y:00 P:26 SP:FF PPU:  0,  0 CYC:16108
C7AD  F0 F9     BEQ $C7A8                       A:00 X:FF Y:00 P:26 SP:FF PPU:  0,  0 CYC:16110
C7A8  AD 02 20  LDA $2002 = 00                  A:00 X:FF Y:00 P:26 SP:FF PPU:  0,  0 CYC:16113
C7AB  29 80     AND #$80                        A:00 X:FF Y:00 P:26 SP:FF PPU:  0,  0 CYC:16117
C7AD  F0 F9     BEQ $C7A8                       A:00 X:FF Y:00 P:26 SP:FF PPU:  0,  0 CYC:16119
C7A8  AD 02 20  LDA $2002 = 00                  A:00 X:FF Y:00 P:26 SP:FF PPU:  0,  0 CYC:16122
C7AB  29 80     AND #$80                        A:00 X:FF Y:00 P:26 SP:FF PPU:  0,  0 CYC:16126
C7AD  F0 F9     BEQ $C7A8                       A:00 X:FF Y:00 P:26 SP:FF PPU:  0,  0 CYC:16128
C7A8  AD 02 20  LDA $2002 = 00                  A:00 X:FF Y:00 P:26 SP:FF PPU:  0,  0 CYC:16131
C7AB  29 80     AND #$80                        A:00 X:FF Y:00 P:26 SP:FF PPU:  0,  0 CYC:16135
C7AD  F0 F9     BEQ $C7A8                       A:00 X:FF Y:00 P:26 SP:FF PPU:  0,  0 CYC:16137
C7A8  AD 02 20  LDA $2002 = 00                  A:00 X:FF Y:00 P:26 SP:FF PPU:  0,  0 CYC:16140
C7AB  29 80     AND #$80                        A:00 X:FF Y:00 P:26 SP:FF PPU:  0,  0 CYC:16144
C7AD  F0 F9     BEQ $C7A8                       A:00 X:FF Y:00 P:26 SP:FF PPU:  0,  0 CYC:16146
C7A8  AD 02 20  LDA $2002 = 00                  A:00 X:FF Y:00 P:26 SP:FF PPU:  0,  0 CYC:16149
C7AB  29 80     AND #$80                        A:00 X:FF Y:00 P:26 SP:FF PPU:  0,  0 CYC:16153
C7AD  F0 F9     BEQ $C7A8                       A:00 X:FF Y:00 P:26 SP:FF PPU:  0,  0 CYC:16155
C7A8  AD 02 20  LDA $2002 = 00                  A:00 X:FF Y:00 P:26 SP:FF PPU:  0,  0 CYC:16158
C7AB  29 80     AND #$80                        A:00 X:FF Y:00 P:26 SP:FF PPU:  0,  0 CYC:16162
C7AD  F0 F9     BEQ $C7A8                       A:00 X:FF Y:00 P:26 SP:FF PPU:  0,  0 CYC:16164
C7A8  AD 02 20  LDA $2002 = 00                  A:00 X:FF Y:00 P:26 SP:FF PPU:  0,  0 CYC:16167
C7AB  29 80     AND #$80                        A:00 X:FF Y:00 P:26 SP:FF PPU:  0,  0 CYC:16171
C7AD  F0 F9     BEQ $C7A8                       A:00 X:FF Y:00 P:26 SP:FF PPU:  0,  0 CYC:16173
C7A8  AD 02 20  LDA $2002 = 00                  A:00 X:FF Y:00 P:26 SP:FF PPU:  0,  0 CYC:16176
C7AB  29 80     AND #$80                        A:00 X:FF Y:00 P:26 SP:FF PPU:  0,  0 CYC:16180
C7AD  F0 F9     BEQ $C7A8                       A:00 X:FF Y:00 P:26 SP:FF PPU:  0,  0 CYC:16182
C7A8  AD 02 20  LDA $2002 = 00                  A:00 X:FF Y:00 P:26 SP:FF PPU:  0,  0 CYC:16185
C7AB  29 80     AND #$80                        A:00 X:FF Y:00 P:26 SP:FF PPU:  0,  0 CYC:16189
C7AD  F0 F9     BEQ $C7A8                       A:00 X:FF Y:00 P:26 SP:FF PPU:  0,  0 CYC:16191
C7A8  AD 02 20  LDA $2002 = 00                  A:00 X:FF Y:00 P:26 SP:FF PPU:  0,  0 CYC:16194
C7AB  29 80     AND #$80                        A:00 X:FF Y:00 P:26 SP:FF PPU:  0,  0 CYC:16198
C7AD  F0 F9     BEQ $C7A8                       A:00 X:FF Y:00 P:26 SP:FF PPU:  0,  0 CYC:16200
C7A8  AD 02 20  LDA $2002 = 00                  A:00 X:FF Y:00 P:26 SP:FF PPU:  0,  0 CYC:16203
C7AB  29 80     AND #$80                        A:00 X:FF Y:00 P:26 SP:FF PPU:  0,  0 CYC:16207
C7AD  F0 F9     BEQ $C7A8                       A:00 X:FF Y:00 P:26 SP:FF PPU:  0,  0 CYC:16209
C7A8  AD 02 20  LDA $2002 = 00                  A:00 X:FF Y:00 P:26 SP:FF PPU:  0,  0 CYC:16212
C7AB  29 80     AND #$80                        A:00 X:FF Y:00 P:26 SP:FF PPU:  0,  0 CYC:16216
C7AD  F0 F9     BEQ $C7A8                       A:00 X:FF Y:00 P:26 SP:FF PPU:  0,  0 CYC:16218
C7A8  AD 02 20  LDA $2002 = 00                  A:00 X:FF Y:00 P:26 SP:FF PPU:  0,  0 CYC:16221
C7AB  29 80     AND #$80                        A:00 X:FF Y:00 P:26 SP:FF PPU:  0,  0 CYC:16225
C7AD  F0 F9     BEQ $C7A8                       A:00 X:FF Y:00 P:26 SP:FF PPU:  0,  0 CYC:16227
C7A8  AD 02 20  LDA $2002 = 00                  A:00 X:FF Y:00 P:26 SP:FF PPU:  0,  0 CYC:16230
C7AB  29 80     AND #$80                        A:00 X:FF Y:00 P:26 SP:FF PPU:  0,  0 CYC:16234
C7AD  F0 F9     BEQ $C7A8                       A:00 X:FF Y:00 P:26 SP:FF PPU:  0,  0 CYC:16236
C7A8  AD 02 20  LDA $2002 = 00                  A:00 X:FF Y:00 P:26 SP:FF PPU:  0,  0 CYC:16239
C7AB  29 80     AND #$80                        A:00 X:FF Y:00 P:26 SP:FF PPU:  0,  0 CYC:16243
C7AD  F0 F9     BEQ $C7A8                       A:00 X:FF Y:00 P:26 SP:FF PPU:  0,  0 CYC:16245
C7A8  AD 02 20  LDA $2002 = 00                  A:00 X:FF Y:00 P:26 SP:FF PPU:  0,  0 CYC:16248
C7AB  29 80     AND #$80                        A:00 X:FF Y:00 P:26 SP:FF PPU:  0,  0 CYC:16252
C7AD  F0 F9     BEQ $C7A8                       A:00 X:FF Y:00 P:26 SP:FF PPU:  0,  0 CYC:16254
C7A8  AD 02 20  LDA $2002 = 00                  A:00 X:FF Y:00 P:26 SP:FF PPU:  0,  0 CYC:16257
C7AB  29 80     AND #$80                        A:00 X:FF Y:00 P:26 SP:FF PPU:  0,  0 CYC:16261
C7AD  F0 F9     BEQ $C7A8                       A:00 X:FF Y:00 P:26 SP:FF PPU:  0,  0 CYC:16263
C7A8  AD 02 20  LDA $2002 = 00                  A:00 X:FF Y:00 P:26 SP:FF PPU:  0,  0 CYC:16266
C7AB  29 80     AND #$80                        A:00 X:FF Y:00 P:26 SP:FF PPU:  0,  0 CYC:16270
C7AD  F0 F9     BEQ $C7A8                       A:00 X:FF Y:00 P:26 SP:FF PPU:  0,  0 CYC:16272
C7A8  AD 02 20  LDA $2002 = 00                  A:00 X:FF Y:00 P:26 SP:FF PPU:  0,  0 CYC:16275
C7AB  29 80     AND #$80                        A:00 X:FF Y:00 P:26 SP:FF PPU:  0,  0 CYC:16279
C7AD  F0 F9     BEQ $C7A8                       A:00 X:FF Y:00 P:26 SP:FF PPU:  0,  0 CYC:16281
C7A8  AD 02 20  LDA $2002 = 00                  A:00 X:FF Y:00 P:26 SP:FF PPU:  0,  0 CYC:16284
C7AB  29 80     AND #$80                        A:00 X:FF Y:00 P:26 SP:FF PPU:  0,  0 CYC:16288
C7AD  F0 F9     BEQ $C7A8                       A:00 X:FF Y:00 P:26 SP:FF PPU:  0,  0 CYC:16290
C7A8  AD 02 20  LDA $2002 = 00                  A:00 X:FF Y:00 P:26 SP:FF PPU:  0,  0 CYC:16293
C7AB  29 80     AND #$80                        A:00 X:FF Y:00 P:26 SP:FF PPU:  0,  0 CYC:16297
C7AD  F0 F9     BEQ $C7A8                       A:00 X:FF Y:00 P:26 SP:FF PPU:  0,  0 CYC:16299
C7A8  AD 02 20  LDA $2002 = 00                  A:00 X:FF Y:00 P:26 SP:FF PPU:  0,  0 CYC:16302
C7AB  29 80     AND #$80                        A:00 X:FF Y:00 P:26 SP:FF PPU:  0,  0 CYC:16306
C7AD  F0 F9     BEQ $C7A8                       A:00 X:FF Y:00 P:26 SP:FF PPU:  0,  0 CYC:16308
C7A8  AD 02 20  LDA $2002 = 00                  A:00 X:FF Y:00 P:26 SP:FF PPU:  0,  0 CYC:16311
C7AB  29 80     AND #$80                        A:00 X:FF Y:00 P:26 SP:FF PPU:  0,  0 CYC:16315
C7AD  F0 F9     BEQ $C7A8                       A:00 X:FF Y:00 P:26 SP:FF PPU:  0,  0 CYC:16317
C7A8  AD 02 20  LDA $2002 = 00                  A:00 X:FF Y:00 P:26 SP:FF PPU:  0,  0 CYC:16320
C7AB  29 80     AND #$80                        A:00 X:FF Y:00 P:26 SP:FF PPU:  0,  0 CYC:16324
C7AD  F0 F9     BEQ $C7A8                       A:00 X:FF Y:00 P:26 SP:FF PPU:  0,  0 CYC:16326
C7A8  AD 02 20  LDA $2002 = 00                  A:00 X:FF Y:00 P:26 SP:FF PPU:  0,  0 CYC:16329
C7AB  29 80     AND #$80                        A:00 X:FF Y:00 P:26 SP:FF PPU:  0,  0 CYC:16333
C7AD  F0 F9     BEQ $C7A8                       A:00 X:FF Y:00 P:26 SP:FF PPU:  0,  0 CYC:16335
C7A8  AD 02 20  LDA $2002 = 00                  A:00 X:FF Y:00 P:26 SP:FF PPU:  0,  0 CYC:16338
C7AB  29 80     AND #$80                        A:00 X:FF Y:00 P:26 SP:FF PPU:  0,  0 CYC:16342
C7AD  F0 F9     BEQ $C7A8                       A:00 X:FF Y:00 P:26 SP:FF PPU:  0,  0 CYC:16344
C7A8  AD 02 20  LDA $2002 = 00                  A:00 X:FF Y:00 P:26 SP:FF PPU:  0,  0 CYC:16347
C7AB  29 80     AND #$80                        A:00 X:FF Y:00 P:26 SP:FF PPU:  0,  0 CYC:16351
C7AD  F0 F9     BEQ $C7A8                       A:00 X:FF Y:00 P:26 SP:FF PPU:  0,  0 CYC:16353
C7A8  AD 02 20  LDA $2002 = 00                  A:00 X:FF Y:00 P:26 SP:FF PPU:  0,  0 CYC:16356
C7AB  29 80     AND #$80                        A:00 X:FF Y:00 P:26 SP:FF PPU:  0,  0 CYC:16360
C7AD  F0 F9     BEQ $C7A8                       A:00 X:FF Y:00 P:26 SP:FF PPU:  0,  0 CYC:16362
C7A8  AD 02 20  LDA $2002 = 00                  A:00 X:FF Y:00 P:26 SP:FF PPU:  0,  0 CYC:16365
C7AB  29 80     AND #$80                        A:00 X:FF Y:00 P:26 SP:FF PPU:  0,  0 CYC:16369
C7AD  F0 F9     BEQ $C7A8                       A:00 X:FF Y:00 P:26 SP:FF PPU:  0,  0 CYC:16371
C7A8  AD 02 20  LDA $2002 = 00                  A:00 X:FF Y:00 P:26 SP:FF PPU:  0,  0 CYC:16374
C7AB  29 80     AND #$80                        A:00 X:FF Y:00 P:26 SP:FF PPU:  0,  0 CYC:16378
C7AD  F0 F9     BEQ $C7A8                       A:00 X:FF Y:00 P:26 SP:FF PPU:  0,  0 CYC:16380
C7A8  AD 02 20  LDA $2002 = 00                  A:00 X:FF Y:00 P:26 SP:FF PPU:  0,  0 CYC:16383
C7AB  29 80     AND #$80                        A:00 X:FF Y:00 P:26 SP:FF PPU:  0,  0 CYC:16387
C7AD  F0 F9     BEQ $C7A8                       A:00 X:FF Y:00 P:26 SP:FF PPU:  0,  0 CYC:16389
C7A8  AD 02 20  LDA $2002 = 00                  A:00 X:FF Y:00 P:26 SP:FF PPU:  0,  0 CYC:16392
C7AB  29 80     AND #$80                        A:00 X:FF Y:00 P:26 SP:FF PPU:  0,  0 CYC:16396
C7AD  F0 F9     BEQ $C7A8                       A:00 X:FF Y:00 P:26 SP:FF PPU:  0,  0 CYC:16398
C7A8  AD 02 20  LDA $2002 = 00                  A:00 X:FF Y:00 P:26 SP:FF PPU:  0,  0 CYC:16401
C7AB  29 80     AND #$80                        A:00 X:FF Y:00 P:26 SP:FF PPU:  0,  0 CYC:16405
C7AD  F0 F9     BEQ $C7A8                       A:00 X:FF Y:00 P:26 SP:FF PPU:  0,  0 CYC:16407
C7A8  AD 02 20  LDA $2002 = 00                  A:00 X:FF Y:00 P:26 SP:FF PPU:  0,  0 CYC:16410
C7AB  29 80     AND #$80                        A:00 X:FF Y:00 P:26 SP:FF PPU:  0,  0 CYC:16414
C7AD  F0 F9     BEQ $C7A8                       A:00 X:FF Y:00 P:26 SP:FF PPU:  0,  0 CYC:16416
C7A8  AD 02 20  LDA $2002 = 00                  A:00 X:FF Y:00 P:26 SP:FF PPU:  0,  0 CYC:16419
C7AB  29 80     AND #$80                        A:00 X:FF Y:00 P:26 SP:FF PPU:  0,  0 CYC:16423
C7AD  F0 F9     BEQ $C7A8                       A:00 X:FF Y:00 P:26 SP:FF PPU:  0,  0 CYC:16425
C7A8  AD 02 20  LDA $2002 = 00                  A:00 X:FF Y:00 P:26 SP:FF PPU:  0,  0 CYC:16428
C7AB  29 80     AND #$80                        A:00 X:FF Y:00 P:26 SP:FF PPU:  0,  0 CYC:16432
C7AD  F0 F9     BEQ $C7A8                       A:00 X:FF Y:00 P:26 SP:FF PPU:  0,  0 CYC:16434
C7A8  AD 02 20  LDA $2002 = 00                  A:00 X:FF Y:00 P:26 SP:FF PPU:  0,  0 CYC:16437
C7AB  29 80     AND #$80                        A:00 X:FF Y:00 P:26 SP:FF PPU:  0,  0 CYC:16441
C7AD  F0 F9     BEQ $C7A8                       A:00 X:FF Y:00 P:26 SP:FF PPU:  0,  0 CYC:16443
C7A8  AD 02 20  LDA $2002 = 00                  A:00 X:FF Y:00 P:26 SP:FF PPU:  0,  0 CYC:16446
C7AB  29 80     AND #$80                        A:00 X:FF Y:00 P:26 SP:FF PPU:  0,  0 CYC:16450
C7AD  F0 F9     BEQ $C7A8                       A:00 X:FF Y:00 P:26 SP:FF PPU:  0,  0 CYC:16452
C7A8  AD 02 20  LDA $2002 = 00                  A:00 X:FF Y:00 P:26 SP:FF PPU:  0,  0 CYC:16455
C7AB  29 80     AND #$80                        A:00 X:FF Y:00 P:26 SP:FF PPU:  0,  0 CYC:16459
C7AD  F0 F9     BEQ $C7A8                       A:00 X:FF Y:00 P:26 SP:FF PPU:  0,  0 CYC:16461
C7A8  AD 02 20  LDA $2002 = 00                  A:00 X:FF Y:00 P:26 SP:FF PPU:  0,  0 CYC:16464
C7AB  29 80     AND #$80                        A:00 X:FF Y:00 P:26 SP:FF PPU:  0,  0 CYC:16468
C7AD  F0 F9     BEQ $C7A8                       A:00 X:FF Y:00 P:26 SP:FF PPU:  0,  0 CYC:16470
C7A8  AD 02 20  LDA $2002 = 00                  A:00 X:FF Y:00 P:26 SP:FF PPU:  0,  0 CYC:16473
C7AB  29 80     AND #$80                        A:00 X:FF Y:00 P:26 SP:FF PPU:  0,  0 CYC:16477
C7AD  F0 F9     BEQ $C7A8                       A:00 X:FF Y:00 P:26 SP:FF PPU:  0,  0 CYC:16479
C7A8  AD 02 20  LDA $2002 = 00                  A:00 X:FF Y:00 P:26 SP:FF PPU:  0,  0 CYC:16482
C7AB  29 80     AND #$80                        A:00 X:FF Y:00 P:26 SP:FF PPU:  0,  0 CYC:16486
C7AD  F0 F9     BEQ $C7A8                       A:00 X:FF Y:00 P:26 SP:FF PPU:  0,  0 CYC:16488
C7A8  AD 02 20  LDA $2002 = 00                  A:00 X:FF Y:00 P:26 SP:FF PPU:  0,  0 CYC:16491
C7AB  29 80     AND #$80                        A:00 X:FF Y:00 P:26 SP:FF PPU:  0,  0 CYC:16495
C7AD  F0 F9     BEQ $C7A8                       A:00 X:FF Y:00 P:26 SP:FF PPU:  0,  0 CYC:16497
C7A8  AD 02 20  LDA $2002 = 00                  A:00 X:FF Y:00 P:26 SP:FF PPU:  0,  0 CYC:16500
C7AB  29 80     AND #$80                        A:00 X:FF Y:00 P:26 SP:FF PPU:  0,  0 CYC:16504
C7AD  F0 F9     BEQ $C7A8                       A:00 X:FF Y:00 P:26 SP:FF PPU:  0,  0 CYC:16506
C7A8  AD 02 20  LDA $2002 = 00                  A:00 X:FF Y:00 P:26 SP:FF PPU:  0,  0 CYC:16509
C7AB  29 80     AND #$80                        A:00 X:FF Y:00 P:26 SP:FF PPU:  0,  0 CYC:16513
C7AD  F0 F9     BEQ $C7A8                       A:00 X:FF Y:00 P:26 SP:FF PPU:  0,  0 CYC:16515
C7A8  AD 02 20  LDA $2002 = 00                  A:00 X:FF Y:00 P:26 SP:FF PPU:  0,  0 CYC:16518
C7AB  29 80     AND #$80                        A:00 X:FF Y:00 P:26 SP:FF PPU:  0,  0 CYC:16522
C7AD  F0 F9     BEQ $C7A8                       A:00 X:FF Y:00 P:26 SP:FF PPU:  0,  0 CYC:16524
C7A8  AD 02 20  LDA $2002 = 00                  A:00 X:FF Y:00 P:26 SP:FF PPU:  0,  0 CYC:16527
C7AB  29 80     AND #$80                        A:00 X:FF Y:00 P:26 SP:FF PPU:  0,  0 CYC:16531
C7AD  F0 F9     BEQ $C7A8                       A:00 X:FF Y:00 P:26 SP:FF PPU:  0,  0 CYC:16533
C7A8  AD 02 20  LDA $2002 = 00                  A:00 X:FF Y:00 P:26 SP:FF PPU:  0,  0 CYC:16536
C7AB  29 80     AND #$80                        A:00 X:FF Y:00 P:26 SP:FF PPU:  0,  0 CYC:16540
C7AD  F0 F9     BEQ $C7A8                       A:00 X:FF Y:00 P:26 SP:FF PPU:  0,  0 CYC:16542
C7A8  AD 02 20  LDA $2002 = 00                  A:00 X:FF Y:00 P:26 SP:FF PPU:  0,  0 CYC:16545
C7AB  29 80     AND #$80                        A:00 X:FF Y:00 P:26 SP:FF PPU:  0,  0 CYC:16549
C7AD  F0 F9     BEQ $C7A8                       A:00 X:FF Y:00 P:26 SP:FF PPU:  0,  0 CYC:16551
C7A8  AD 02 20  LDA $2002 = 00                  A:00 X:FF Y:00 P:26 SP:FF PPU:  0,  0 CYC:16554
C7AB  29 80     AND #$80                        A:00 X:FF Y:00 P:26 SP:FF PPU:  0,  0 CYC:16558
C7AD  F0 F9     BEQ $C7A8                       A:00 X:FF Y:00 P:26 SP:FF PPU:  0,  0 CYC:16560
C7A8  AD 02 20  LDA $2002 = 00                  A:00 X:FF Y:00 P:26 SP:FF PPU:  0,  0 CYC:16563
C7AB  29 80     AND #$80                        A:00 X:FF Y:00 P:26 SP:FF PPU:  0,  0 CYC:16567
C7AD  F0 F9     BEQ $C7A8                       A:00 X:FF Y:00 P:26 SP:FF PPU:  0,  0 CYC:16569
C7A8  AD 02 20  LDA $2002 = 00                  A:00 X:FF Y:00 P:26 SP:FF PPU:  0,  0 CYC:16572
C7AB  29 80     AND #$80                        A:00 X:FF Y:00 P:26 SP:FF PPU:  0,  0 CYC:16576
C7AD  F0 F9     BEQ $C7A8                       A:00 X:FF Y:00 P:26 SP:FF PPU:  0,  0 CYC:16578
C7A8  AD 02 20  LDA $2002 = 00                  A:00 X:FF Y:00 P:26 SP:FF PPU:  0,  0 CYC:16581
C7AB  29 80     AND #$80                        A:00 X:FF Y:00 P:26 SP:FF PPU:  0,  0 CYC:16585
C7AD  F0 F9     BEQ $C7A8                       A:00 X:FF Y:00 P:26 SP:FF PPU:  0,  0 CYC:16587
C7A8  AD 02 20  LDA $2002 = 00                  A:00 X:FF Y:00 P:26 SP:FF PPU:  0,  0 CYC:16590
C7AB  29 80     AND #$80                        A:00 X:FF Y:00 P:26 SP:FF PPU:  0,  0 CYC:16594
C7AD  F0 F9     BEQ $C7A8                       A:00 X:FF Y:00 P:26 SP:FF PPU:  0,  0 CYC:16596
C7A8  AD 02 20  LDA $2002 = 00                  A:00 X:FF Y:00 P:26 SP:FF PPU:  0,  0 CYC:16599
C7AB  29 80     AND #$80                        A:00 X:FF Y:00 P:26 SP:FF PPU:  0,  0 CYC:16603
C7AD  F0 F9     BEQ $C7A8                       A:00 X:FF Y:00 P:26 SP:FF PPU:  0,  0 CYC:16605
C7A8  AD 02 20  LDA $2002 = 00                  A:00 X:FF Y:00 P:26 SP:FF PPU:  0,  0 CYC:16608
C7AB  29 80     AND #$80                        A:00 X:FF Y:00 P:26 SP:FF PPU:  0,  0 CYC:16612
C7AD  F0 F9     BEQ $C7A8                       A:00 X:FF Y:00 P:26 SP:FF PPU:  0,  0 CYC:16614
C7A8  AD 02 20  LDA $2002 = 00                  A:00 X:FF Y:00 P:26 SP:FF PPU:  0,  0 CYC:16617
C7AB  29 80     AND #$80                        A:00 X:FF Y:00 P:26 SP:FF PPU:  0,  0 CYC:16621
C7AD  F0 F9     BEQ $C7A8                       A:00 X:FF Y:00 P:26 SP:FF PPU:  0,  0 CYC:16623
C7A8  AD 02 20  LDA $2002 = 00                  A:00 X:FF Y:00 P:26 SP:FF PPU:  0,  0 CYC:16626
C7AB  29 80     AND #$80                        A:00 X:FF Y:00 P:26 SP:FF PPU:  0,  0 CYC:16630
C7AD  F0 F9     BEQ $C7A8                       A:00 X:FF Y:00 P:26 SP:FF PPU:  0,  0 CYC:16632
C7A8  AD 02 20  LDA $2002 = 00                  A:00 X:FF Y:00 P:26 SP:FF PPU:  0,  0 CYC:16635
C7AB  29 80     AND #$80                        A:00 X:FF Y:00 P:26 SP:FF PPU:  0,  0 CYC:16639
C7AD  F0 F9     BEQ $C7A8                       A:00 X:FF Y:00 P:26 SP:FF PPU:  0,  0 CYC:16641
C7A8  AD 02 20  LDA $2002 = 00                  A:00 X:FF Y:00 P:26 SP:FF PPU:  0,  0 CYC:16644
C7AB  29 80     AND #$80                        A:00 X:FF Y:00 P:26 SP:FF PPU:  0,  0 CYC:16648
C7AD  F0 F9     BEQ $C7A8                       A:00 X:FF Y:00 P:26 SP:FF PPU:  0,  0 CYC:16650
C7A8  AD 02 20  LDA $2002 = 00                  A:00 X:FF Y:00 P:26 SP:FF PPU:  0,  0 CYC:16653
C7AB  29 80     AND #$80                        A:00 X:FF Y:00 P:26 SP:FF PPU:  0,  0 CYC:16657
C7AD  F0 F9     BEQ $C7A8                       A:00 X:FF Y:00 P:26 SP:FF PPU:  0,  0 CYC:16659
C7A8  AD 02 20  LDA $2002 = 00                  A:00 X:FF Y:00 P:26 SP:FF PPU:  0,  0 CYC:16662
C7AB  29 80     AND #$80                        A:00 X:FF Y:00 P:26 SP:FF PPU:  0,  0 CYC:16666
C7AD  F0 F9     BEQ $C7A8                       A:00 X:FF Y:00 P:26 SP:FF PPU:  0,  0 CYC:16668
C7A8  AD 02 20  LDA $2002 = 00                  A:00 X:FF Y:00 P:26 SP:FF PPU:  0,  0 CYC:16671
C7AB  29 80     AND #$80                        A:00 X:FF Y:00 P:26 SP:FF PPU:  0,  0 CYC:16675
C7AD  F0 F9     BEQ $C7A8                       A:00 X:FF Y:00 P:26 SP:FF PPU:  0,  0 CYC:16677
C7A8  AD 02 20  LDA $2002 = 00                  A:00 X:FF Y:00 P:26 SP:FF PPU:  0,  0 CYC:16680
C7AB  29 80     AND #$80                        A:00 X:FF Y:00 P:26 SP:FF PPU:  0,  0 CYC:16684
C7AD  F0 F9     BEQ $C7A8                       A:00 X:FF Y:00 P:26 SP:FF PPU:  0,  0 CYC:16686
C7A8  AD 02 20  LDA $2002 = 00                  A:00 X:FF Y:00 P:26 SP:FF PPU:  0,  0 CYC:16689
C7AB  29 80     AND #$80                        A:00 X:FF Y:00 P:26 SP:FF PPU:  0,  0 CYC:16693
C7AD  F0 F9     BEQ $C7A8                       A:00 X:FF Y:00 P:26 SP:FF PPU:  0,  0 CYC:16695
C7A8  AD 02 20  LDA $2002 = 00                  A:00 X:FF Y:00 P:26 SP:FF PPU:  0,  0 CYC:16698
C7AB  29 80     AND #$80                        A:00 X:FF Y:00 P:26 SP:FF PPU:  0,  0 CYC:16702
C7AD  F0 F9     BEQ $C7A8                       A:00 X:FF Y:00 P:26 SP:FF PPU:  0,  0 CYC:16704
C7A8  AD 02 20  LDA $2002 = 00                  A:00 X:FF Y:00 P:26 SP:FF PPU:  0,  0 CYC:16707
C7AB  29 80     AND #$80                        A:00 X:FF Y:00 P:26 SP:FF PPU:  0,  0 CYC:16711
C7AD  F0 F9     BEQ $C7A8                       A:00 X:FF Y:00 P:26 SP:FF PPU:  0,  0 CYC:16713
C7A8  AD 02 20  LDA $2002 = 00                  A:00 X:FF Y:00 P:26 SP:FF PPU:  0,  0 CYC:16716
C7AB  29 80     AND #$80                        A:00 X:FF Y:00 P:26 SP:FF PPU:  0,  0 CYC:16720
C7AD  F0 F9     BEQ $C7A8                       A:00 X:FF Y:00 P:26 SP:FF PPU:  0,  0 CYC:16722
C7A8  AD 02 20  LDA $2002 = 00                  A:00 X:FF Y:00 P:26 SP:FF PPU:  0,  0 CYC:16725
C7AB  29 80     AND #$80                        A:00 X:FF Y:00 P:26 SP:FF PPU:  0,  0 CYC:16729
C7AD  F0 F9     BEQ $C7A8                       A:00 X:FF Y:00 P:26 SP:FF PPU:  0,  0 CYC:16731
C7A8  AD 02 20  LDA $2002 = 00                  A:00 X:FF Y:00 P:26 SP:FF PPU:  0,  0 CYC:16734
C7AB  29 80     AND #$80                        A:00 X:FF Y:00 P:26 SP:FF PPU:  0,  0 CYC:16738
C7AD  F0 F9     BEQ $C7A8                       A:00 X:FF Y:00 P:26 SP:FF PPU:  0,  0 CYC:16740
C7A8  AD 02 20  LDA $2002 = 00                  A:00 X:FF Y:00 P:26 SP:FF PPU:  0,  0 CYC:16743
C7AB  29 80     AND #$80                        A:00 X:FF Y:00 P:26 SP:FF PPU:  0,  0 CYC:16747
C7AD  F0 F9     BEQ $C7A8                       A:00 X:FF Y:00 P:26 SP:FF PPU:  0,  0 CYC:16749
C7A8  AD 02 20  LDA $2002 = 00                  A:00 X:FF Y:00 P:26 SP:FF PPU:  0,  0 CYC:16752
C7AB  29 80     AND #$80                        A:00 X:FF Y:00 P:26 SP:FF PPU:  0,  0 CYC:16756
C7AD  F0 F9     BEQ $C7A8                       A:00 X:FF Y:00 P:26 SP:FF PPU:  0,  0 CYC:16758
C7A8  AD 02 20  LDA $2002 = 00                  A:00 X:FF Y:00 P:26 SP:FF PPU:  0,  0 CYC:16761
C7AB  29 80     AND #$80                        A:00 X:FF Y:00 P:26 SP:FF PPU:  0,  0 CYC:16765
C7AD  F0 F9     BEQ $C7A8                       A:00 X:FF Y:00 P:26 SP:FF PPU:  0,  0 CYC:16767
C7A8  AD 02 20  LDA $2002 = 00                  A:00 X:FF Y:00 P:26 SP:FF PPU:  0,  0 CYC:16770
C7AB  29 80     AND #$80                        A:00 X:FF Y:00 P:26 SP:FF PPU:  0,  0 CYC:16774
C7AD  F0 F9     BEQ $C7A8                       A:00 X:FF Y:00 P:26 SP:FF PPU:  0,  0 CYC:16776
C7A8  AD 02 20  LDA $2002 = 00                  A:00 X:FF Y:00 P:26 SP:FF PPU:  0,  0 CYC:16779
C7AB  29 80     AND #$80                        A:00 X:FF Y:00 P:26 SP:FF PPU:  0,  0 CYC:16783
C7AD  F0 F9     BEQ $C7A8                       A:00 X:FF Y:00 P:26 SP:FF PPU:  0,  0 CYC:16785
C7A8  AD 02 20  LDA $2002 = 00                  A:00 X:FF Y:00 P:26 SP:FF PPU:  0,  0 CYC:16788
C7AB  29 80     AND #$80                        A:00 X:FF Y:00 P:26 SP:FF PPU:  0,  0 CYC:16792
C7AD  F0 F9     BEQ $C7A8                       A:00 X:FF Y:00 P:26 SP:FF PPU:  0,  0 CYC:16794
C7A8  AD 02 20  LDA $2002 = 00                  A:00 X:FF Y:00 P:26 SP:FF PPU:  0,  0 CYC:16797
C7AB  29 80     AND #$80                        A:00 X:FF Y:00 P:26 SP:FF PPU:  0,  0 CYC:16801
C7AD  F0 F9     BEQ $C7A8                       A:00 X:FF Y:00 P:26 SP:FF PPU:  0,  0 CYC:16803
C7A8  AD 02 20  LDA $2002 = 00                  A:00 X:FF Y:00 P:26 SP:FF PPU:  0,  0 CYC:16806
C7AB  29 80     AND #$80                        A:00 X:FF Y:00 P:26 SP:FF PPU:  0,  0 CYC:16810
C7AD  F0 F9     BEQ $C7A8                       A:00 X:FF Y:00 P:26 SP:FF PPU:  0,  0 CYC:16812
C7A8  AD 02 20  LDA $2002 = 00                  A:00 X:FF Y:00 P:26 SP:FF PPU:  0,  0 CYC:16815
C7AB  29 80     AND #$80                        A:00 X:FF Y:00 P:26 SP:FF PPU:  0,  0 CYC:16819
C7AD  F0 F9     BEQ $C7A8                       A:00 X:FF Y:00 P:26 SP:FF PPU:  0,  0 CYC:16821
C7A8  AD 02 20  LDA $2002 = 00                  A:00 X:FF Y:00 P:26 SP:FF PPU:  0,  0 CYC:16824
C7AB  29 80     AND #$80                        A:00 X:FF Y:00 P:26 SP:FF PPU:  0,  0 CYC:16828
C7AD  F0 F9     BEQ $C7A8                       A:00 X:FF Y:00 P:26 SP:FF PPU:  0,  0 CYC:16830
C7A8  AD 02 20  LDA $2002 = 00                  A:00 X:FF Y:00 P:26 SP:FF PPU:  0,  0 CYC:16833
C7AB  29 80     AND #$80                        A:00 X:FF Y:00 P:26 SP:FF PPU:  0,  0 CYC:16837
C7AD  F0 F9     BEQ $C7A8                       A:00 X:FF Y:00 P:26 SP:FF PPU:  0,  0 CYC:16839
C7A8  AD 02 20  LDA $2002 = 00                  A:00 X:FF Y:00 P:26 SP:FF PPU:  0,  0 CYC:16842
C7AB  29 80     AND #$80                        A:00 X:FF Y:00 P:26 SP:FF PPU:  0,  0 CYC:16846
C7AD  F0 F9     BEQ $C7A8                       A:00 X:FF Y:00 P:26 SP:FF PPU:  0,  0 CYC:16848
C7A8  AD 02 20  LDA $2002 = 00                  A:00 X:FF Y:00 P:26 SP:FF PPU:  0,  0 CYC:16851
C7AB  29 80     AND #$80                        A:00 X:FF Y:00 P:26 SP:FF PPU:  0,  0 CYC:16855
C7AD  F0 F9     BEQ $C7A8                       A:00 X:FF Y:00 P:26 SP:FF PPU:  0,  0 CYC:16857
C7A8  AD 02 20  LDA $2002 = 00                  A:00 X:FF Y:00 P:26 SP:FF PPU:  0,  0 CYC:16860
C7AB  29 80     AND #$80                        A:00 X:FF Y:00 P:26 SP:FF PPU:  0,  0 CYC:16864
C7AD  F0 F9     BEQ $C7A8                       A:00 X:FF Y:00 P:26 SP:FF PPU:  0,  0 CYC:16866
C7A8  AD 02 20  LDA $2002 = 00                  A:00 X:FF Y:00 P:26 SP:FF PPU:  0,  0 CYC:16869
C7AB  29 80     AND #$80                        A:00 X:FF Y:00 P:26 SP:FF PPU:  0,  0 CYC:16873
C7AD  F0 F9     BEQ $C7A8                       A:00 X:FF Y:00 P:26 SP:FF PPU:  0,  0 CYC:16875
C7A8  AD 02 20  LDA $2002 = 00                  A:00 X:FF Y:00 P:26 SP:FF PPU:  0,  0 CYC:16878
C7AB  29 80     AND #$80                        A:00 X:FF Y:00 P:26 SP:FF PPU:  0,  0 CYC:16882
C7AD  F0 F9     BEQ $C7A8                       A:00 X:FF Y:00 P:26 SP:FF PPU:  0,  0 CYC:16884
C7A8  AD 02 20  LDA $2002 = 00                  A:00 X:FF Y:00 P:26 SP:FF PPU:  0,  0 CYC:16887
C7AB  29 80     AND #$80                        A:00 X:FF Y:00 P:26 SP:FF PPU:  0,  0 CYC:16891
C7AD  F0 F9     BEQ $C7A8                       A:00 X:FF Y:00 P:26 SP:FF PPU:  0,  0 CYC:16893
C7A8  AD 02 20  LDA $2002 = 00                  A:00 X:FF Y:00 P:26 SP:FF PPU:  0,  0 CYC:16896
C7AB  29 80     AND #$80                        A:00 X:FF Y:00 P:26 SP:FF PPU:  0,  0 CYC:16900
C7AD  F0 F9     BEQ $C7A8                       A:00 X:FF Y:00 P:26 SP:FF PPU:  0,  0 CYC:16902
C7A8  AD 02 20  LDA $2002 = 00                  A:00 X:FF Y:00 P:26 SP:FF PPU:  0,  0 CYC:16905
C7AB  29 80     AND #$80                        A:00 X:FF Y:00 P:26 SP:FF PPU:  0,  0 CYC:16909
C7AD  F0 F9     BEQ $C7A8                       A:00 X:FF Y:00 P:26 SP:FF PPU:  0,  0 CYC:16911
C7A8  AD 02 20  LDA $2002 = 00                  A:00 X:FF Y:00 P:26 SP:FF PPU:  0,  0 CYC:16914
C7AB  29 80     AND #$80                        A:00 X:FF Y:00 P:26 SP:FF PPU:  0,  0 CYC:16918
C7AD  F0 F9     BEQ $C7A8                       A:00 X:FF Y:00 P:26 SP:FF PPU:  0,  0 CYC:16920
C7A8  AD 02 20  LDA $2002 = 00                  A:00 X:FF Y:00 P:26 SP:FF PPU:  0,  0 CYC:16923
C7AB  29 80     AND #$80                        A:00 X:FF Y:00 P:26 SP:FF PPU:  0,  0 CYC:16927
C7AD  F0 F9     BEQ $C7A8                       A:00 X:FF Y:00 P:26 SP:FF PPU:  0,  0 CYC:16929
C7A8  AD 02 20  LDA $2002 = 00                  A:00 X:FF Y:00 P:26 SP:FF PPU:  0,  0 CYC:16932
C7AB  29 80     AND #$80                        A:00 X:FF Y:00 P:26 SP:FF PPU:  0,  0 CYC:16936
C7AD  F0 F9     BEQ $C7A8                       A:00 X:FF Y:00 P:26 SP:FF PPU:  0,  0 CYC:16938
C7A8  AD 02 20  LDA $2002 = 00                  A:00 X:FF Y:00 P:26 SP:FF PPU:  0,  0 CYC:16941
C7AB  29 80     AND #$80                        A:00 X:FF Y:00 P:26 SP:FF PPU:  0,  0 CYC:16945
C7AD  F0 F9     BEQ $C7A8                       A:00 X:FF Y:00 P:26 SP:FF PPU:  0,  0 CYC:16947
C7A8  AD 02 20  LDA $2002 = 00                  A:00 X:FF Y:00 P:26 SP:FF PPU:  0,  0 CYC:16950
C7AB  29 80     AND #$80                        A:00 X:FF Y:00 P:26 SP:FF PPU:  0,  0 CYC:16954
C7AD  F0 F9     BEQ $C7A8                       A:00 X:FF Y:00 P:26 SP:FF PPU:  0,  0 CYC:16956
C7A8  AD 02 20  LDA $2002 = 00                  A:00 X:FF Y:00 P:26 SP:FF PPU:  0,  0 CYC:16959
C7AB  29 80     AND #$80                        A:00 X:FF Y:00 P:26 SP:FF PPU:  0,  0 CYC:16963
C7AD  F0 F9     BEQ $C7A8                       A:00 X:FF Y:00 P:26 SP:FF PPU:  0,  0 CYC:16965
C7A8  AD 02 20  LDA $2002 = 00                  A:00 X:FF Y:00 P:26 SP:FF PPU:  0,  0 CYC:16968
C7AB  29 80     AND #$80                        A:00 X:FF Y:00 P:26 SP:FF PPU:  0,  0 CYC:16972
C7AD  F0 F9     BEQ $C7A8                       A:00 X:FF Y:00 P:26 SP:FF PPU:  0,  0 CYC:16974
C7A8  AD 02 20  LDA $2002 = 00                  A:00 X:FF Y:00 P:26 SP:FF PPU:  0,  0 CYC:16977
C7AB  29 80     AND #$80                        A:00 X:FF Y:00 P:26 SP:FF PPU:  0,  0 CYC:16981
C7AD  F0 F9     BEQ $C7A8                       A:00 X:FF Y:00 P:26 SP:FF PPU:  0,  0 CYC:16983
C7A8  AD 02 20  LDA $2002 = 00                  A:00 X:FF Y:00 P:26 SP:FF PPU:  0,  0 CYC:16986
C7AB  29 80     AND #$80                        A:00 X:FF Y:00 P:26 SP:FF PPU:  0,  0 CYC:16990
C7AD  F0 F9     BEQ $C7A8                       A:00 X:FF Y:00 P:26 SP:FF PPU:  0,  0 CYC:16992
C7A8  AD 02 20  LDA $2002 = 00                  A:00 X:FF Y:00 P:26 SP:FF PPU:  0,  0 CYC:16995
C7AB  29 80     AND #$80                        A:00 X:FF Y:00 P:26 SP:FF PPU:  0,  0 CYC:16999
C7AD  F0 F9     BEQ $C7A8                       A:00 X:FF Y:00 P:26 SP:FF PPU:  0,  0 CYC:17001
C7A8  AD 02 20  LDA $2002 = 00                  A:00 X:FF Y:00 P:26 SP:FF PPU:  0,  0 CYC:17004
C7AB  29 80     AND #$80                        A:00 X:FF Y:00 P:26 SP:FF PPU:  0,  0 CYC:17008
C7AD  F0 F9     BEQ $C7A8                       A:00 X:FF Y:00 P:26 SP:FF PPU:  0,  0 CYC:17010
C7A8  AD 02 20  LDA $2002 = 00                  A:00 X:FF Y:00 P:26 SP:FF PPU:  0,  0 CYC:17013
C7AB  29 80     AND #$80                        A:00 X:FF Y:00 P:26 SP:FF PPU:  0,  0 CYC:17017
C7AD  F0 F9     BEQ $C7A8                       A:00 X:FF Y:00 P:26 SP:FF PPU:  0,  0 CYC:17019
C7A8  AD 02 20  LDA $2002 = 00                  A:00 X:FF Y:00 P:26 SP:FF PPU:  0,  0 CYC:17022
C7AB  29 80     AND #$80                        A:00 X:FF Y:00 P:26 SP:FF PPU:  0,  0 CYC:17026
C7AD  F0 F9     BEQ $C7A8                       A:00 X:FF Y:00 P:26 SP:FF PPU:  0,  0 CYC:17028
C7A8  AD 02 20  LDA $2002 = 00                  A:00 X:FF Y:00 P:26 SP:FF PPU:  0,  0 CYC:17031
C7AB  29 80     AND #$80                        A:00 X:FF Y:00 P:26 SP:FF PPU:  0,  0 CYC:17035
C7AD  F0 F9     BEQ $C7A8                       A:00 X:FF Y:00 P:26 SP:FF PPU:  0,  0 CYC:17037
C7A8  AD 02 20  LDA $2002 = 00                  A:00 X:FF Y:00 P:26 SP:FF PPU:  0,  0 CYC:17040
C7AB  29 80     AND #$80                        A:00 X:FF Y:00 P:26 SP:FF PPU:  0,  0 CYC:17044
C7AD  F0 F9     BEQ $C7A8                       A:00 X:FF Y:00 P:26 SP:FF PPU:  0,  0 CYC:17046
C7A8  AD 02 20  LDA $2002 = 00                  A:00 X:FF Y:00 P:26 SP:FF PPU:  0,  0 CYC:17049
C7AB  29 80     AND #$80                        A:00 X:FF Y:00 P:26 SP:FF PPU:  0,  0 CYC:17053
C7AD  F0 F9     BEQ $C7A8                       A:00 X:FF Y:00 P:26 SP:FF PPU:  0,  0 CYC:17055
C7A8  AD 02 20  LDA $2002 = 00                  A:00 X:FF Y:00 P:26 SP:FF PPU:  0,  0 CYC:17058
C7AB  29 80     AND #$80                        A:00 X:FF Y:00 P:26 SP:FF PPU:  0,  0 CYC:17062
C7AD  F0 F9     BEQ $C7A8                       A:00 X:FF Y:00 P:26 SP:FF PPU:  0,  0 CYC:17064
C7A8  AD 02 20  LDA $2002 = 00                  A:00 X:FF Y:00 P:26 SP:FF PPU:  0,  0 CYC:17067
C7AB  29 80     AND #$80                        A:00 X:FF Y:00 P:26 SP:FF PPU:  0,  0 CYC:17071
C7AD  F0 F9     BEQ $C7A8                       A:00 X:FF Y:00 P:26 SP:FF PPU:  0,  0 CYC:17073
C7A8  AD 02 20  LDA $2002 = 00                  A:00 X:FF Y:00 P:26 SP:FF PPU:  0,  0 CYC:17076
C7AB  29 80     AND #$80                        A:00 X:FF Y:00 P:26 SP:FF PPU:  0,  0 CYC:17080
C7AD  F0 F9     BEQ $C7A8                       A:00 X:FF Y:00 P:26 SP:FF PPU:  0,  0 CYC:17082
C7A8  AD 02 20  LDA $2002 = 00                  A:00 X:FF Y:00 P:26 SP:FF PPU:  0,  0 CYC:17085
C7AB  29 80     AND #$80                        A:00 X:FF Y:00 P:26 SP:FF PPU:  0,  0 CYC:17089
C7AD  F0 F9     BEQ $C7A8                       A:00 X:FF Y:00 P:26 SP:FF PPU:  0,  0 CYC:17091
C7A8  AD 02 20  LDA $2002 = 00                  A:00 X:FF Y:00 P:26 SP:FF PPU:  0,  0 CYC:17094
C7AB  29 80     AND #$80                        A:00 X:FF Y:00 P:26 SP:FF PPU:  0,  0 CYC:17098
C7AD  F0 F9     BEQ $C7A8                       A:00 X:FF Y:00 P:26 SP:FF PPU:  0,  0 CYC:17100
C7A8  AD 02 20  LDA $2002 = 00                  A:00 X:FF Y:00 P:26 SP:FF PPU:  0,  0 CYC:17103
C7AB  29 80     AND #$80                        A:00 X:FF Y:00 P:26 SP:FF PPU:  0,  0 CYC:17107
C7AD  F0 F9     BEQ $C7A8                       A:00 X:FF Y:00 P:26 SP:FF PPU:  0,  0 CYC:17109
C7A8  AD 02 20  LDA $2002 = 00                  A:00 X:FF Y:00 P:26 SP:FF PPU:  0,  0 CYC:17112
C7AB  29 80     AND #$80                        A:00 X:FF Y:00 P:26 SP:FF PPU:  0,  0 CYC:17116
C7AD  F0 F9     BEQ $C7A8                       A:00 X:FF Y:00 P:26 SP:FF PPU:  0,  0 CYC:17118
C7A8  AD 02 20  LDA $2002 = 00                  A:00 X:FF Y:00 P:26 SP:FF PPU:  0,  0 CYC:17121
C7AB  29 80     AND #$80                        A:00 X:FF Y:00 P:26 SP:FF PPU:  0,  0 CYC:17125
C7AD  F0 F9     BEQ $C7A8                       A:00 X:FF Y:00 P:26 SP:FF PPU:  0,  0 CYC:17127
C7A8  AD 02 20  LDA $2002 = 00                  A:00 X:FF Y:00 P:26 SP:FF PPU:  0,  0 CYC:17130
C7AB  29 80     AND #$80                        A:00 X:FF Y:00 P:26 SP:FF PPU:  0,  0 CYC:17134
C7AD  F0 F9     BEQ $C7A8                       A:00 X:FF Y:00 P:26 SP:FF PPU:  0,  0 CYC:17136
C7A8  AD 02 20  LDA $2002 = 00                  A:00 X:FF Y:00 P:26 SP:FF PPU:  0,  0 CYC:17139
C7AB  29 80     AND #$80                        A:00 X:FF Y:00 P:26 SP:FF PPU:  0,  0 CYC:17143
C7AD  F0 F9     BEQ $C7A8                       A:00 X:FF Y:00 P:26 SP:FF PPU:  0,  0 CYC:17145
C7A8  AD 02 20  LDA $2002 = 00                  A:00 X:FF Y:00 P:26 SP:FF PPU:  0,  0 CYC:17148
C7AB  29 80     AND #$80                        A:00 X:FF Y:00 P:26 SP:FF PPU:  0,  0 CYC:17152
C7AD  F0 F9     BEQ $C7A8                       A:00 X:FF Y:00 P:26 SP:FF PPU:  0,  0 CYC:17154
C7A8  AD 02 20  LDA $2002 = 00                  A:00 X:FF Y:00 P:26 SP:FF PPU:  0,  0 CYC:17157
C7AB  29 80     AND #$80                        A:00 X:FF Y:00 P:26 SP:FF PPU:  0,  0 CYC:17161
C7AD  F0 F9     BEQ $C7A8                       A:00 X:FF Y:00 P:26 SP:FF PPU:  0,  0 CYC:17163
C7A8  AD 02 20  LDA $2002 = 00                  A:00 X:FF Y:00 P:26 SP:FF PPU:  0,  0 CYC:17166
C7AB  29 80     AND #$80                        A:00 X:FF Y:00 P:26 SP:FF PPU:  0,  0 CYC:17170
C7AD  F0 F9     BEQ $C7A8                       A:00 X:FF Y:00 P:26 SP:FF PPU:  0,  0 CYC:17172
C7A8  AD 02 20  LDA $2002 = 00                  A:00 X:FF Y:00 P:26 SP:FF PPU:  0,  0 CYC:17175
C7AB  29 80     AND #$80                        A:00 X:FF Y:00 P:26 SP:FF PPU:  0,  0 CYC:17179
C7AD  F0 F9     BEQ $C7A8                       A:00 X:FF Y:00 P:26 SP:FF PPU:  0,  0 CYC:17181
C7A8  AD 02 20  LDA $2002 = 00                  A:00 X:FF Y:00 P:26 SP:FF PPU:  0,  0 CYC:17184
C7AB  29 80     AND #$80                        A:00 X:FF Y:00 P:26 SP:FF PPU:  0,  0 CYC:17188
C7AD  F0 F9     BEQ $C7A8                       A:00 X:FF Y:00 P:26 SP:FF PPU:  0,  0 CYC:17190
C7A8  AD 02 20  LDA $2002 = 00                  A:00 X:FF Y:00 P:26 SP:FF PPU:  0,  0 CYC:17193
C7AB  29 80     AND #$80                        A:00 X:FF Y:00 P:26 SP:FF PPU:  0,  0 CYC:17197
C7AD  F0 F9     BEQ $C7A8                       A:00 X:FF Y:00 P:26 SP:FF PPU:  0,  0 CYC:17199
C7A8  AD 02 20  LDA $2002 = 00                  A:00 X:FF Y:00 P:26 SP:FF PPU:  0,  0 CYC:17202
C7AB  29 80     AND #$80                        A:00 X:FF Y:00 P:26 SP:FF PPU:  0,  0 CYC:17206
C7AD  F0 F9     BEQ $C7A8                       A:00 X:FF Y:00 P:26 SP:FF PPU:  0,  0 CYC:17208
C7A8  AD 02 20  LDA $2002 = 00                  A:00 X:FF Y:00 P:26 SP:FF PPU:  0,  0 CYC:17211
C7AB  29 80     AND #$80                        A:00 X:FF Y:00 P:26 SP:FF PPU:  0,  0 CYC:17215
C7AD  F0 F9     BEQ $C7A8                       A:00 X:FF Y:00 P:26 SP:FF PPU:  0,  0 CYC:17217
C7A8  AD 02 20  LDA $2002 = 00                  A:00 X:FF Y:00 P:26 SP:FF PPU:  0,  0 CYC:17220
C7AB  29 80     AND #$80                        A:00 X:FF Y:00 P:26 SP:FF PPU:  0,  0 CYC:17224
C7AD  F0 F9     BEQ $C7A8                       A:00 X:FF Y:00 P:26 SP:FF PPU:  0,  0 CYC:17226
C7A8  AD 02 20  LDA $2002 = 00                  A:00 X:FF Y:00 P:26 SP:FF PPU:  0,  0 CYC:17229
C7AB  29 80     AND #$80                        A:00 X:FF Y:00 P:26 SP:FF PPU:  0,  0 CYC:17233
C7AD  F0 F9     BEQ $C7A8                       A:00 X:FF Y:00 P:26 SP:FF PPU:  0,  0 CYC:17235
C7A8  AD 02 20  LDA $2002 = 00                  A:00 X:FF Y:00 P:26 SP:FF PPU:  0,  0 CYC:17238
C7AB  29 80     AND #$80                        A:00 X:FF Y:00 P:26 SP:FF PPU:  0,  0 CYC:17242
C7AD  F0 F9     BEQ $C7A8                       A:00 X:FF Y:00 P:26 SP:FF PPU:  0,  0 CYC:17244
C7A8  AD 02 20  LDA $2002 = 00                  A:00 X:FF Y:00 P:26 SP:FF PPU:  0,  0 CYC:17247
C7AB  29 80     AND #$80                        A:00 X:FF Y:00 P:26 SP:FF PPU:  0,  0 CYC:17251
C7AD  F0 F9     BEQ $C7A8                       A:00 X:FF Y:00 P:26 SP:FF PPU:  0,  0 CYC:17253
C7A8  AD 02 20  LDA $2002 = 00                  A:00 X:FF Y:00 P:26 SP:FF PPU:  0,  0 CYC:17256
C7AB  29 80     AND #$80                        A:00 X:FF Y:00 P:26 SP:FF PPU:  0,  0 CYC:17260
C7AD  F0 F9     BEQ $C7A8                       A:00 X:FF Y:00 P:26 SP:FF PPU:  0,  0 CYC:17262
C7A8  AD 02 20  LDA $2002 = 00                  A:00 X:FF Y:00 P:26 SP:FF PPU:  0,  0 CYC:17265
C7AB  29 80     AND #$80                        A:00 X:FF Y:00 P:26 SP:FF PPU:  0,  0 CYC:17269
C7AD  F0 F9     BEQ $C7A8                       A:00 X:FF Y:00 P:26 SP:FF PPU:  0,  0 CYC:17271
C7A8  AD 02 20  LDA $2002 = 00                  A:00 X:FF Y:00 P:26 SP:FF PPU:  0,  0 CYC:17274
C7AB  29 80     AND #$80                        A:00 X:FF Y:00 P:26 SP:FF PPU:  0,  0 CYC:17278
C7AD  F0 F9     BEQ $C7A8                       A:00 X:FF Y:00 P:26 SP:FF PPU:  0,  0 CYC:17280
C7A8  AD 02 20  LDA $2002 = 00                  A:00 X:FF Y:00 P:26 SP:FF PPU:  0,  0 CYC:17283
C7AB  29 80     AND #$80                        A:00 X:FF Y:00 P:26 SP:FF PPU:  0,  0 CYC:17287
C7AD  F0 F9     BEQ $C7A8                       A:00 X:FF Y:00 P:26 SP:FF PPU:  0,  0 CYC:17289
C7A8  AD 02 20  LDA $2002 = 00                  A:00 X:FF Y:00 P:26 SP:FF PPU:  0,  0 CYC:17292
C7AB  29 80     AND #$80                        A:00 X:FF Y:00 P:26 SP:FF PPU:  0,  0 CYC:17296
C7AD  F0 F9     BEQ $C7A8                       A:00 X:FF Y:00 P:26 SP:FF PPU:  0,  0 CYC:17298
C7A8  AD 02 20  LDA $2002 = 00                  A:00 X:FF Y:00 P:26 SP:FF PPU:  0,  0 CYC:17301
C7AB  29 80     AND #$80                        A:00 X:FF Y:00 P:26 SP:FF PPU:  0,  0 CYC:17305
C7AD  F0 F9     BEQ $C7A8                       A:00 X:FF Y:00 P:26 SP:FF PPU:  0,  0 CYC:17307
C7A8  AD 02 20  LDA $2002 = 00                  A:00 X:FF Y:00 P:26 SP:FF PPU:  0,  0 CYC:17310
C7AB  29 80     AND #$80                        A:00 X:FF Y:00 P:26 SP:FF PPU:  0,  0 CYC:17314
C7AD  F0 F9     BEQ $C7A8                       A:00 X:FF Y:00 P:26 SP:FF PPU:  0,  0 CYC:17316
C7A8  AD 02 20  LDA $2002 = 00                  A:00 X:FF Y:00 P:26 SP:FF PPU:  0,  0 CYC:17319
C7AB  29 80     AND #$80                        A:00 X:FF Y:00 P:26 SP:FF PPU:  0,  0 CYC:17323
C7AD  F0 F9     BEQ $C7A8                       A:00 X:FF Y:00 P:26 SP:FF PPU:  0,  0 CYC:17325
C7A8  AD 02 20  LDA $2002 = 00                  A:00 X:FF Y:00 P:26 SP:FF PPU:  0,  0 CYC:17328
C7AB  29 80     AND #$80                        A:00 X:FF Y:00 P:26 SP:FF PPU:  0,  0 CYC:17332
C7AD  F0 F9     BEQ $C7A8                       A:00 X:FF Y:00 P:26 SP:FF PPU:  0,  0 CYC:17334
C7A8  AD 02 20  LDA $2002 = 00                  A:00 X:FF Y:00 P:26 SP:FF PPU:  0,  0 CYC:17337
C7AB  29 80     AND #$80                        A:00 X:FF Y:00 P:26 SP:FF PPU:  0,  0 CYC:17341
C7AD  F0 F9     BEQ $C7A8                       A:00 X:FF Y:00 P:26 SP:FF PPU:  0,  0 CYC:17343
C7A8  AD 02 20  LDA $2002 = 00                  A:00 X:FF Y:00 P:26 SP:FF PPU:  0,  0 CYC:17346
C7AB  29 80     AND #$80                        A:00 X:FF Y:00 P:26 SP:FF PPU:  0,  0 CYC:17350
C7AD  F0 F9     BEQ $C7A8                       A:00 X:FF Y:00 P:26 SP:FF PPU:  0,  0 CYC:17352
C7A8  AD 02 20  LDA $2002 = 00                  A:00 X:FF Y:00 P:26 SP:FF PPU:  0,  0 CYC:17355
C7AB  29 80     AND #$80                        A:00 X:FF Y:00 P:26 SP:FF PPU:  0,  0 CYC:17359
C7AD  F0 F9     BEQ $C7A8                       A:00 X:FF Y:00 P:26 SP:FF PPU:  0,  0 CYC:17361
C7A8  AD 02 20  LDA $2002 = 00                  A:00 X:FF Y:00 P:26 SP:FF PPU:  0,  0 CYC:17364
C7AB  29 80     AND #$80                        A:00 X:FF Y:00 P:26 SP:FF PPU:  0,  0 CYC:17368
C7AD  F0 F9     BEQ $C7A8                       A:00 X:FF Y:00 P:26 SP:FF PPU:  0,  0 CYC:17370
C7A8  AD 02 20  LDA $2002 = 00                  A:00 X:FF Y:00 P:26 SP:FF PPU:  0,  0 CYC:17373
C7AB  29 80     AND #$80                        A:00 X:FF Y:00 P:26 SP:FF PPU:  0,  0 CYC:17377
C7AD  F0 F9     BEQ $C7A8                       A:00 X:FF Y:00 P:26 SP:FF PPU:  0,  0 CYC:17379
C7A8  AD 02 20  LDA $2002 = 00                  A:00 X:FF Y:00 P:26 SP:FF PPU:  0,  0 CYC:17382
C7AB  29 80     AND #$80                        A:00 X:FF Y:00 P:26 SP:FF PPU:  0,  0 CYC:17386
C7AD  F0 F9     BEQ $C7A8                       A:00 X:FF Y:00 P:26 SP:FF PPU:  0,  0 CYC:17388
C7A8  AD 02 20  LDA $2002 = 00                  A:00 X:FF Y:00 P:26 SP:FF PPU:  0,  0 CYC:17391
C7AB  29 80     AND #$80                        A:00 X:FF Y:00 P:26 SP:FF PPU:  0,  0 CYC:17395
C7AD  F0 F9     BEQ $C7A8                       A:00 X:FF Y:00 P:26 SP:FF PPU:  0,  0 CYC:17397
C7A8  AD 02 20  LDA $2002 = 00                  A:00 X:FF Y:00 P:26 SP:FF PPU:  0,  0 CYC:17400
C7AB  29 80     AND #$80                        A:00 X:FF Y:00 P:26 SP:FF PPU:  0,  0 CYC:17404
C7AD  F0 F9     BEQ $C7A8                       A:00 X:FF Y:00 P:26 SP:FF PPU:  0,  0 CYC:17406
C7A8  AD 02 20  LDA $2002 = 00                  A:00 X:FF Y:00 P:26 SP:FF PPU:  0,  0 CYC:17409
C7AB  29 80     AND #$80                        A:00 X:FF Y:00 P:26 SP:FF PPU:  0,  0 CYC:17413
C7AD  F0 F9     BEQ $C7A8                       A:00 X:FF Y:00 P:26 SP:FF PPU:  0,  0 CYC:17415
C7A8  AD 02 20  LDA $2002 = 00                  A:00 X:FF Y:00 P:26 SP:FF PPU:  0,  0 CYC:17418
C7AB  29 80     AND #$80                        A:00 X:FF Y:00 P:26 SP:FF PPU:  0,  0 CYC:17422
C7AD  F0 F9     BEQ $C7A8                       A:00 X:FF Y:00 P:26 SP:FF PPU:  0,  0 CYC:17424
C7A8  AD 02 20  LDA $2002 = 00                  A:00 X:FF Y:00 P:26 SP:FF PPU:  0,  0 CYC:17427
C7AB  29 80     AND #$80                        A:00 X:FF Y:00 P:26 SP:FF PPU:  0,  0 CYC:17431
C7AD  F0 F9     BEQ $C7A8                       A:00 X:FF Y:00 P:26 SP:FF PPU:  0,  0 CYC:17433
C7A8  AD 02 20  LDA $2002 = 00                  A:00 X:FF Y:00 P:26 SP:FF PPU:  0,  0 CYC:17436
C7AB  29 80     AND #$80                        A:00 X:FF Y:00 P:26 SP:FF PPU:  0,  0 CYC:17440
C7AD  F0 F9     BEQ $C7A8                       A:00 X:FF Y:00 P:26 SP:FF PPU:  0,  0 CYC:17442
C7A8  AD 02 20  LDA $2002 = 00                  A:00 X:FF Y:00 P:26 SP:FF PPU:  0,  0 CYC:17445
C7AB  29 80     AND #$80                        A:00 X:FF Y:00 P:26 SP:FF PPU:  0,  0 CYC:17449
C7AD  F0 F9     BEQ $C7A8                       A:00 X:FF Y:00 P:26 SP:FF PPU:  0,  0 CYC:17451
C7A8  AD 02 20  LDA $2002 = 00                  A:00 X:FF Y:00 P:26 SP:FF PPU:  0,  0 CYC:17454
C7AB  29 80     AND #$80                        A:00 X:FF Y:00 P:26 SP:FF PPU:  0,  0 CYC:17458
C7AD  F0 F9     BEQ $C7A8                       A:00 X:FF Y:00 P:26 SP:FF PPU:  0,  0 CYC:17460
C7A8  AD 02 20  LDA $2002 = 00                  A:00 X:FF Y:00 P:26 SP:FF PPU:  0,  0 CYC:17463
C7AB  29 80     AND #$80                        A:00 X:FF Y:00 P:26 SP:FF PPU:  0,  0 CYC:17467
C7AD  F0 F9     BEQ $C7A8                       A:00 X:FF Y:00 P:26 SP:FF PPU:  0,  0 CYC:17469
C7A8  AD 02 20  LDA $2002 = 00                  A:00 X:FF Y:00 P:26 SP:FF PPU:  0,  0 CYC:17472
C7AB  29 80     AND #$80                        A:00 X:FF Y:00 P:26 SP:FF PPU:  0,  0 CYC:17476
C7AD  F0 F9     BEQ $C7A8                       A:00 X:FF Y:00 P:26 SP:FF PPU:  0,  0 CYC:17478
C7A8  AD 02 20  LDA $2002 = 00                  A:00 X:FF Y:00 P:26 SP:FF PPU:  0,  0 CYC:17481
C7AB  29 80     AND #$80                        A:00 X:FF Y:00 P:26 SP:FF PPU:  0,  0 CYC:17485
C7AD  F0 F9     BEQ $C7A8                       A:00 X:FF Y:00 P:26 SP:FF PPU:  0,  0 CYC:17487
C7A8  AD 02 20  LDA $2002 = 00                  A:00 X:FF Y:00 P:26 SP:FF PPU:  0,  0 CYC:17490
C7AB  29 80     AND #$80                        A:00 X:FF Y:00 P:26 SP:FF PPU:  0,  0 CYC:17494
C7AD  F0 F9     BEQ $C7A8                       A:00 X:FF Y:00 P:26 SP:FF PPU:  0,  0 CYC:17496
C7A8  AD 02 20  LDA $2002 = 00                  A:00 X:FF Y:00 P:26 SP:FF PPU:  0,  0 CYC:17499
C7AB  29 80     AND #$80                        A:00 X:FF Y:00 P:26 SP:FF PPU:  0,  0 CYC:17503
C7AD  F0 F9     BEQ $C7A8                       A:00 X:FF Y:00 P:26 SP:FF PPU:  0,  0 CYC:17505
C7A8  AD 02 20  LDA $2002 = 00                  A:00 X:FF Y:00 P:26 SP:FF PPU:  0,  0 CYC:17508
C7AB  29 80     AND #$80                        A:00 X:FF Y:00 P:26 SP:FF PPU:  0,  0 CYC:17512
C7AD  F0 F9     BEQ $C7A8                       A:00 X:FF Y:00 P:26 SP:FF PPU:  0,  0 CYC:17514
C7A8  AD 02 20  LDA $2002 = 00                  A:00 X:FF Y:00 P:26 SP:FF PPU:  0,  0 CYC:17517
C7AB  29 80     AND #$80                        A:00 X:FF Y:00 P:26 SP:FF PPU:  0,  0 CYC:17521
C7AD  F0 F9     BEQ $C7A8                       A:00 X:FF Y:00 P:26 SP:FF PPU:  0,  0 CYC:17523
C7A8  AD 02 20  LDA $2002 = 00                  A:00 X:FF Y:00 P:26 SP:FF PPU:  0,  0 CYC:17526
C7AB  29 80     AND #$80                        A:00 X:FF Y:00 P:26 SP:FF PPU:  0,  0 CYC:17530
C7AD  F0 F9     BEQ $C7A8                       A:00 X:FF Y:00 P:26 SP:FF PPU:  0,  0 CYC:17532
C7A8  AD 02 20  LDA $2002 = 00                  A:00 X:FF Y:00 P:26 SP:FF PPU:  0,  0 CYC:17535
C7AB  29 80     AND #$80                        A:00 X:FF Y:00 P:26 SP:FF PPU:  0,  0 CYC:17539
C7AD  F0 F9     BEQ $C7A8                       A:00 X:FF Y:00 P:26 SP:FF PPU:  0,  0 CYC:17541
C7A8  AD 02 20  LDA $2002 = 00                  A:00 X:FF Y:00 P:26 SP:FF PPU:  0,  0 CYC:17544
C7AB  29 80     AND #$80                        A:00 X:FF Y:00 P:26 SP:FF PPU:  0,  0 CYC:17548
C7AD  F0 F9     BEQ $C7A8                       A:00 X:FF Y:00 P:26 SP:FF PPU:  0,  0 CYC:17550
C7A8  AD 02 20  LDA $2002 = 00                  A:00 X:FF Y:00 P:26 SP:FF PPU:  0,  0 CYC:17553
C7AB  29 80     AND #$80                        A:00 X:FF Y:00 P:26 SP:FF PPU:  0,  0 CYC:17557
C7AD  F0 F9     BEQ $C7A8                       A:00 X:FF Y:00 P:26 SP:FF PPU:  0,  0 CYC:17559
C7A8  AD 02 20  LDA $2002 = 00                  A:00 X:FF Y:00 P:26 SP:FF PPU:  0,  0 CYC:17562
C7AB  29 80     AND #$80                        A:00 X:FF Y:00 P:26 SP:FF PPU:  0,  0 CYC:17566
C7AD  F0 F9     BEQ $C7A8                       A:00 X:FF Y:00 P:26 SP:FF PPU:  0,  0 CYC:17568
C7A8  AD 02 20  LDA $2002 = 00                  A:00 X:FF Y:00 P:26 SP:FF PPU:  0,  0 CYC:17571
C7AB  29 80     AND #$80                        A:00 X:FF Y:00 P:26 SP:FF PPU:  0,  0 CYC:17575
C7AD  F0 F9     BEQ $C7A8                       A:00 X:FF Y:00 P:26 SP:FF PPU:  0,  0 CYC:17577
C7A8  AD 02 20  LDA $2002 = 00                  A:00 X:FF Y:00 P:26 SP:FF PPU:  0,  0 CYC:17580
C7AB  29 80     AND #$80                        A:00 X:FF Y:00 P:26 SP:FF PPU:  0,  0 CYC:17584
C7AD  F0 F9     BEQ $C7A8                       A:00 X:FF Y:00 P:26 SP:FF PPU:  0,  0 CYC:17586
C7A8  AD 02 20  LDA $2002 = 00                  A:00 X:FF Y:00 P:26 SP:FF PPU:  0,  0 CYC:17589
C7AB  29 80     AND #$80                        A:00 X:FF Y:00 P:26 SP:FF PPU:  0,  0 CYC:17593
C7AD  F0 F9     BEQ $C7A8                       A:00 X:FF Y:00 P:26 SP:FF PPU:  0,  0 CYC:17595
C7A8  AD 02 20  LDA $2002 = 00                  A:00 X:FF Y:00 P:26 SP:FF PPU:  0,  0 CYC:17598
C7AB  29 80     AND #$80                        A:00 X:FF Y:00 P:26 SP:FF PPU:  0,  0 CYC:17602
C7AD  F0 F9     BEQ $C7A8                       A:00 X:FF Y:00 P:26 SP:FF PPU:  0,  0 CYC:17604
C7A8  AD 02 20  LDA $2002 = 00                  A:00 X:FF Y:00 P:26 SP:FF PPU:  0,  0 CYC:17607
C7AB  29 80     AND #$80                        A:00 X:FF Y:00 P:26 SP:FF PPU:  0,  0 CYC:17611
C7AD  F0 F9     BEQ $C7A8                       A:00 X:FF Y:00 P:26 SP:FF PPU:  0,  0 CYC:17613
C7A8  AD 02 20  LDA $2002 = 00                  A:00 X:FF Y:00 P:26 SP:FF PPU:  0,  0 CYC:17616
C7AB  29 80     AND #$80                        A:00 X:FF Y:00 P:26 SP:FF PPU:  0,  0 CYC:17620
C7AD  F0 F9     BEQ $C7A8                       A:00 X:FF Y:00 P:26 SP:FF PPU:  0,  0 CYC:17622
C7A8  AD 02 20  LDA $2002 = 00                  A:00 X:FF Y:00 P:26 SP:FF PPU:  0,  0 CYC:17625
C7AB  29 80     AND #$80                        A:00 X:FF Y:00 P:26 SP:FF PPU:  0,  0 CYC:17629
C7AD  F0 F9     BEQ $C7A8                       A:00 X:FF Y:00 P:26 SP:FF PPU:  0,  0 CYC:17631
C7A8  AD 02 20  LDA $2002 = 00                  A:00 X:FF Y:00 P:26 SP:FF PPU:  0,  0 CYC:17634
C7AB  29 80     AND #$80                        A:00 X:FF Y:00 P:26 SP:FF PPU:  0,  0 CYC:17638
C7AD  F0 F9     BEQ $C7A8                       A:00 X:FF Y:00 P:26 SP:FF PPU:  0,  0 CYC:17640
C7A8  AD 02 20  LDA $2002 = 00                  A:00 X:FF Y:00 P:26 SP:FF PPU:  0,  0 CYC:17643
C7AB  29 80     AND #$80                        A:00 X:FF Y:00 P:26 SP:FF PPU:  0,  0 CYC:17647
C7AD  F0 F9     BEQ $C7A8                       A:00 X:FF Y:00 P:26 SP:FF PPU:  0,  0 CYC:17649
C7A8  AD 02 20  LDA $2002 = 00                  A:00 X:FF Y:00 P:26 SP:FF PPU:  0,  0 CYC:17652
C7AB  29 80     AND #$80                        A:00 X:FF Y:00 P:26 SP:FF PPU:  0,  0 CYC:17656
C7AD  F0 F9     BEQ $C7A8                       A:00 X:FF Y:00 P:26 SP:FF PPU:  0,  0 CYC:17658
C7A8  AD 02 20  LDA $2002 = 00                  A:00 X:FF Y:00 P:26 SP:FF PPU:  0,  0 CYC:17661
C7AB  29 80     AND #$80                        A:00 X:FF Y:00 P:26 SP:FF PPU:  0,  0 CYC:17665
C7AD  F0 F9     BEQ $C7A8                       A:00 X:FF Y:00 P:26 SP:FF PPU:  0,  0 CYC:17667
C7A8  AD 02 20  LDA $2002 = 00                  A:00 X:FF Y:00 P:26 SP:FF PPU:  0,  0 CYC:17670
C7AB  29 80     AND #$80                        A:00 X:FF Y:00 P:26 SP:FF PPU:  0,  0 CYC:17674
C7AD  F0 F9     BEQ $C7A8                       A:00 X:FF Y:00 P:26 SP:FF PPU:  0,  0 CYC:17676
C7A8  AD 02 20  LDA $2002 = 00                  A:00 X:FF Y:00 P:26 SP:FF PPU:  0,  0 CYC:17679
C7AB  29 80     AND #$80                        A:00 X:FF Y:00 P:26 SP:FF PPU:  0,  0 CYC:17683
C7AD  F0 F9     BEQ $C7A8                       A:00 X:FF Y:00 P:26 SP:FF PPU:  0,  0 CYC:17685
C7A8  AD 02 20  LDA $2002 = 00                  A:00 X:FF Y:00 P:26 SP:FF PPU:  0,  0 CYC:17688
C7AB  29 80     AND #$80                        A:00 X:FF Y:00 P:26 SP:FF PPU:  0,  0 CYC:17692
C7AD  F0 F9     BEQ $C7A8                       A:00 X:FF Y:00 P:26 SP:FF PPU:  0,  0 CYC:17694
C7A8  AD 02 20  LDA $2002 = 00                  A:00 X:FF Y:00 P:26 SP:FF PPU:  0,  0 CYC:17697
C7AB  29 80     AND #$80                        A:00 X:FF Y:00 P:26 SP:FF PPU:  0,  0 CYC:17701
C7AD  F0 F9     BEQ $C7A8                       A:00 X:FF Y:00 P:26 SP:FF PPU:  0,  0 CYC:17703
C7A8  AD 02 20  LDA $2002 = 00                  A:00 X:FF Y:00 P:26 SP:FF PPU:  0,  0 CYC:17706
C7AB  29 80     AND #$80                        A:00 X:FF Y:00 P:26 SP:FF PPU:  0,  0 CYC:17710
C7AD  F0 F9     BEQ $C7A8                       A:00 X:FF Y:00 P:26 SP:FF PPU:  0,  0 CYC:17712
C7A8  AD 02 20  LDA $2002 = 00                  A:00 X:FF Y:00 P:26 SP:FF PPU:  0,  0 CYC:17715
C7AB  29 80     AND #$80                        A:00 X:FF Y:00 P:26 SP:FF PPU:  0,  0 CYC:17719
C7AD  F0 F9     BEQ $C7A8                       A:00 X:FF Y:00 P:26 SP:FF PPU:  0,  0 CYC:17721
C7A8  AD 02 20  LDA $2002 = 00                  A:00 X:FF Y:00 P:26 SP:FF PPU:  0,  0 CYC:17724
C7AB  29 80     AND #$80                        A:00 X:FF Y:00 P:26 SP:FF PPU:  0,  0 CYC:17728
C7AD  F0 F9     BEQ $C7A8                       A:00 X:FF Y:00 P:26 SP:FF PPU:  0,  0 CYC:17730
C7A8  AD 02 20  LDA $2002 = 00                  A:00 X:FF Y:00 P:26 SP:FF PPU:  0,  0 CYC:17733
C7AB  29 80     AND #$80                        A:00 X:FF Y:00 P:26 SP:FF PPU:  0,  0 CYC:17737
C7AD  F0 F9     BEQ $C7A8                       A:00 X:FF Y:00 P:26 SP:FF PPU:  0,  0 CYC:17739
C7A8  AD 02 20  LDA $2002 = 00                  A:00 X:FF Y:00 P:26 SP:FF PPU:  0,  0 CYC:17742
C7AB  29 80     AND #$80                        A:00 X:FF Y:00 P:26 SP:FF PPU:  0,  0 CYC:17746
C7AD  F0 F9     BEQ $C7A8                       A:00 X:FF Y:00 P:26 SP:FF PPU:  0,  0 CYC:17748
C7A8  AD 02 20  LDA $2002 = 00                  A:00 X:FF Y:00 P:26 SP:FF PPU:  0,  0 CYC:17751
C7AB  29 80     AND #$80                        A:00 X:FF Y:00 P:26 SP:FF PPU:  0,  0 CYC:17755
C7AD  F0 F9     BEQ $C7A8                       A:00 X:FF Y:00 P:26 SP:FF PPU:  0,  0 CYC:17757
C7A8  AD 02 20  LDA $2002 = 00                  A:00 X:FF Y:00 P:26 SP:FF PPU:  0,  0 CYC:17760
C7AB  29 80     AND #$80                        A:00 X:FF Y:00 P:26 SP:FF PPU:  0,  0 CYC:17764
C7AD  F0 F9     BEQ $C7A8                       A:00 X:FF Y:00 P:26 SP:FF PPU:  0,  0 CYC:17766
C7A8  AD 02 20  LDA $2002 = 00                  A:00 X:FF Y:00 P:26 SP:FF PPU:  0,  0 CYC:17769
C7AB  29 80     AND #$80                        A:00 X:FF Y:00 P:26 SP:FF PPU:  0,  0 CYC:17773
C7AD  F0 F9     BEQ $C7A8                       A:00 X:FF Y:00 P:26 SP:FF PPU:  0,  0 CYC:17775
C7A8  AD 02 20  LDA $2002 = 00                  A:00 X:FF Y:00 P:26 SP:FF PPU:  0,  0 CYC:17778
C7AB  29 80     AND #$80                        A:00 X:FF Y:00 P:26 SP:FF PPU:  0,  0 CYC:17782
C7AD  F0 F9     BEQ $C7A8                       A:00 X:FF Y:00 P:26 SP:FF PPU:  0,  0 CYC:17784
C7A8  AD 02 20  LDA $2002 = 00                  A:00 X:FF Y:00 P:26 SP:FF PPU:  0,  0 CYC:17787
C7AB  29 80     AND #$80                        A:00 X:FF Y:00 P:26 SP:FF PPU:  0,  0 CYC:17791
C7AD  F0 F9     BEQ $C7A8                       A:00 X:FF Y:00 P:26 SP:FF PPU:  0,  0 CYC:17793
C7A8  AD 02 20  LDA $2002 = 00                  A:00 X:FF Y:00 P:26 SP:FF PPU:  0,  0 CYC:17796
C7AB  29 80     AND #$80                        A:00 X:FF Y:00 P:26 SP:FF PPU:  0,  0 CYC:17800
C7AD  F0 F9     BEQ $C7A8                       A:00 X:FF Y:00 P:26 SP:FF PPU:  0,  0 CYC:17802
C7A8  AD 02 20  LDA $2002 = 00                  A:00 X:FF Y:00 P:26 SP:FF PPU:  0,  0 CYC:17805
C7AB  29 80     AND #$80                        A:00 X:FF Y:00 P:26 SP:FF PPU:  0,  0 CYC:17809
C7AD  F0 F9     BEQ $C7A8                       A:00 X:FF Y:00 P:26 SP:FF PPU:  0,  0 CYC:17811
C7A8  AD 02 20  LDA $2002 = 00                  A:00 X:FF Y:00 P:26 SP:FF PPU:  0,  0 CYC:17814
C7AB  29 80     AND #$80                        A:00 X:FF Y:00 P:26 SP:FF PPU:  0,  0 CYC:17818
C7AD  F0 F9     BEQ $C7A8                       A:00 X:FF Y:00 P:26 SP:FF PPU:  0,  0 CYC:17820
C7A8  AD 02 20  LDA $2002 = 00                  A:00 X:FF Y:00 P:26 SP:FF PPU:  0,  0 CYC:17823
C7AB  29 80     AND #$80                        A:00 X:FF Y:00 P:26 SP:FF PPU:  0,  0 CYC:17827
C7AD  F0 F9     BEQ $C7A8                       A:00 X:FF Y:00 P:26 SP:FF PPU:  0,  0 CYC:17829
C7A8  AD 02 20  LDA $2002 = 00                  A:00 X:FF Y:00 P:26 SP:FF PPU:  0,  0 CYC:17832
C7AB  29 80     AND #$80                        A:00 X:FF Y:00 P:26 SP:FF PPU:  0,  0 CYC:17836
C7AD  F0 F9     BEQ $C7A8                       A:00 X:FF Y:00 P:26 SP:FF PPU:  0,  0 CYC:17838
C7A8  AD 02 20  LDA $2002 = 00                  A:00 X:FF Y:00 P:26 SP:FF PPU:  0,  0 CYC:17841
C7AB  29 80     AND #$80                        A:00 X:FF Y:00 P:26 SP:FF PPU:  0,  0 CYC:17845
C7AD  F0 F9     BEQ $C7A8                       A:00 X:FF Y:00 P:26 SP:FF PPU:  0,  0 CYC:17847
C7A8  AD 02 20  LDA $2002 = 00                  A:00 X:FF Y:00 P:26 SP:FF PPU:  0,  0 CYC:17850
C7AB  29 80     AND #$80                        A:00 X:FF Y:00 P:26 SP:FF PPU:  0,  0 CYC:17854
C7AD  F0 F9     BEQ $C7A8                       A:00 X:FF Y:00 P:26 SP:FF PPU:  0,  0 CYC:17856
C7A8  AD 02 20  LDA $2002 = 00                  A:00 X:FF Y:00 P:26 SP:FF PPU:  0,  0 CYC:17859
C7AB  29 80     AND #$80                        A:00 X:FF Y:00 P:26 SP:FF PPU:  0,  0 CYC:17863
C7AD  F0 F9     BEQ $C7A8                       A:00 X:FF Y:00 P:26 SP:FF PPU:  0,  0 CYC:17865
C7A8  AD 02 20  LDA $2002 = 00                  A:00 X:FF Y:00 P:26 SP:FF PPU:  0,  0 CYC:17868
C7AB  29 80     AND #$80                        A:00 X:FF Y:00 P:26 SP:FF PPU:  0,  0 CYC:17872
C7AD  F0 F9     BEQ $C7A8                       A:00 X:FF Y:00 P:26 SP:FF PPU:  0,  0 CYC:17874
C7A8  AD 02 20  LDA $2002 = 00                  A:00 X:FF Y:00 P:26 SP:FF PPU:  0,  0 CYC:17877
C7AB  29 80     AND #$80                        A:00 X:FF Y:00 P:26 SP:FF PPU:  0,  0 CYC:17881
C7AD  F0 F9     BEQ $C7A8                       A:00 X:FF Y:00 P:26 SP:FF PPU:  0,  0 CYC:17883
C7A8  AD 02 20  LDA $2002 = 00                  A:00 X:FF Y:00 P:26 SP:FF PPU:  0,  0 CYC:17886
C7AB  29 80     AND #$80                        A:00 X:FF Y:00 P:26 SP:FF PPU:  0,  0 CYC:17890
C7AD  F0 F9     BEQ $C7A8                       A:00 X:FF Y:00 P:26 SP:FF PPU:  0,  0 CYC:17892
C7A8  AD 02 20  LDA $2002 = 00                  A:00 X:FF Y:00 P:26 SP:FF PPU:  0,  0 CYC:17895
C7AB  29 80     AND #$80                        A:00 X:FF Y:00 P:26 SP:FF PPU:  0,  0 CYC:17899
C7AD  F0 F9     BEQ $C7A8                       A:00 X:FF Y:00 P:26 SP:FF PPU:  0,  0 CYC:17901
C7A8  AD 02 20  LDA $2002 = 00                  A:00 X:FF Y:00 P:26 SP:FF PPU:  0,  0 CYC:17904
C7AB  29 80     AND #$80                        A:00 X:FF Y:00 P:26 SP:FF PPU:  0,  0 CYC:17908
C7AD  F0 F9     BEQ $C7A8                       A:00 X:FF Y:00 P:26 SP:FF PPU:  0,  0 CYC:17910
C7A8  AD 02 20  LDA $2002 = 00                  A:00 X:FF Y:00 P:26 SP:FF PPU:  0,  0 CYC:17913
C7AB  29 80     AND #$80                        A:00 X:FF Y:00 P:26 SP:FF PPU:  0,  0 CYC:17917
C7AD  F0 F9     BEQ $C7A8                       A:00 X:FF Y:00 P:26 SP:FF PPU:  0,  0 CYC:17919
C7A8  AD 02 20  LDA $2002 = 00                  A:00 X:FF Y:00 P:26 SP:FF PPU:  0,  0 CYC:17922
C7AB  29 80     AND #$80                        A:00 X:FF Y:00 P:26 SP:FF PPU:  0,  0 CYC:17926
C7AD  F0 F9     BEQ $C7A8                       A:00 X:FF Y:00 P:26 SP:FF PPU:  0,  0 CYC:17928
C7A8  AD 02 20  LDA $2002 = 00                  A:00 X:FF Y:00 P:26 SP:FF PPU:  0,  0 CYC:17931
C7AB  29 80     AND #$80                        A:00 X:FF Y:00 P:26 SP:FF PPU:  0,  0 CYC:17935
C7AD  F0 F9     BEQ $C7A8                       A:00 X:FF Y:00 P:26 SP:FF PPU:  0,  0 CYC:17937
C7A8  AD 02 20  LDA $2002 = 00                  A:00 X:FF Y:00 P:26 SP:FF PPU:  0,  0 CYC:17940
C7AB  29 80     AND #$80                        A:00 X:FF Y:00 P:26 SP:FF PPU:  0,  0 CYC:17944
C7AD  F0 F9     BEQ $C7A8                       A:00 X:FF Y:00 P:26 SP:FF PPU:  0,  0 CYC:17946
C7A8  AD 02 20  LDA $2002 = 00                  A:00 X:FF Y:00 P:26 SP:FF PPU:  0,  0 CYC:17949
C7AB  29 80     AND #$80                        A:00 X:FF Y:00 P:26 SP:FF PPU:  0,  0 CYC:17953
C7AD  F0 F9     BEQ $C7A8                       A:00 X:FF Y:00 P:26 SP:FF PPU:  0,  0 CYC:17955
C7A8  AD 02 20  LDA $2002 = 00                  A:00 X:FF Y:00 P:26 SP:FF PPU:  0,  0 CYC:17958
C7AB  29 80     AND #$80                        A:00 X:FF Y:00 P:26 SP:FF PPU:  0,  0 CYC:17962
C7AD  F0 F9     BEQ $C7A8                       A:00 X:FF Y:00 P:26 SP:FF PPU:  0,  0 CYC:17964
C7A8  AD 02 20  LDA $2002 = 00                  A:00 X:FF Y:00 P:26 SP:FF PPU:  0,  0 CYC:17967
C7AB  29 80     AND #$80                        A:00 X:FF Y:00 P:26 SP:FF PPU:  0,  0 CYC:17971
C7AD  F0 F9     BEQ $C7A8                       A:00 X:FF Y:00 P:26 SP:FF PPU:  0,  0 CYC:17973
C7A8  AD 02 20  LDA $2002 = 00                  A:00 X:FF Y:00 P:26 SP:FF PPU:  0,  0 CYC:17976
C7AB  29 80     AND #$80                        A:00 X:FF Y:00 P:26 SP:FF PPU:  0,  0 CYC:17980
C7AD  F0 F9     BEQ $C7A8                       A:00 X:FF Y:00 P:26 SP:FF PPU:  0,  0 CYC:17982
C7A8  AD 02 20  LDA $2002 = 00                  A:00 X:FF Y:00 P:26 SP:FF PPU:  0,  0 CYC:17985
C7AB  29 80     AND #$80                        A:00 X:FF Y:00 P:26 SP:FF PPU:  0,  0 CYC:17989
C7AD  F0 F9     BEQ $C7A8                       A:00 X:FF Y:00 P:26 SP:FF PPU:  0,  0 CYC:17991
C7A8  AD 02 20  LDA $2002 = 00                  A:00 X:FF Y:00 P:26 SP:FF PPU:  0,  0 CYC:17994
C7AB  29 80     AND #$80                        A:00 X:FF Y:00 P:26 SP:FF PPU:  0,  0 CYC:17998
C7AD  F0 F9     BEQ $C7A8                       A:00 X:FF Y:00 P:26 SP:FF PPU:  0,  0 CYC:18000
C7A8  AD 02 20  LDA $2002 = 00                  A:00 X:FF Y:00 P:26 SP:FF PPU:  0,  0 CYC:18003
C7AB  29 80     AND #$80                        A:00 X:FF Y:00 P:26 SP:FF PPU:  0,  0 CYC:18007
C7AD  F0 F9     BEQ $C7A8                       A:00 X:FF Y:00 P:26 SP:FF PPU:  0,  0 CYC:18009
C7A8  AD 02 20  LDA $2002 = 00                  A:00 X:FF Y:00 P:26 SP:FF PPU:  0,  0 CYC:18012
C7AB  29 80     AND #$80                        A:00 X:FF Y:00 P:26 SP:FF PPU:  0,  0 CYC:18016
C7AD  F0 F9     BEQ $C7A8                       A:00 X:FF Y:00 P:26 SP:FF PPU:  0,  0 CYC:18018
C7A8  AD 02 20  LDA $2002 = 00                  A:00 X:FF Y:00 P:26 SP:FF PPU:  0,  0 CYC:18021
C7AB  29 80     AND #$80                        A:00 X:FF Y:00 P:26 SP:FF PPU:  0,  0 CYC:18025
C7AD  F0 F9     BEQ $C7A8                       A:00 X:FF Y:00 P:26 SP:FF PPU:  0,  0 CYC:18027
C7A8  AD 02 20  LDA $2002 = 00                  A:00 X:FF Y:00 P:26 SP:FF PPU:  0,  0 CYC:18030
C7AB  29 80     AND #$80                        A:00 X:FF Y:00 P:26 SP:FF PPU:  0,  0 CYC:18034
C7AD  F0 F9     BEQ $C7A8                       A:00 X:FF Y:00 P:26 SP:FF PPU:  0,  0 CYC:18036
C7A8  AD 02 20  LDA $2002 = 00                  A:00 X:FF Y:00 P:26 SP:FF PPU:  0,  0 CYC:18039
C7AB  29 80     AND #$80                        A:00 X:FF Y:00 P:26 SP:FF PPU:  0,  0 CYC:18043
C7AD  F0 F9     BEQ $C7A8                       A:00 X:FF Y:00 P:26 SP:FF PPU:  0,  0 CYC:18045
C7A8  AD 02 20  LDA $2002 = 00                  A:00 X:FF Y:00 P:26 SP:FF PPU:  0,  0 CYC:18048
C7AB  29 80     AND #$80                        A:00 X:FF Y:00 P:26 SP:FF PPU:  0,  0 CYC:18052
C7AD  F0 F9     BEQ $C7A8                       A:00 X:FF Y:00 P:26 SP:FF PPU:  0,  0 CYC:18054
C7A8  AD 02 20  LDA $2002 = 00                  A:00 X:FF Y:00 P:26 SP:FF PPU:  0,  0 CYC:18057
C7AB  29 80     AND #$80                        A:00 X:FF Y:00 P:26 SP:FF PPU:  0,  0 CYC:18061
C7AD  F0 F9     BEQ $C7A8                       A:00 X:FF Y:00 P:26 SP:FF PPU:  0,  0 CYC:18063
C7A8  AD 02 20  LDA $2002 = 00                  A:00 X:FF Y:00 P:26 SP:FF PPU:  0,  0 CYC:18066
C7AB  29 80     AND #$80                        A:00 X:FF Y:00 P:26 SP:FF PPU:  0,  0 CYC:18070
C7AD  F0 F9     BEQ $C7A8                       A:00 X:FF Y:00 P:26 SP:FF PPU:  0,  0 CYC:18072
C7A8  AD 02 20  LDA $2002 = 00                  A:00 X:FF Y:00 P:26 SP:FF PPU:  0,  0 CYC:18075
C7AB  29 80     AND #$80                        A:00 X:FF Y:00 P:26 SP:FF PPU:  0,  0 CYC:18079
C7AD  F0 F9     BEQ $C7A8                       A:00 X:FF Y:00 P:26 SP:FF PPU:  0,  0 CYC:18081
C7A8  AD 02 20  LDA $2002 = 00                  A:00 X:FF Y:00 P:26 SP:FF PPU:  0,  0 CYC:18084
C7AB  29 80     AND #$80                        A:00 X:FF Y:00 P:26 SP:FF PPU:  0,  0 CYC:18088
C7AD  F0 F9     BEQ $C7A8                       A:00 X:FF Y:00 P:26 SP:FF PPU:  0,  0 CYC:18090
C7A8  AD 02 20  LDA $2002 = 00                  A:00 X:FF Y:00 P:26 SP:FF PPU:  0,  0 CYC:18093
C7AB  29 80     AND #$80                        A:00 X:FF Y:00 P:26 SP:FF PPU:  0,  0 CYC:18097
C7AD  F0 F9     BEQ $C7A8                       A:00 X:FF Y:00 P:26 SP:FF PPU:  0,  0 CYC:18099
C7A8  AD 02 20  LDA $2002 = 00                  A:00 X:FF Y:00 P:26 SP:FF PPU:  0,  0 CYC:18102
C7AB  29 80     AND #$80                        A:00 X:FF Y:00 P:26 SP:FF PPU:  0,  0 CYC:18106
C7AD  F0 F9     BEQ $C7A8                       A:00 X:FF Y:00 P:26 SP:FF PPU:  0,  0 CYC:18108
C7A8  AD 02 20  LDA $2002 = 00                  A:00 X:FF Y:00 P:26 SP:FF PPU:  0,  0 CYC:18111
C7AB  29 80     AND #$80                        A:00 X:FF Y:00 P:26 SP:FF PPU:  0,  0 CYC:18115
C7AD  F0 F9     BEQ $C7A8                       A:00 X:FF Y:00 P:26 SP:FF PPU:  0,  0 CYC:18117
C7A8  AD 02 20  LDA $2002 = 00                  A:00 X:FF Y:00 P:26 SP:FF PPU:  0,  0 CYC:18120
C7AB  29 80     AND #$80                        A:00 X:FF Y:00 P:26 SP:FF PPU:  0,  0 CYC:18124
C7AD  F0 F9     BEQ $C7A8                       A:00 X:FF Y:00 P:26 SP:FF PPU:  0,  0 CYC:18126
C7A8  AD 02 20  LDA $2002 = 00                  A:00 X:FF Y:00 P:26 SP:FF PPU:  0,  0 CYC:18129
C7AB  29 80     AND #$80                        A:00 X:FF Y:00 P:26 SP:FF PPU:  0,  0 CYC:18133
C7AD  F0 F9     BEQ $C7A8                       A:00 X:FF Y:00 P:26 SP:FF PPU:  0,  0 CYC:18135
C7A8  AD 02 20  LDA $2002 = 00                  A:00 X:FF Y:00 P:26 SP:FF PPU:  0,  0 CYC:18138
C7AB  29 80     AND #$80                        A:00 X:FF Y:00 P:26 SP:FF PPU:  0,  0 CYC:18142
C7AD  F0 F9     BEQ $C7A8                       A:00 X:FF Y:00 P:26 SP:FF PPU:  0,  0 CYC:18144
C7A8  AD 02 20  LDA $2002 = 00                  A:00 X:FF Y:00 P:26 SP:FF PPU:  0,  0 CYC:18147
C7AB  29 80     AND #$80                        A:00 X:FF Y:00 P:26 SP:FF PPU:  0,  0 CYC:18151
C7AD  F0 F9     BEQ $C7A8                       A:00 X:FF Y:00 P:26 SP:FF PPU:  0,  0 CYC:18153
C7A8  AD 02 20  LDA $2002 = 00                  A:00 X:FF Y:00 P:26 SP:FF PPU:  0,  0 CYC:18156
C7AB  29 80     AND #$80                        A:00 X:FF Y:00 P:26 SP:FF PPU:  0,  0 CYC:18160
C7AD  F0 F9     BEQ $C7A8                       A:00 X:FF Y:00 P:26 SP:FF PPU:  0,  0 CYC:18162
C7A8  AD 02 20  LDA $2002 = 00                  A:00 X:FF Y:00 P:26 SP:FF PPU:  0,  0 CYC:18165
C7AB  29 80     AND #$80                        A:00 X:FF Y:00 P:26 SP:FF PPU:  0,  0 CYC:18169
C7AD  F0 F9     BEQ $C7A8                       A:00 X:FF Y:00 P:26 SP:FF PPU:  0,  0 CYC:18171
C7A8  AD 02 20  LDA $2002 = 00                  A:00 X:FF Y:00 P:26 SP:FF PPU:  0,  0 CYC:18174
C7AB  29 80     AND #$80                        A:00 X:FF Y:00 P:26 SP:FF PPU:  0,  0 CYC:18178
C7AD  F0 F9     BEQ $C7A8                       A:00 X:FF Y:00 P:26 SP:FF PPU:  0,  0 CYC:18180
C7A8  AD 02 20  LDA $2002 = 00                  A:00 X:FF Y:00 P:26 SP:FF PPU:  0,  0 CYC:18183
C7AB  29 80     AND #$80                        A:00 X:FF Y:00 P:26 SP:FF PPU:  0,  0 CYC:18187
C7AD  F0 F9     BEQ $C7A8                       A:00 X:FF Y:00 P:26 SP:FF PPU:  0,  0 CYC:18189
C7A8  AD 02 20  LDA $2002 = 00                  A:00 X:FF Y:00 P:26 SP:FF PPU:  0,  0 CYC:18192
C7AB  29 80     AND #$80                        A:00 X:FF Y:00 P:26 SP:FF PPU:  0,  0 CYC:18196
C7AD  F0 F9     BEQ $C7A8                       A:00 X:FF Y:00 P:26 SP:FF PPU:  0,  0 CYC:18198
C7A8  AD 02 20  LDA $2002 = 00                  A:00 X:FF Y:00 P:26 SP:FF PPU:  0,  0 CYC:18201
C7AB  29 80     AND #$80                        A:00 X:FF Y:00 P:26 SP:FF PPU:  0,  0 CYC:18205
C7AD  F0 F9     BEQ $C7A8                       A:00 X:FF Y:00 P:26 SP:FF PPU:  0,  0 CYC:18207
C7A8  AD 02 20  LDA $2002 = 00                  A:00 X:FF Y:00 P:26 SP:FF PPU:  0,  0 CYC:18210
C7AB  29 80     AND #$80                        A:00 X:FF Y:00 P:26 SP:FF PPU:  0,  0 CYC:18214
C7AD  F0 F9     BEQ $C7A8                       A:00 X:FF Y:00 P:26 SP:FF PPU:  0,  0 CYC:18216
C7A8  AD 02 20  LDA $2002 = 00                  A:00 X:FF Y:00 P:26 SP:FF PPU:  0,  0 CYC:18219
C7AB  29 80     AND #$80                        A:00 X:FF Y:00 P:26 SP:FF PPU:  0,  0 CYC:18223
C7AD  F0 F9     BEQ $C7A8                       A:00 X:FF Y:00 P:26 SP:FF PPU:  0,  0 CYC:18225
C7A8  AD 02 20  LDA $2002 = 00                  A:00 X:FF Y:00 P:26 SP:FF PPU:  0,  0 CYC:18228
C7AB  29 80     AND #$80                        A:00 X:FF Y:00 P:26 SP:FF PPU:  0,  0 CYC:18232
C7AD  F0 F9     BEQ $C7A8                       A:00 X:FF Y:00 P:26 SP:FF PPU:  0,  0 CYC:18234
C7A8  AD 02 20  LDA $2002 = 00                  A:00 X:FF Y:00 P:26 SP:FF PPU:  0,  0 CYC:18237
C7AB  29 80     AND #$80                        A:00 X:FF Y:00 P:26 SP:FF PPU:  0,  0 CYC:18241
C7AD  F0 F9     BEQ $C7A8                       A:00 X:FF Y:00 P:26 SP:FF PPU:  0,  0 CYC:18243
C7A8  AD 02 20  LDA $2002 = 00                  A:00 X:FF Y:00 P:26 SP:FF PPU:  0,  0 CYC:18246
C7AB  29 80     AND #$80                        A:00 X:FF Y:00 P:26 SP:FF PPU:  0,  0 CYC:18250
C7AD  F0 F9     BEQ $C7A8                       A:00 X:FF Y:00 P:26 SP:FF PPU:  0,  0 CYC:18252
C7A8  AD 02 20  LDA $2002 = 00                  A:00 X:FF Y:00 P:26 SP:FF PPU:  0,  0 CYC:18255
C7AB  29 80     AND #$80                        A:00 X:FF Y:00 P:26 SP:FF PPU:  0,  0 CYC:18259
C7AD  F0 F9     BEQ $C7A8                       A:00 X:FF Y:00 P:26 SP:FF PPU:  0,  0 CYC:18261
C7A8  AD 02 20  LDA $2002 = 00                  A:00 X:FF Y:00 P:26 SP:FF PPU:  0,  0 CYC:18264
C7AB  29 80     AND #$80                        A:00 X:FF Y:00 P:26 SP:FF PPU:  0,  0 CYC:18268
C7AD  F0 F9     BEQ $C7A8                       A:00 X:FF Y:00 P:26 SP:FF PPU:  0,  0 CYC:18270
C7A8  AD 02 20  LDA $2002 = 00                  A:00 X:FF Y:00 P:26 SP:FF PPU:  0,  0 CYC:18273
C7AB  29 80     AND #$80                        A:00 X:FF Y:00 P:26 SP:FF PPU:  0,  0 CYC:18277
C7AD  F0 F9     BEQ $C7A8                       A:00 X:FF Y:00 P:26 SP:FF PPU:  0,  0 CYC:18279
C7A8  AD 02 20  LDA $2002 = 00                  A:00 X:FF Y:00 P:26 SP:FF PPU:  0,  0 CYC:18282
C7AB  29 80     AND #$80                        A:00 X:FF Y:00 P:26 SP:FF PPU:  0,  0 CYC:18286
C7AD  F0 F9     BEQ $C7A8                       A:00 X:FF Y:00 P:26 SP:FF PPU:  0,  0 CYC:18288
C7A8  AD 02 20  LDA $2002 = 00                  A:00 X:FF Y:00 P:26 SP:FF PPU:  0,  0 CYC:18291
C7AB  29 80     AND #$80                        A:00 X:FF Y:00 P:26 SP:FF PPU:  0,  0 CYC:18295
C7AD  F0 F9     BEQ $C7A8                       A:00 X:FF Y:00 P:26 SP:FF PPU:  0,  0 CYC:18297
C7A8  AD 02 20  LDA $2002 = 00                  A:00 X:FF Y:00 P:26 SP:FF PPU:  0,  0 CYC:18300
C7AB  29 80     AND #$80                        A:00 X:FF Y:00 P:26 SP:FF PPU:  0,  0 CYC:18304
C7AD  F0 F9     BEQ $C7A8                       A:00 X:FF Y:00 P:26 SP:FF PPU:  0,  0 CYC:18306
C7A8  AD 02 20  LDA $2002 = 00                  A:00 X:FF Y:00 P:26 SP:FF PPU:  0,  0 CYC:18309
C7AB  29 80     AND #$80                        A:00 X:FF Y:00 P:26 SP:FF PPU:  0,  0 CYC:18313
C7AD  F0 F9     BEQ $C7A8                       A:00 X:FF Y:00 P:26 SP:FF PPU:  0,  0 CYC:18315
C7A8  AD 02 20  LDA $2002 = 00                  A:00 X:FF Y:00 P:26 SP:FF PPU:  0,  0 CYC:18318
C7AB  29 80     AND #$80                        A:00 X:FF Y:00 P:26 SP:FF PPU:  0,  0 CYC:18322
C7AD  F0 F9     BEQ $C7A8                       A:00 X:FF Y:00 P:26 SP:FF PPU:  0,  0 CYC:18324
C7A8  AD 02 20  LDA $2002 = 00                  A:00 X:FF Y:00 P:26 SP:FF PPU:  0,  0 CYC:18327
C7AB  29 80     AND #$80                        A:00 X:FF Y:00 P:26 SP:FF PPU:  0,  0 CYC:18331
C7AD  F0 F9     BEQ $C7A8                       A:00 X:FF Y:00 P:26 SP:FF PPU:  0,  0 CYC:18333
C7A8  AD 02 20  LDA $2002 = 00                  A:00 X:FF Y:00 P:26 SP:FF PPU:  0,  0 CYC:18336
C7AB  29 80     AND #$80                        A:00 X:FF Y:00 P:26 SP:FF PPU:  0,  0 CYC:18340
C7AD  F0 F9     BEQ $C7A8                       A:00 X:FF Y:00 P:26 SP:FF PPU:  0,  0 CYC:18342
C7A8  AD 02 20  LDA $2002 = 00                  A:00 X:FF Y:00 P:26 SP:FF PPU:  0,  0 CYC:18345
C7AB  29 80     AND #$80                        A:00 X:FF Y:00 P:26 SP:FF PPU:  0,  0 CYC:18349
C7AD  F0 F9     BEQ $C7A8                       A:00 X:FF Y:00 P:26 SP:FF PPU:  0,  0 CYC:18351
C7A8  AD 02 20  LDA $2002 = 00                  A:00 X:FF Y:00 P:26 SP:FF PPU:  0,  0 CYC:18354
C7AB  29 80     AND #$80                        A:00 X:FF Y:00 P:26 SP:FF PPU:  0,  0 CYC:18358
C7AD  F0 F9     BEQ $C7A8                       A:00 X:FF Y:00 P:26 SP:FF PPU:  0,  0 CYC:18360
C7A8  AD 02 20  LDA $2002 = 00                  A:00 X:FF Y:00 P:26 SP:FF PPU:  0,  0 CYC:18363
C7AB  29 80     AND #$80                        A:00 X:FF Y:00 P:26 SP:FF PPU:  0,  0 CYC:18367
C7AD  F0 F9     BEQ $C7A8                       A:00 X:FF Y:00 P:26 SP:FF PPU:  0,  0 CYC:18369
C7A8  AD 02 20  LDA $2002 = 00                  A:00 X:FF Y:00 P:26 SP:FF PPU:  0,  0 CYC:18372
C7AB  29 80     AND #$80                        A:00 X:FF Y:00 P:26 SP:FF PPU:  0,  0 CYC:18376
C7AD  F0 F9     BEQ $C7A8                       A:00 X:FF Y:00 P:26 SP:FF PPU:  0,  0 CYC:18378
C7A8  AD 02 20  LDA $2002 = 00                  A:00 X:FF Y:00 P:26 SP:FF PPU:  0,  0 CYC:18381
C7AB  29 80     AND #$80                        A:00 X:FF Y:00 P:26 SP:FF PPU:  0,  0 CYC:18385
C7AD  F0 F9     BEQ $C7A8                       A:00 X:FF Y:00 P:26 SP:FF PPU:  0,  0 CYC:18387
C7A8  AD 02 20  LDA $2002 = 00                  A:00 X:FF Y:00 P:26 SP:FF PPU:  0,  0 CYC:18390
C7AB  29 80     AND #$80                        A:00 X:FF Y:00 P:26 SP:FF PPU:  0,  0 CYC:18394
C7AD  F0 F9     BEQ $C7A8                       A:00 X:FF Y:00 P:26 SP:FF PPU:  0,  0 CYC:18396
C7A8  AD 02 20  LDA $2002 = 00                  A:00 X:FF Y:00 P:26 SP:FF PPU:  0,  0 CYC:18399
C7AB  29 80     AND #$80                        A:00 X:FF Y:00 P:26 SP:FF PPU:  0,  0 CYC:18403
C7AD  F0 F9     BEQ $C7A8                       A:00 X:FF Y:00 P:26 SP:FF PPU:  0,  0 CYC:18405
C7A8  AD 02 20  LDA $2002 = 00                  A:00 X:FF Y:00 P:26 SP:FF PPU:  0,  0 CYC:18408
C7AB  29 80     AND #$80                        A:00 X:FF Y:00 P:26 SP:FF PPU:  0,  0 CYC:18412
C7AD  F0 F9     BEQ $C7A8                       A:00 X:FF Y:00 P:26 SP:FF PPU:  0,  0 CYC:18414
C7A8  AD 02 20  LDA $2002 = 00                  A:00 X:FF Y:00 P:26 SP:FF PPU:  0,  0 CYC:18417
C7AB  29 80     AND #$80                        A:00 X:FF Y:00 P:26 SP:FF PPU:  0,  0 CYC:18421
C7AD  F0 F9     BEQ $C7A8                       A:00 X:FF Y:00 P:26 SP:FF PPU:  0,  0 CYC:18423
C7A8  AD 02 20  LDA $2002 = 00                  A:00 X:FF Y:00 P:26 SP:FF PPU:  0,  0 CYC:18426
C7AB  29 80     AND #$80                        A:00 X:FF Y:00 P:26 SP:FF PPU:  0,  0 CYC:18430
C7AD  F0 F9     BEQ $C7A8                       A:00 X:FF Y:00 P:26 SP:FF PPU:  0,  0 CYC:18432
C7A8  AD 02 20  LDA $2002 = 00                  A:00 X:FF Y:00 P:26 SP:FF PPU:  0,  0 CYC:18435
C7AB  29 80     AND #$80                        A:00 X:FF Y:00 P:26 SP:FF PPU:  0,  0 CYC:18439
C7AD  F0 F9     BEQ $C7A8                       A:00 X:FF Y:00 P:26 SP:FF PPU:  0,  0 CYC:18441
C7A8  AD 02 20  LDA $2002 = 00                  A:00 X:FF Y:00 P:26 SP:FF PPU:  0,  0 CYC:18444
C7AB  29 80     AND #$80                        A:00 X:FF Y:00 P:26 SP:FF PPU:  0,  0 CYC:18448
C7AD  F0 F9     BEQ $C7A8                       A:00 X:FF Y:00 P:26 SP:FF PPU:  0,  0 CYC:18450
C7A8  AD 02 20  LDA $2002 = 00                  A:00 X:FF Y:00 P:26 SP:FF PPU:  0,  0 CYC:18453
C7AB  29 80     AND #$80                        A:00 X:FF Y:00 P:26 SP:FF PPU:  0,  0 CYC:18457
C7AD  F0 F9     BEQ $C7A8                       A:00 X:FF Y:00 P:26 SP:FF PPU:  0,  0 CYC:18459
C7A8  AD 02 20  LDA $2002 = 00                  A:00 X:FF Y:00 P:26 SP:FF PPU:  0,  0 CYC:18462
C7AB  29 80     AND #$80                        A:00 X:FF Y:00 P:26 SP:FF PPU:  0,  0 CYC:18466
C7AD  F0 F9     BEQ $C7A8                       A:00 X:FF Y:00 P:26 SP:FF PPU:  0,  0 CYC:18468
C7A8  AD 02 20  LDA $2002 = 00                  A:00 X:FF Y:00 P:26 SP:FF PPU:  0,  0 CYC:18471
C7AB  29 80     AND #$80                        A:00 X:FF Y:00 P:26 SP:FF PPU:  0,  0 CYC:18475
C7AD  F0 F9     BEQ $C7A8                       A:00 X:FF Y:00 P:26 SP:FF PPU:  0,  0 CYC:18477
C7A8  AD 02 20  LDA $2002 = 00                  A:00 X:FF Y:00 P:26 SP:FF PPU:  0,  0 CYC:18480
C7AB  29 80     AND #$80                        A:00 X:FF Y:00 P:26 SP:FF PPU:  0,  0 CYC:18484
C7AD  F0 F9     BEQ $C7A8                       A:00 X:FF Y:00 P:26 SP:FF PPU:  0,  0 CYC:18486
C7A8  AD 02 20  LDA $2002 = 00                  A:00 X:FF Y:00 P:26 SP:FF PPU:  0,  0 CYC:18489
C7AB  29 80     AND #$80                        A:00 X:FF Y:00 P:26 SP:FF PPU:  0,  0 CYC:18493
C7AD  F0 F9     BEQ $C7A8                       A:00 X:FF Y:00 P:26 SP:FF PPU:  0,  0 CYC:18495
C7A8  AD 02 20  LDA $2002 = 00                  A:00 X:FF Y:00 P:26 SP:FF PPU:  0,  0 CYC:18498
C7AB  29 80     AND #$80                        A:00 X:FF Y:00 P:26 SP:FF PPU:  0,  0 CYC:18502
C7AD  F0 F9     BEQ $C7A8                       A:00 X:FF Y:00 P:26 SP:FF PPU:  0,  0 CYC:18504
C7A8  AD 02 20  LDA $2002 = 00                  A:00 X:FF Y:00 P:26 SP:FF PPU:  0,  0 CYC:18507
C7AB  29 80     AND #$80                        A:00 X:FF Y:00 P:26 SP:FF PPU:  0,  0 CYC:18511
C7AD  F0 F9     BEQ $C7A8                       A:00 X:FF Y:00 P:26 SP:FF PPU:  0,  0 CYC:18513
C7A8  AD 02 20  LDA $2002 = 00                  A:00 X:FF Y:00 P:26 SP:FF PPU:  0,  0 CYC:18516
C7AB  29 80     AND #$80                        A:00 X:FF Y:00 P:26 SP:FF PPU:  0,  0 CYC:18520
C7AD  F0 F9     BEQ $C7A8                       A:00 X:FF Y:00 P:26 SP:FF PPU:  0,  0 CYC:18522
C7A8  AD 02 20  LDA $2002 = 00                  A:00 X:FF Y:00 P:26 SP:FF PPU:  0,  0 CYC:18525
C7AB  29 80     AND #$80                        A:00 X:FF Y:00 P:26 SP:FF PPU:  0,  0 CYC:18529
C7AD  F0 F9     BEQ $C7A8                       A:00 X:FF Y:00 P:26 SP:FF PPU:  0,  0 CYC:18531
C7A8  AD 02 20  LDA $2002 = 00                  A:00 X:FF Y:00 P:26 SP:FF PPU:  0,  0 CYC:18534
C7AB  29 80     AND #$80                        A:00 X:FF Y:00 P:26 SP:FF PPU:  0,  0 CYC:18538
C7AD  F0 F9     BEQ $C7A8                       A:00 X:FF Y:00 P:26 SP:FF PPU:  0,  0 CYC:18540
C7A8  AD 02 20  LDA $2002 = 00                  A:00 X:FF Y:00 P:26 SP:FF PPU:  0,  0 CYC:18543
C7AB  29 80     AND #$80                        A:00 X:FF Y:00 P:26 SP:FF PPU:  0,  0 CYC:18547
C7AD  F0 F9     BEQ $C7A8                       A:00 X:FF Y:00 P:26 SP:FF PPU:  0,  0 CYC:18549
C7A8  AD 02 20  LDA $2002 = 00                  A:00 X:FF Y:00 P:26 SP:FF PPU:  0,  0 CYC:18552
C7AB  29 80     AND #$80                        A:00 X:FF Y:00 P:26 SP:FF PPU:  0,  0 CYC:18556
C7AD  F0 F9     BEQ $C7A8                       A:00 X:FF Y:00 P:26 SP:FF PPU:  0,  0 CYC:18558
C7A8  AD 02 20  LDA $2002 = 00                  A:00 X:FF Y:00 P:26 SP:FF PPU:  0,  0 CYC:18561
C7AB  29 80     AND #$80                        A:00 X:FF Y:00 P:26 SP:FF PPU:  0,  0 CYC:18565
C7AD  F0 F9     BEQ $C7A8                       A:00 X:FF Y:00 P:26 SP:FF PPU:  0,  0 CYC:18567
C7A8  AD 02 20  LDA $2002 = 00                  A:00 X:FF Y:00 P:26 SP:FF PPU:  0,  0 CYC:18570
C7AB  29 80     AND #$80                        A:00 X:FF Y:00 P:26 SP:FF PPU:  0,  0 CYC:18574
C7AD  F0 F9     BEQ $C7A8                       A:00 X:FF Y:00 P:26 SP:FF PPU:  0,  0 CYC:18576
C7A8  AD 02 20  LDA $2002 = 00                  A:00 X:FF Y:00 P:26 SP:FF PPU:  0,  0 CYC:18579
C7AB  29 80     AND #$80                        A:00 X:FF Y:00 P:26 SP:FF PPU:  0,  0 CYC:18583
C7AD  F0 F9     BEQ $C7A8                       A:00 X:FF Y:00 P:26 SP:FF PPU:  0,  0 CYC:18585
C7A8  AD 02 20  LDA $2002 = 00                  A:00 X:FF Y:00 P:26 SP:FF PPU:  0,  0 CYC:18588
C7AB  29 80     AND #$80                        A:00 X:FF Y:00 P:26 SP:FF PPU:  0,  0 CYC:18592
C7AD  F0 F9     BEQ $C7A8                       A:00 X:FF Y:00 P:26 SP:FF PPU:  0,  0 CYC:18594
C7A8  AD 02 20  LDA $2002 = 00                  A:00 X:FF Y:00 P:26 SP:FF PPU:  0,  0 CYC:18597
C7AB  29 80     AND #$80                        A:00 X:FF Y:00 P:26 SP:FF PPU:  0,  0 CYC:18601
C7AD  F0 F9     BEQ $C7A8                       A:00 X:FF Y:00 P:26 SP:FF PPU:  0,  0 CYC:18603
C7A8  AD 02 20  LDA $2002 = 00                  A:00 X:FF Y:00 P:26 SP:FF PPU:  0,  0 CYC:18606
C7AB  29 80     AND #$80                        A:00 X:FF Y:00 P:26 SP:FF PPU:  0,  0 CYC:18610
C7AD  F0 F9     BEQ $C7A8                       A:00 X:FF Y:00 P:26 SP:FF PPU:  0,  0 CYC:18612
C7A8  AD 02 20  LDA $2002 = 00                  A:00 X:FF Y:00 P:26 SP:FF PPU:  0,  0 CYC:18615
C7AB  29 80     AND #$80                        A:00 X:FF Y:00 P:26 SP:FF PPU:  0,  0 CYC:18619
C7AD  F0 F9     BEQ $C7A8                       A:00 X:FF Y:00 P:26 SP:FF PPU:  0,  0 CYC:18621
C7A8  AD 02 20  LDA $2002 = 00                  A:00 X:FF Y:00 P:26 SP:FF PPU:  0,  0 CYC:18624
C7AB  29 80     AND #$80                        A:00 X:FF Y:00 P:26 SP:FF PPU:  0,  0 CYC:18628
C7AD  F0 F9     BEQ $C7A8                       A:00 X:FF Y:00 P:26 SP:FF PPU:  0,  0 CYC:18630
C7A8  AD 02 20  LDA $2002 = 00                  A:00 X:FF Y:00 P:26 SP:FF PPU:  0,  0 CYC:18633
C7AB  29 80     AND #$80                        A:00 X:FF Y:00 P:26 SP:FF PPU:  0,  0 CYC:18637
C7AD  F0 F9     BEQ $C7A8                       A:00 X:FF Y:00 P:26 SP:FF PPU:  0,  0 CYC:18639
C7A8  AD 02 20  LDA $2002 = 00                  A:00 X:FF Y:00 P:26 SP:FF PPU:  0,  0 CYC:18642
C7AB  29 80     AND #$80                        A:00 X:FF Y:00 P:26 SP:FF PPU:  0,  0 CYC:18646
C7AD  F0 F9     BEQ $C7A8                       A:00 X:FF Y:00 P:26 SP:FF PPU:  0,  0 CYC:18648
C7A8  AD 02 20  LDA $2002 = 00                  A:00 X:FF Y:00 P:26 SP:FF PPU:  0,  0 CYC:18651
C7AB  29 80     AND #$80                        A:00 X:FF Y:00 P:26 SP:FF PPU:  0,  0 CYC:18655
C7AD  F0 F9     BEQ $C7A8                       A:00 X:FF Y:00 P:26 SP:FF PPU:  0,  0 CYC:18657
C7A8  AD 02 20  LDA $2002 = 00                  A:00 X:FF Y:00 P:26 SP:FF PPU:  0,  0 CYC:18660
C7AB  29 80     AND #$80                        A:00 X:FF Y:00 P:26 SP:FF PPU:  0,  0 CYC:18664
C7AD  F0 F9     BEQ $C7A8                       A:00 X:FF Y:00 P:26 SP:FF PPU:  0,  0 CYC:18666
C7A8  AD 02 20  LDA $2002 = 00                  A:00 X:FF Y:00 P:26 SP:FF PPU:  0,  0 CYC:18669
C7AB  29 80     AND #$80                        A:00 X:FF Y:00 P:26 SP:FF PPU:  0,  0 CYC:18673
C7AD  F0 F9     BEQ $C7A8                       A:00 X:FF Y:00 P:26 SP:FF PPU:  0,  0 CYC:18675
C7A8  AD 02 20  LDA $2002 = 00                  A:00 X:FF Y:00 P:26 SP:FF PPU:  0,  0 CYC:18678
C7AB  29 80     AND #$80                        A:00 X:FF Y:00 P:26 SP:FF PPU:  0,  0 CYC:18682
C7AD  F0 F9     BEQ $C7A8                       A:00 X:FF Y:00 P:26 SP:FF PPU:  0,  0 CYC:18684
C7A8  AD 02 20  LDA $2002 = 00                  A:00 X:FF Y:00 P:26 SP:FF PPU:  0,  0 CYC:18687
C7AB  29 80     AND #$80                        A:00 X:FF Y:00 P:26 SP:FF PPU:  0,  0 CYC:18691
C7AD  F0 F9     BEQ $C7A8                       A:00 X:FF Y:00 P:26 SP:FF PPU:  0,  0 CYC:18693
C7A8  AD 02 20  LDA $2002 = 00                  A:00 X:FF Y:00 P:26 SP:FF PPU:  0,  0 CYC:18696
C7AB  29 80     AND #$80                        A:00 X:FF Y:00 P:26 SP:FF PPU:  0,  0 CYC:18700
C7AD  F0 F9     BEQ $C7A8                       A:00 X:FF Y:00 P:26 SP:FF PPU:  0,  0 CYC:18702
C7A8  AD 02 20  LDA $2002 = 00                  A:00 X:FF Y:00 P:26 SP:FF PPU:  0,  0 CYC:18705
C7AB  29 80     AND #$80                        A:00 X:FF Y:00 P:26 SP:FF PPU:  0,  0 CYC:18709
C7AD  F0 F9     BEQ $C7A8                       A:00 X:FF Y:00 P:26 SP:FF PPU:  0,  0 CYC:18711
C7A8  AD 02 20  LDA $2002 = 00                  A:00 X:FF Y:00 P:26 SP:FF PPU:  0,  0 CYC:18714
C7AB  29 80     AND #$80                        A:00 X:FF Y:00 P:26 SP:FF PPU:  0,  0 CYC:18718
C7AD  F0 F9     BEQ $C7A8                       A:00 X:FF Y:00 P:26 SP:FF PPU:  0,  0 CYC:18720
C7A8  AD 02 20  LDA $2002 = 00                  A:00 X:FF Y:00 P:26 SP:FF PPU:  0,  0 CYC:18723
C7AB  29 80     AND #$80                        A:00 X:FF Y:00 P:26 SP:FF PPU:  0,  0 CYC:18727
C7AD  F0 F9     BEQ $C7A8                       A:00 X:FF Y:00 P:26 SP:FF PPU:  0,  0 CYC:18729
C7A8  AD 02 20  LDA $2002 = 00                  A:00 X:FF Y:00 P:26 SP:FF PPU:  0,  0 CYC:18732
C7AB  29 80     AND #$80                        A:00 X:FF Y:00 P:26 SP:FF PPU:  0,  0 CYC:18736
C7AD  F0 F9     BEQ $C7A8                       A:00 X:FF Y:00 P:26 SP:FF PPU:  0,  0 CYC:18738
C7A8  AD 02 20  LDA $2002 = 00                  A:00 X:FF Y:00 P:26 SP:FF PPU:  0,  0 CYC:18741
C7AB  29 80     AND #$80                        A:00 X:FF Y:00 P:26 SP:FF PPU:  0,  0 CYC:18745
C7AD  F0 F9     BEQ $C7A8                       A:00 X:FF Y:00 P:26 SP:FF PPU:  0,  0 CYC:18747
C7A8  AD 02 20  LDA $2002 = 00                  A:00 X:FF Y:00 P:26 SP:FF PPU:  0,  0 CYC:18750
C7AB  29 80     AND #$80                        A:00 X:FF Y:00 P:26 SP:FF PPU:  0,  0 CYC:18754
C7AD  F0 F9     BEQ $C7A8                       A:00 X:FF Y:00 P:26 SP:FF PPU:  0,  0 CYC:18756
C7A8  AD 02 20  LDA $2002 = 00                  A:00 X:FF Y:00 P:26 SP:FF PPU:  0,  0 CYC:18759
C7AB  29 80     AND #$80                        A:00 X:FF Y:00 P:26 SP:FF PPU:  0,  0 CYC:18763
C7AD  F0 F9     BEQ $C7A8                       A:00 X:FF Y:00 P:26 SP:FF PPU:  0,  0 CYC:18765
C7A8  AD 02 20  LDA $2002 = 00                  A:00 X:FF Y:00 P:26 SP:FF PPU:  0,  0 CYC:18768
C7AB  29 80     AND #$80                        A:00 X:FF Y:00 P:26 SP:FF PPU:  0,  0 CYC:18772
C7AD  F0 F9     BEQ $C7A8                       A:00 X:FF Y:00 P:26 SP:FF PPU:  0,  0 CYC:18774
C7A8  AD 02 20  LDA $2002 = 00                  A:00 X:FF Y:00 P:26 SP:FF PPU:  0,  0 CYC:18777
C7AB  29 80     AND #$80                        A:00 X:FF Y:00 P:26 SP:FF PPU:  0,  0 CYC:18781
C7AD  F0 F9     BEQ $C7A8                       A:00 X:FF Y:00 P:26 SP:FF PPU:  0,  0 CYC:18783
C7A8  AD 02 20  LDA $2002 = 00                  A:00 X:FF Y:00 P:26 SP:FF PPU:  0,  0 CYC:18786
C7AB  29 80     AND #$80                        A:00 X:FF Y:00 P:26 SP:FF PPU:  0,  0 CYC:18790
C7AD  F0 F9     BEQ $C7A8                       A:00 X:FF Y:00 P:26 SP:FF PPU:  0,  0 CYC:18792
C7A8  AD 02 20  LDA $2002 = 00                  A:00 X:FF Y:00 P:26 SP:FF PPU:  0,  0 CYC:18795
C7AB  29 80     AND #$80                        A:00 X:FF Y:00 P:26 SP:FF PPU:  0,  0 CYC:18799
C7AD  F0 F9     BEQ $C7A8                       A:00 X:FF Y:00 P:26 SP:FF PPU:  0,  0 CYC:18801
C7A8  AD 02 20  LDA $2002 = 00                  A:00 X:FF Y:00 P:26 SP:FF PPU:  0,  0 CYC:18804
C7AB  29 80     AND #$80                        A:00 X:FF Y:00 P:26 SP:FF PPU:  0,  0 CYC:18808
C7AD  F0 F9     BEQ $C7A8                       A:00 X:FF Y:00 P:26 SP:FF PPU:  0,  0 CYC:18810
C7A8  AD 02 20  LDA $2002 = 00                  A:00 X:FF Y:00 P:26 SP:FF PPU:  0,  0 CYC:18813
C7AB  29 80     AND #$80                        A:00 X:FF Y:00 P:26 SP:FF PPU:  0,  0 CYC:18817
C7AD  F0 F9     BEQ $C7A8                       A:00 X:FF Y:00 P:26 SP:FF PPU:  0,  0 CYC:18819
C7A8  AD 02 20  LDA $2002 = 00                  A:00 X:FF Y:00 P:26 SP:FF PPU:  0,  0 CYC:18822
C7AB  29 80     AND #$80                        A:00 X:FF Y:00 P:26 SP:FF PPU:  0,  0 CYC:18826
C7AD  F0 F9     BEQ $C7A8                       A:00 X:FF Y:00 P:26 SP:FF PPU:  0,  0 CYC:18828
C7A8  AD 02 20  LDA $2002 = 00                  A:00 X:FF Y:00 P:26 SP:FF PPU:  0,  0 CYC:18831
C7AB  29 80     AND #$80                        A:00 X:FF Y:00 P:26 SP:FF PPU:  0,  0 CYC:18835
C7AD  F0 F9     BEQ $C7A8                       A:00 X:FF Y:00 P:26 SP:FF PPU:  0,  0 CYC:18837
C7A8  AD 02 20  LDA $2002 = 00                  A:00 X:FF Y:00 P:26 SP:FF PPU:  0,  0 CYC:18840
C7AB  29 80     AND #$80                        A:00 X:FF Y:00 P:26 SP:FF PPU:  0,  0 CYC:18844
C7AD  F0 F9     BEQ $C7A8                       A:00 X:FF Y:00 P:26 SP:FF PPU:  0,  0 CYC:18846
C7A8  AD 02 20  LDA $2002 = 00                  A:00 X:FF Y:00 P:26 SP:FF PPU:  0,  0 CYC:18849
C7AB  29 80     AND #$80                        A:00 X:FF Y:00 P:26 SP:FF PPU:  0,  0 CYC:18853
C7AD  F0 F9     BEQ $C7A8                       A:00 X:FF Y:00 P:26 SP:FF PPU:  0,  0 CYC:18855
C7A8  AD 02 20  LDA $2002 = 00                  A:00 X:FF Y:00 P:26 SP:FF PPU:  0,  0 CYC:18858
C7AB  29 80     AND #$80                        A:00 X:FF Y:00 P:26 SP:FF PPU:  0,  0 CYC:18862
C7AD  F0 F9     BEQ $C7A8                       A:00 X:FF Y:00 P:26 SP:FF PPU:  0,  0 CYC:18864
C7A8  AD 02 20  LDA $2002 = 00                  A:00 X:FF Y:00 P:26 SP:FF PPU:  0,  0 CYC:18867
C7AB  29 80     AND #$80                        A:00 X:FF Y:00 P:26 SP:FF PPU:  0,  0 CYC:18871
C7AD  F0 F9     BEQ $C7A8                       A:00 X:FF Y:00 P:26 SP:FF PPU:  0,  0 CYC:18873
C7A8  AD 02 20  LDA $2002 = 00                  A:00 X:FF Y:00 P:26 SP:FF PPU:  0,  0 CYC:18876
C7AB  29 80     AND #$80                        A:00 X:FF Y:00 P:26 SP:FF PPU:  0,  0 CYC:18880
C7AD  F0 F9     BEQ $C7A8                       A:00 X:FF Y:00 P:26 SP:FF PPU:  0,  0 CYC:18882
C7A8  AD 02 20  LDA $2002 = 00                  A:00 X:FF Y:00 P:26 SP:FF PPU:  0,  0 CYC:18885
C7AB  29 80     AND #$80                        A:00 X:FF Y:00 P:26 SP:FF PPU:  0,  0 CYC:18889
C7AD  F0 F9     BEQ $C7A8                       A:00 X:FF Y:00 P:26 SP:FF PPU:  0,  0 CYC:18891
C7A8  AD 02 20  LDA $2002 = 00                  A:00 X:FF Y:00 P:26 SP:FF PPU:  0,  0 CYC:18894
C7AB  29 80     AND #$80                        A:00 X:FF Y:00 P:26 SP:FF PPU:  0,  0 CYC:18898
C7AD  F0 F9     BEQ $C7A8                       A:00 X:FF Y:00 P:26 SP:FF PPU:  0,  0 CYC:18900
C7A8  AD 02 20  LDA $2002 = 00                  A:00 X:FF Y:00 P:26 SP:FF PPU:  0,  0 CYC:18903
C7AB  29 80     AND #$80                        A:00 X:FF Y:00 P:26 SP:FF PPU:  0,  0 CYC:18907
C7AD  F0 F9     BEQ $C7A8                       A:00 X:FF Y:00 P:26 SP:FF PPU:  0,  0 CYC:18909
C7A8  AD 02 20  LDA $2002 = 00                  A:00 X:FF Y:00 P:26 SP:FF PPU:  0,  0 CYC:18912
C7AB  29 80     AND #$80                        A:00 X:FF Y:00 P:26 SP:FF PPU:  0,  0 CYC:18916
C7AD  F0 F9     BEQ $C7A8                       A:00 X:FF Y:00 P:26 SP:FF PPU:  0,  0 CYC:18918
C7A8  AD 02 20  LDA $2002 = 00                  A:00 X:FF Y:00 P:26 SP:FF PPU:  0,  0 CYC:18921
C7AB  29 80     AND #$80                        A:00 X:FF Y:00 P:26 SP:FF PPU:  0,  0 CYC:18925
C7AD  F0 F9     BEQ $C7A8                       A:00 X:FF Y:00 P:26 SP:FF PPU:  0,  0 CYC:18927
C7A8  AD 02 20  LDA $2002 = 00                  A:00 X:FF Y:00 P:26 SP:FF PPU:  0,  0 CYC:18930
C7AB  29 80     AND #$80                        A:00 X:FF Y:00 P:26 SP:FF PPU:  0,  0 CYC:18934
C7AD  F0 F9     BEQ $C7A8                       A:00 X:FF Y:00 P:26 SP:FF PPU:  0,  0 CYC:18936
C7A8  AD 02 20  LDA $2002 = 00                  A:00 X:FF Y:00 P:26 SP:FF PPU:  0,  0 CYC:18939
C7AB  29 80     AND #$80                        A:00 X:FF Y:00 P:26 SP:FF PPU:  0,  0 CYC:18943
C7AD  F0 F9     BEQ $C7A8                       A:00 X:FF Y:00 P:26 SP:FF PPU:  0,  0 CYC:18945
C7A8  AD 02 20  LDA $2002 = 00                  A:00 X:FF Y:00 P:26 SP:FF PPU:  0,  0 CYC:18948
C7AB  29 80     AND #$80                        A:00 X:FF Y:00 P:26 SP:FF PPU:  0,  0 CYC:18952
C7AD  F0 F9     BEQ $C7A8                       A:00 X:FF Y:00 P:26 SP:FF PPU:  0,  0 CYC:18954
C7A8  AD 02 20  LDA $2002 = 00                  A:00 X:FF Y:00 P:26 SP:FF PPU:  0,  0 CYC:18957
C7AB  29 80     AND #$80                        A:00 X:FF Y:00 P:26 SP:FF PPU:  0,  0 CYC:18961
C7AD  F0 F9     BEQ $C7A8                       A:00 X:FF Y:00 P:26 SP:FF PPU:  0,  0 CYC:18963
C7A8  AD 02 20  LDA $2002 = 00                  A:00 X:FF Y:00 P:26 SP:FF PPU:  0,  0 CYC:18966
C7AB  29 80     AND #$80                        A:00 X:FF Y:00 P:26 SP:FF PPU:  0,  0 CYC:18970
C7AD  F0 F9     BEQ $C7A8                       A:00 X:FF Y:00 P:26 SP:FF PPU:  0,  0 CYC:18972
C7A8  AD 02 20  LDA $2002 = 00                  A:00 X:FF Y:00 P:26 SP:FF PPU:  0,  0 CYC:18975
C7AB  29 80     AND #$80                        A:00 X:FF Y:00 P:26 SP:FF PPU:  0,  0 CYC:18979
C7AD  F0 F9     BEQ $C7A8                       A:00 X:FF Y:00 P:26 SP:FF PPU:  0,  0 CYC:18981
C7A8  AD 02 20  LDA $2002 = 00                  A:00 X:FF Y:00 P:26 SP:FF PPU:  0,  0 CYC:18984
C7AB  29 80     AND #$80                        A:00 X:FF Y:00 P:26 SP:FF PPU:  0,  0 CYC:18988
C7AD  F0 F9     BEQ $C7A8                       A:00 X:FF Y:00 P:26 SP:FF PPU:  0,  0 CYC:18990
C7A8  AD 02 20  LDA $2002 = 00                  A:00 X:FF Y:00 P:26 SP:FF PPU:  0,  0 CYC:18993
C7AB  29 80     AND #$80                        A:00 X:FF Y:00 P:26 SP:FF PPU:  0,  0 CYC:18997
C7AD  F0 F9     BEQ $C7A8                       A:00 X:FF Y:00 P:26 SP:FF PPU:  0,  0 CYC:18999
C7A8  AD 02 20  LDA $2002 = 00                  A:00 X:FF Y:00 P:26 SP:FF PPU:  0,  0 CYC:19002
C7AB  29 80     AND #$80                        A:00 X:FF Y:00 P:26 SP:FF PPU:  0,  0 CYC:19006
C7AD  F0 F9     BEQ $C7A8                       A:00 X:FF Y:00 P:26 SP:FF PPU:  0,  0 CYC:19008
C7A8  AD 02 20  LDA $2002 = 00                  A:00 X:FF Y:00 P:26 SP:FF PPU:  0,  0 CYC:19011
C7AB  29 80     AND #$80                        A:00 X:FF Y:00 P:26 SP:FF PPU:  0,  0 CYC:19015
C7AD  F0 F9     BEQ $C7A8                       A:00 X:FF Y:00 P:26 SP:FF PPU:  0,  0 CYC:19017
C7A8  AD 02 20  LDA $2002 = 00                  A:00 X:FF Y:00 P:26 SP:FF PPU:  0,  0 CYC:19020
C7AB  29 80     AND #$80                        A:00 X:FF Y:00 P:26 SP:FF PPU:  0,  0 CYC:19024
C7AD  F0 F9     BEQ $C7A8                       A:00 X:FF Y:00 P:26 SP:FF PPU:  0,  0 CYC:19026
C7A8  AD 02 20  LDA $2002 = 00                  A:00 X:FF Y:00 P:26 SP:FF PPU:  0,  0 CYC:19029
C7AB  29 80     AND #$80                        A:00 X:FF Y:00 P:26 SP:FF PPU:  0,  0 CYC:19033
C7AD  F0 F9     BEQ $C7A8                       A:00 X:FF Y:00 P:26 SP:FF PPU:  0,  0 CYC:19035
C7A8  AD 02 20  LDA $2002 = 00                  A:00 X:FF Y:00 P:26 SP:FF PPU:  0,  0 CYC:19038
C7AB  29 80     AND #$80                        A:00 X:FF Y:00 P:26 SP:FF PPU:  0,  0 CYC:19042
C7AD  F0 F9     BEQ $C7A8                       A:00 X:FF Y:00 P:26 SP:FF PPU:  0,  0 CYC:19044
C7A8  AD 02 20  LDA $2002 = 00                  A:00 X:FF Y:00 P:26 SP:FF PPU:  0,  0 CYC:19047
C7AB  29 80     AND #$80                        A:00 X:FF Y:00 P:26 SP:FF PPU:  0,  0 CYC:19051
C7AD  F0 F9     BEQ $C7A8                       A:00 X:FF Y:00 P:26 SP:FF PPU:  0,  0 CYC:19053
C7A8  AD 02 20  LDA $2002 = 00                  A:00 X:FF Y:00 P:26 SP:FF PPU:  0,  0 CYC:19056
C7AB  29 80     AND #$80                        A:00 X:FF Y:00 P:26 SP:FF PPU:  0,  0 CYC:19060
C7AD  F0 F9     BEQ $C7A8                       A:00 X:FF Y:00 P:26 SP:FF PPU:  0,  0 CYC:19062
C7A8  AD 02 20  LDA $2002 = 00                  A:00 X:FF Y:00 P:26 SP:FF PPU:  0,  0 CYC:19065
C7AB  29 80     AND #$80                        A:00 X:FF Y:00 P:26 SP:FF PPU:  0,  0 CYC:19069
C7AD  F0 F9     BEQ $C7A8                       A:00 X:FF Y:00 P:26 SP:FF PPU:  0,  0 CYC:19071
C7A8  AD 02 20  LDA $2002 = 00                  A:00 X:FF Y:00 P:26 SP:FF PPU:  0,  0 CYC:19074
C7AB  29 80     AND #$80                        A:00 X:FF Y:00 P:26 SP:FF PPU:  0,  0 CYC:19078
C7AD  F0 F9     BEQ $C7A8                       A:00 X:FF Y:00 P:26 SP:FF PPU:  0,  0 CYC:19080
C7A8  AD 02 20  LDA $2002 = 00                  A:00 X:FF Y:00 P:26 SP:FF PPU:  0,  0 CYC:19083
C7AB  29 80     AND #$80                        A:00 X:FF Y:00 P:26 SP:FF PPU:  0,  0 CYC:19087
C7AD  F0 F9     BEQ $C7A8                       A:00 X:FF Y:00 P:26 SP:FF PPU:  0,  0 CYC:19089
C7A8  AD 02 20  LDA $2002 = 00                  A:00 X:FF Y:00 P:26 SP:FF PPU:  0,  0 CYC:19092
C7AB  29 80     AND #$80                        A:00 X:FF Y:00 P:26 SP:FF PPU:  0,  0 CYC:19096
C7AD  F0 F9     BEQ $C7A8                       A:00 X:FF Y:00 P:26 SP:FF PPU:  0,  0 CYC:19098
C7A8  AD 02 20  LDA $2002 = 00                  A:00 X:FF Y:00 P:26 SP:FF PPU:  0,  0 CYC:19101
C7AB  29 80     AND #$80                        A:00 X:FF Y:00 P:26 SP:FF PPU:  0,  0 CYC:19105
C7AD  F0 F9     BEQ $C7A8                       A:00 X:FF Y:00 P:26 SP:FF PPU:  0,  0 CYC:19107
C7A8  AD 02 20  LDA $2002 = 00                  A:00 X:FF Y:00 P:26 SP:FF PPU:  0,  0 CYC:19110
C7AB  29 80     AND #$80                        A:00 X:FF Y:00 P:26 SP:FF PPU:  0,  0 CYC:19114
C7AD  F0 F9     BEQ $C7A8                       A:00 X:FF Y:00 P:26 SP:FF PPU:  0,  0 CYC:19116
C7A8  AD 02 20  LDA $2002 = 00                  A:00 X:FF Y:00 P:26 SP:FF PPU:  0,  0 CYC:19119
C7AB  29 80     AND #$80                        A:00 X:FF Y:00 P:26 SP:FF PPU:  0,  0 CYC:19123
C7AD  F0 F9     BEQ $C7A8                       A:00 X:FF Y:00 P:26 SP:FF PPU:  0,  0 CYC:19125
C7A8  AD 02 20  LDA $2002 = 00                  A:00 X:FF Y:00 P:26 SP:FF PPU:  0,  0 CYC:19128
C7AB  29 80     AND #$80                        A:00 X:FF Y:00 P:26 SP:FF PPU:  0,  0 CYC:19132
C7AD  F0 F9     BEQ $C7A8                       A:00 X:FF Y:00 P:26 SP:FF PPU:  0,  0 CYC:19134
C7A8  AD 02 20  LDA $2002 = 00                  A:00 X:FF Y:00 P:26 SP:FF PPU:  0,  0 CYC:19137
C7AB  29 80     AND #$80                        A:00 X:FF Y:00 P:26 SP:FF PPU:  0,  0 CYC:19141
C7AD  F0 F9     BEQ $C7A8                       A:00 X:FF Y:00 P:26 SP:FF PPU:  0,  0 CYC:19143
C7A8  AD 02 20  LDA $2002 = 00                  A:00 X:FF Y:00 P:26 SP:FF PPU:  0,  0 CYC:19146
C7AB  29 80     AND #$80                        A:00 X:FF Y:00 P:26 SP:FF PPU:  0,  0 CYC:19150
C7AD  F0 F9     BEQ $C7A8                       A:00 X:FF Y:00 P:26 SP:FF PPU:  0,  0 CYC:19152
C7A8  AD 02 20  LDA $2002 = 00                  A:00 X:FF Y:00 P:26 SP:FF PPU:  0,  0 CYC:19155
C7AB  29 80     AND #$80                        A:00 X:FF Y:00 P:26 SP:FF PPU:  0,  0 CYC:19159
C7AD  F0 F9     BEQ $C7A8                       A:00 X:FF Y:00 P:26 SP:FF PPU:  0,  0 CYC:19161
C7A8  AD 02 20  LDA $2002 = 00                  A:00 X:FF Y:00 P:26 SP:FF PPU:  0,  0 CYC:19164
C7AB  29 80     AND #$80                        A:00 X:FF Y:00 P:26 SP:FF PPU:  0,  0 CYC:19168
C7AD  F0 F9     BEQ $C7A8                       A:00 X:FF Y:00 P:26 SP:FF PPU:  0,  0 CYC:19170
C7A8  AD 02 20  LDA $2002 = 00                  A:00 X:FF Y:00 P:26 SP:FF PPU:  0,  0 CYC:19173
C7AB  29 80     AND #$80                        A:00 X:FF Y:00 P:26 SP:FF PPU:  0,  0 CYC:19177
C7AD  F0 F9     BEQ $C7A8                       A:00 X:FF Y:00 P:26 SP:FF PPU:  0,  0 CYC:19179
C7A8  AD 02 20  LDA $2002 = 00                  A:00 X:FF Y:00 P:26 SP:FF PPU:  0,  0 CYC:19182
C7AB  29 80     AND #$80                        A:00 X:FF Y:00 P:26 SP:FF PPU:  0,  0 CYC:19186
C7AD  F0 F9     BEQ $C7A8                       A:00 X:FF Y:00 P:26 SP:FF PPU:  0,  0 CYC:19188
C7A8  AD 02 20  LDA $2002 = 00                  A:00 X:FF Y:00 P:26 SP:FF PPU:  0,  0 CYC:19191
C7AB  29 80     AND #$80                        A:00 X:FF Y:00 P:26 SP:FF PPU:  0,  0 CYC:19195
C7AD  F0 F9     BEQ $C7A8                       A:00 X:FF Y:00 P:26 SP:FF PPU:  0,  0 CYC:19197
C7A8  AD 02 20  LDA $2002 = 00                  A:00 X:FF Y:00 P:26 SP:FF PPU:  0,  0 CYC:19200
C7AB  29 80     AND #$80                        A:00 X:FF Y:00 P:26 SP:FF PPU:  0,  0 CYC:19204
C7AD  F0 F9     BEQ $C7A8                       A:00 X:FF Y:00 P:26 SP:FF PPU:  0,  0 CYC:19206
C7A8  AD 02 20  LDA $2002 = 00                  A:00 X:FF Y:00 P:26 SP:FF PPU:  0,  0 CYC:19209
C7AB  29 80     AND #$80                        A:00 X:FF Y:00 P:26 SP:FF PPU:  0,  0 CYC:19213
C7AD  F0 F9     BEQ $C7A8                       A:00 X:FF Y:00 P:26 SP:FF PPU:  0,  0 CYC:19215
C7A8  AD 02 20  LDA $2002 = 00                  A:00 X:FF Y:00 P:26 SP:FF PPU:  0,  0 CYC:19218
C7AB  29 80     AND #$80                        A:00 X:FF Y:00 P:26 SP:FF PPU:  0,  0 CYC:19222
C7AD  F0 F9     BEQ $C7A8                       A:00 X:FF Y:00 P:26 SP:FF PPU:  0,  0 CYC:19224
C7A8  AD 02 20  LDA $2002 = 00                  A:00 X:FF Y:00 P:26 SP:FF PPU:  0,  0 CYC:19227
C7AB  29 80     AND #$80                        A:00 X:FF Y:00 P:26 SP:FF PPU:  0,  0 CYC:19231
C7AD  F0 F9     BEQ $C7A8                       A:00 X:FF Y:00 P:26 SP:FF PPU:  0,  0 CYC:19233
C7A8  AD 02 20  LDA $2002 = 00                  A:00 X:FF Y:00 P:26 SP:FF PPU:  0,  0 CYC:19236
C7AB  29 80     AND #$80                        A:00 X:FF Y:00 P:26 SP:FF PPU:  0,  0 CYC:19240
C7AD  F0 F9     BEQ $C7A8                       A:00 X:FF Y:00 P:26 SP:FF PPU:  0,  0 CYC:19242
C7A8  AD 02 20  LDA $2002 = 00                  A:00 X:FF Y:00 P:26 SP:FF PPU:  0,  0 CYC:19245
C7AB  29 80     AND #$80                        A:00 X:FF Y:00 P:26 SP:FF PPU:  0,  0 CYC:19249
C7AD  F0 F9     BEQ $C7A8                       A:00 X:FF Y:00 P:26 SP:FF PPU:  0,  0 CYC:19251
C7A8  AD 02 20  LDA $2002 = 00                  A:00 X:FF Y:00 P:26 SP:FF PPU:  0,  0 CYC:19254
C7AB  29 80     AND #$80                        A:00 X:FF Y:00 P:26 SP:FF PPU:  0,  0 CYC:19258
C7AD  F0 F9     BEQ $C7A8                       A:00 X:FF Y:00 P:26 SP:FF PPU:  0,  0 CYC:19260
C7A8  AD 02 20  LDA $2002 = 00                  A:00 X:FF Y:00 P:26 SP:FF PPU:  0,  0 CYC:19263
C7AB  29 80     AND #$80                        A:00 X:FF Y:00 P:26 SP:FF PPU:  0,  0 CYC:19267
C7AD  F0 F9     BEQ $C7A8                       A:00 X:FF Y:00 P:26 SP:FF PPU:  0,  0 CYC:19269
C7A8  AD 02 20  LDA $2002 = 00                  A:00 X:FF Y:00 P:26 SP:FF PPU:  0,  0 CYC:19272
C7AB  29 80     AND #$80                        A:00 X:FF Y:00 P:26 SP:FF PPU:  0,  0 CYC:19276
C7AD  F0 F9     BEQ $C7A8                       A:00 X:FF Y:00 P:26 SP:FF PPU:  0,  0 CYC:19278
C7A8  AD 02 20  LDA $2002 = 00                  A:00 X:FF Y:00 P:26 SP:FF PPU:  0,  0 CYC:19281
C7AB  29 80     AND #$80                        A:00 X:FF Y:00 P:26 SP:FF PPU:  0,  0 CYC:19285
C7AD  F0 F9     BEQ $C7A8                       A:00 X:FF Y:00 P:26 SP:FF PPU:  0,  0 CYC:19287
C7A8  AD 02 20  LDA $2002 = 00                  A:00 X:FF Y:00 P:26 SP:FF PPU:  0,  0 CYC:19290
C7AB  29 80     AND #$80                        A:00 X:FF Y:00 P:26 SP:FF PPU:  0,  0 CYC:19294
C7AD  F0 F9     BEQ $C7A8                       A:00 X:FF Y:00 P:26 SP:FF PPU:  0,  0 CYC:19296
C7A8  AD 02 20  LDA $2002 = 00                  A:00 X:FF Y:00 P:26 SP:FF PPU:  0,  0 CYC:19299
C7AB  29 80     AND #$80                        A:00 X:FF Y:00 P:26 SP:FF PPU:  0,  0 CYC:19303
C7AD  F0 F9     BEQ $C7A8                       A:00 X:FF Y:00 P:26 SP:FF PPU:  0,  0 CYC:19305
C7A8  AD 02 20  LDA $2002 = 00                  A:00 X:FF Y:00 P:26 SP:FF PPU:  0,  0 CYC:19308
C7AB  29 80     AND #$80                        A:00 X:FF Y:00 P:26 SP:FF PPU:  0,  0 CYC:19312
C7AD  F0 F9     BEQ $C7A8                       A:00 X:FF Y:00 P:26 SP:FF PPU:  0,  0 CYC:19314
C7A8  AD 02 20  LDA $2002 = 00                  A:00 X:FF Y:00 P:26 SP:FF PPU:  0,  0 CYC:19317
C7AB  29 80     AND #$80                        A:00 X:FF Y:00 P:26 SP:FF PPU:  0,  0 CYC:19321
C7AD  F0 F9     BEQ $C7A8                       A:00 X:FF Y:00 P:26 SP:FF PPU:  0,  0 CYC:19323
C7A8  AD 02 20  LDA $2002 = 00                  A:00 X:FF Y:00 P:26 SP:FF PPU:  0,  0 CYC:19326
C7AB  29 80     AND #$80                        A:00 X:FF Y:00 P:26 SP:FF PPU:  0,  0 CYC:19330
C7AD  F0 F9     BEQ $C7A8                       A:00 X:FF Y:00 P:26 SP:FF PPU:  0,  0 CYC:19332
C7A8  AD 02 20  LDA $2002 = 00                  A:00 X:FF Y:00 P:26 SP:FF PPU:  0,  0 CYC:19335
C7AB  29 80     AND #$80                        A:00 X:FF Y:00 P:26 SP:FF PPU:  0,  0 CYC:19339
C7AD  F0 F9     BEQ $C7A8                       A:00 X:FF Y:00 P:26 SP:FF PPU:  0,  0 CYC:19341
C7A8  AD 02 20  LDA $2002 = 00                  A:00 X:FF Y:00 P:26 SP:FF PPU:  0,  0 CYC:19344
C7AB  29 80     AND #$80                        A:00 X:FF Y:00 P:26 SP:FF PPU:  0,  0 CYC:19348
C7AD  F0 F9     BEQ $C7A8                       A:00 X:FF Y:00 P:26 SP:FF PPU:  0,  0 CYC:19350
C7A8  AD 02 20  LDA $2002 = 00                  A:00 X:FF Y:00 P:26 SP:FF PPU:  0,  0 CYC:19353
C7AB  29 80     AND #$80                        A:00 X:FF Y:00 P:26 SP:FF PPU:  0,  0 CYC:19357
C7AD  F0 F9     BEQ $C7A8                       A:00 X:FF Y:00 P:26 SP:FF PPU:  0,  0 CYC:19359
C7A8  AD 02 20  LDA $2002 = 00                  A:00 X:FF Y:00 P:26 SP:FF PPU:  0,  0 CYC:19362
C7AB  29 80     AND #$80                        A:00 X:FF Y:00 P:26 SP:FF PPU:  0,  0 CYC:19366
C7AD  F0 F9     BEQ $C7A8                       A:00 X:FF Y:00 P:26 SP:FF PPU:  0,  0 CYC:19368
C7A8  AD 02 20  LDA $2002 = 00                  A:00 X:FF Y:00 P:26 SP:FF PPU:  0,  0 CYC:19371
C7AB  29 80     AND #$80                        A:00 X:FF Y:00 P:26 SP:FF PPU:  0,  0 CYC:19375
C7AD  F0 F9     BEQ $C7A8                       A:00 X:FF Y:00 P:26 SP:FF PPU:  0,  0 CYC:19377
C7A8  AD 02 20  LDA $2002 = 00                  A:00 X:FF Y:00 P:26 SP:FF PPU:  0,  0 CYC:19380
C7AB  29 80     AND #$80                        A:00 X:FF Y:00 P:26 SP:FF PPU:  0,  0 CYC:19384
C7AD  F0 F9     BEQ $C7A8                       A:00 X:FF Y:00 P:26 SP:FF PPU:  0,  0 CYC:19386
C7A8  AD 02 20  LDA $2002 = 00                  A:00 X:FF Y:00 P:26 SP:FF PPU:  0,  0 CYC:19389
C7AB  29 80     AND #$80                        A:00 X:FF Y:00 P:26 SP:FF PPU:  0,  0 CYC:19393
C7AD  F0 F9     BEQ $C7A8                       A:00 X:FF Y:00 P:26 SP:FF PPU:  0,  0 CYC:19395
C7A8  AD 02 20  LDA $2002 = 00                  A:00 X:FF Y:00 P:26 SP:FF PPU:  0,  0 CYC:19398
C7AB  29 80     AND #$80                        A:00 X:FF Y:00 P:26 SP:FF PPU:  0,  0 CYC:19402
C7AD  F0 F9     BEQ $C7A8                       A:00 X:FF Y:00 P:26 SP:FF PPU:  0,  0 CYC:19404
C7A8  AD 02 20  LDA $2002 = 00                  A:00 X:FF Y:00 P:26 SP:FF PPU:  0,  0 CYC:19407
C7AB  29 80     AND #$80                        A:00 X:FF Y:00 P:26 SP:FF PPU:  0,  0 CYC:19411
C7AD  F0 F9     BEQ $C7A8                       A:00 X:FF Y:00 P:26 SP:FF PPU:  0,  0 CYC:19413
C7A8  AD 02 20  LDA $2002 = 00                  A:00 X:FF Y:00 P:26 SP:FF PPU:  0,  0 CYC:19416
C7AB  29 80     AND #$80                        A:00 X:FF Y:00 P:26 SP:FF PPU:  0,  0 CYC:19420
C7AD  F0 F9     BEQ $C7A8                       A:00 X:FF Y:00 P:26 SP:FF PPU:  0,  0 CYC:19422
C7A8  AD 02 20  LDA $2002 = 00                  A:00 X:FF Y:00 P:26 SP:FF PPU:  0,  0 CYC:19425
C7AB  29 80     AND #$80                        A:00 X:FF Y:00 P:26 SP:FF PPU:  0,  0 CYC:19429
C7AD  F0 F9     BEQ $C7A8                       A:00 X:FF Y:00 P:26 SP:FF PPU:  0,  0 CYC:19431
C7A8  AD 02 20  LDA $2002 = 00                  A:00 X:FF Y:00 P:26 SP:FF PPU:  0,  0 CYC:19434
C7AB  29 80     AND #$80                        A:00 X:FF Y:00 P:26 SP:FF PPU:  0,  0 CYC:19438
C7AD  F0 F9     BEQ $C7A8                       A:00 X:FF Y:00 P:26 SP:FF PPU:  0,  0 CYC:19440
C7A8  AD 02 20  LDA $2002 = 00                  A:00 X:FF Y:00 P:26 SP:FF PPU:  0,  0 CYC:19443
C7AB  29 80     AND #$80                        A:00 X:FF Y:00 P:26 SP:FF PPU:  0,  0 CYC:19447
C7AD  F0 F9     BEQ $C7A8                       A:00 X:FF Y:00 P:26 SP:FF PPU:  0,  0 CYC:19449
C7A8  AD 02 20  LDA $2002 = 00                  A:00 X:FF Y:00 P:26 SP:FF PPU:  0,  0 CYC:19452
C7AB  29 80     AND #$80                        A:00 X:FF Y:00 P:26 SP:FF PPU:  0,  0 CYC:19456
C7AD  F0 F9     BEQ $C7A8                       A:00 X:FF Y:00 P:26 SP:FF PPU:  0,  0 CYC:19458
C7A8  AD 02 20  LDA $2002 = 00                  A:00 X:FF Y:00 P:26 SP:FF PPU:  0,  0 CYC:19461
C7AB  29 80     AND #$80                        A:00 X:FF Y:00 P:26 SP:FF PPU:  0,  0 CYC:19465
C7AD  F0 F9     BEQ $C7A8                       A:00 X:FF Y:00 P:26 SP:FF PPU:  0,  0 CYC:19467
C7A8  AD 02 20  LDA $2002 = 00                  A:00 X:FF Y:00 P:26 SP:FF PPU:  0,  0 CYC:19470
C7AB  29 80     AND #$80                        A:00 X:FF Y:00 P:26 SP:FF PPU:  0,  0 CYC:19474
C7AD  F0 F9     BEQ $C7A8                       A:00 X:FF Y:00 P:26 SP:FF PPU:  0,  0 CYC:19476
C7A8  AD 02 20  LDA $2002 = 00                  A:00 X:FF Y:00 P:26 SP:FF PPU:  0,  0 CYC:19479
C7AB  29 80     AND #$80                        A:00 X:FF Y:00 P:26 SP:FF PPU:  0,  0 CYC:19483
C7AD  F0 F9     BEQ $C7A8                       A:00 X:FF Y:00 P:26 SP:FF PPU:  0,  0 CYC:19485
C7A8  AD 02 20  LDA $2002 = 00                  A:00 X:FF Y:00 P:26 SP:FF PPU:  0,  0 CYC:19488
C7AB  29 80     AND #$80                        A:00 X:FF Y:00 P:26 SP:FF PPU:  0,  0 CYC:19492
C7AD  F0 F9     BEQ $C7A8                       A:00 X:FF Y:00 P:26 SP:FF PPU:  0,  0 CYC:19494
C7A8  AD 02 20  LDA $2002 = 00                  A:00 X:FF Y:00 P:26 SP:FF PPU:  0,  0 CYC:19497
C7AB  29 80     AND #$80                        A:00 X:FF Y:00 P:26 SP:FF PPU:  0,  0 CYC:19501
C7AD  F0 F9     BEQ $C7A8                       A:00 X:FF Y:00 P:26 SP:FF PPU:  0,  0 CYC:19503
C7A8  AD 02 20  LDA $2002 = 00                  A:00 X:FF Y:00 P:26 SP:FF PPU:  0,  0 CYC:19506
C7AB  29 80     AND #$80                        A:00 X:FF Y:00 P:26 SP:FF PPU:  0,  0 CYC:19510
C7AD  F0 F9     BEQ $C7A8                       A:00 X:FF Y:00 P:26 SP:FF PPU:  0,  0 CYC:19512
C7A8  AD 02 20  LDA $2002 = 00                  A:00 X:FF Y:00 P:26 SP:FF PPU:  0,  0 CYC:19515
C7AB  29 80     AND #$80                        A:00 X:FF Y:00 P:26 SP:FF PPU:  0,  0 CYC:19519
C7AD  F0 F9     BEQ $C7A8                       A:00 X:FF Y:00 P:26 SP:FF PPU:  0,  0 CYC:19521
C7A8  AD 02 20  LDA $2002 = 00                  A:00 X:FF Y:00 P:26 SP:FF PPU:  0,  0 CYC:19524
C7AB  29 80     AND #$80                        A:00 X:FF Y:00 P:26 SP:FF PPU:  0,  0 CYC:19528
C7AD  F0 F9     BEQ $C7A8                       A:00 X:FF Y:00 P:26 SP:FF PPU:  0,  0 CYC:19530
C7A8  AD 02 20  LDA $2002 = 00                  A:00 X:FF Y:00 P:26 SP:FF PPU:  0,  0 CYC:19533
C7AB  29 80     AND #$80                        A:00 X:FF Y:00 P:26 SP:FF PPU:  0,  0 CYC:19537
C7AD  F0 F9     BEQ $C7A8                       A:00 X:FF Y:00 P:26 SP:FF PPU:  0,  0 CYC:19539
C7A8  AD 02 20  LDA $2002 = 00                  A:00 X:FF Y:00 P:26 SP:FF PPU:  0,  0 CYC:19542
C7AB  29 80     AND #$80                        A:00 X:FF Y:00 P:26 SP:FF PPU:  0,  0 CYC:19546
C7AD  F0 F9     BEQ $C7A8                       A:00 X:FF Y:00 P:26 SP:FF PPU:  0,  0 CYC:19548
C7A8  AD 02 20  LDA $2002 = 00                  A:00 X:FF Y:00 P:26 SP:FF PPU:  0,  0 CYC:19551
C7AB  29 80     AND #$80                        A:00 X:FF Y:00 P:26 SP:FF PPU:  0,  0 CYC:19555
C7AD  F0 F9     BEQ $C7A8                       A:00 X:FF Y:00 P:26 SP:FF PPU:  0,  0 CYC:19557
C7A8  AD 02 20  LDA $2002 = 00                  A:00 X:FF Y:00 P:26 SP:FF PPU:  0,  0 CYC:19560
C7AB  29 80     AND #$80                        A:00 X:FF Y:00 P:26 SP:FF PPU:  0,  0 CYC:19564
C7AD  F0 F9     BEQ $C7A8                       A:00 X:FF Y:00 P:26 SP:FF PPU:  0,  0 CYC:19566
C7A8  AD 02 20  LDA $2002 = 00                  A:00 X:FF Y:00 P:26 SP:FF PPU:  0,  0 CYC:19569
C7AB  29 80     AND #$80                        A:00 X:FF Y:00 P:26 SP:FF PPU:  0,  0 CYC:19573
C7AD  F0 F9     BEQ $C7A8                       A:00 X:FF Y:00 P:26 SP:FF PPU:  0,  0 CYC:19575
C7A8  AD 02 20  LDA $2002 = 00                  A:00 X:FF Y:00 P:26 SP:FF PPU:  0,  0 CYC:19578
C7AB  29 80     AND #$80                        A:00 X:FF Y:00 P:26 SP:FF PPU:  0,  0 CYC:19582
C7AD  F0 F9     BEQ $C7A8                       A:00 X:FF Y:00 P:26 SP:FF PPU:  0,  0 CYC:19584
C7A8  AD 02 20  LDA $2002 = 00                  A:00 X:FF Y:00 P:26 SP:FF PPU:  0,  0 CYC:19587
C7AB  29 80     AND #$80                        A:00 X:FF Y:00 P:26 SP:FF PPU:  0,  0 CYC:19591
C7AD  F0 F9     BEQ $C7A8                       A:00 X:FF Y:00 P:26 SP:FF PPU:  0,  0 CYC:19593
C7A8  AD 02 20  LDA $2002 = 00                  A:00 X:FF Y:00 P:26 SP:FF PPU:  0,  0 CYC:19596
C7AB  29 80     AND #$80                        A:00 X:FF Y:00 P:26 SP:FF PPU:  0,  0 CYC:19600
C7AD  F0 F9     BEQ $C7A8                       A:00 X:FF Y:00 P:26 SP:FF PPU:  0,  0 CYC:19602
C7A8  AD 02 20  LDA $2002 = 00                  A:00 X:FF Y:00 P:26 SP:FF PPU:  0,  0 CYC:19605
C7AB  29 80     AND #$80                        A:00 X:FF Y:00 P:26 SP:FF PPU:  0,  0 CYC:19609
C7AD  F0 F9     BEQ $C7A8                       A:00 X:FF Y:00 P:26 SP:FF PPU:  0,  0 CYC:19611
C7A8  AD 02 20  LDA $2002 = 00                  A:00 X:FF Y:00 P:26 SP:FF PPU:  0,  0 CYC:19614
C7AB  29 80     AND #$80                        A:00 X:FF Y:00 P:26 SP:FF PPU:  0,  0 CYC:19618
C7AD  F0 F9     BEQ $C7A8                       A:00 X:FF Y:00 P:26 SP:FF PPU:  0,  0 CYC:19620
C7A8  AD 02 20  LDA $2002 = 00                  A:00 X:FF Y:00 P:26 SP:FF PPU:  0,  0 CYC:19623
C7AB  29 80     AND #$80                        A:00 X:FF Y:00 P:26 SP:FF PPU:  0,  0 CYC:19627
C7AD  F0 F9     BEQ $C7A8                       A:00 X:FF Y:00 P:26 SP:FF PPU:  0,  0 CYC:19629
C7A8  AD 02 20  LDA $2002 = 00                  A:00 X:FF Y:00 P:26 SP:FF PPU:  0,  0 CYC:19632
C7AB  29 80     AND #$80                        A:00 X:FF Y:00 P:26 SP:FF PPU:  0,  0 CYC:19636
C7AD  F0 F9     BEQ $C7A8                       A:00 X:FF Y:00 P:26 SP:FF PPU:  0,  0 CYC:19638
C7A8  AD 02 20  LDA $2002 = 00                  A:00 X:FF Y:00 P:26 SP:FF PPU:  0,  0 CYC:19641
C7AB  29 80     AND #$80                        A:00 X:FF Y:00 P:26 SP:FF PPU:  0,  0 CYC:19645
C7AD  F0 F9     BEQ $C7A8                       A:00 X:FF Y:00 P:26 SP:FF PPU:  0,  0 CYC:19647
C7A8  AD 02 20  LDA $2002 = 00                  A:00 X:FF Y:00 P:26 SP:FF PPU:  0,  0 CYC:19650
C7AB  29 80     AND #$80                        A:00 X:FF Y:00 P:26 SP:FF PPU:  0,  0 CYC:19654
C7AD  F0 F9     BEQ $C7A8                       A:00 X:FF Y:00 P:26 SP:FF PPU:  0,  0 CYC:19656
C7A8  AD 02 20  LDA $2002 = 00                  A:00 X:FF Y:00 P:26 SP:FF PPU:  0,  0 CYC:19659
C7AB  29 80     AND #$80                        A:00 X:FF Y:00 P:26 SP:FF PPU:  0,  0 CYC:19663
C7AD  F0 F9     BEQ $C7A8                       A:00 X:FF Y:00 P:26 SP:FF PPU:  0,  0 CYC:19665
C7A8  AD 02 20  LDA $2002 = 00                  A:00 X:FF Y:00 P:26 SP:FF PPU:  0,  0 CYC:19668
C7AB  29 80     AND #$80                        A:00 X:FF Y:00 P:26 SP:FF PPU:  0,  0 CYC:19672
C7AD  F0 F9     BEQ $C7A8                       A:00 X:FF Y:00 P:26 SP:FF PPU:  0,  0 CYC:19674
C7A8  AD 02 20  LDA $2002 = 00                  A:00 X:FF Y:00 P:26 SP:FF PPU:  0,  0 CYC:19677
C7AB  29 80     AND #$80                        A:00 X:FF Y:00 P:26 SP:FF PPU:  0,  0 CYC:19681
C7AD  F0 F9     BEQ $C7A8                       A:00 X:FF Y:00 P:26 SP:FF PPU:  0,  0 CYC:19683
C7A8  AD 02 20  LDA $2002 = 00                  A:00 X:FF Y:00 P:26 SP:FF PPU:  0,  0 CYC:19686
C7AB  29 80     AND #$80                        A:00 X:FF Y:00 P:26 SP:FF PPU:  0,  0 CYC:19690
C7AD  F0 F9     BEQ $C7A8                       A:00 X:FF Y:00 P:26 SP:FF PPU:  0,  0 CYC:19692
C7A8  AD 02 20  LDA $2002 = 00                  A:00 X:FF Y:00 P:26 SP:FF PPU:  0,  0 CYC:19695
C7AB  29 80     AND #$80                        A:00 X:FF Y:00 P:26 SP:FF PPU:  0,  0 CYC:19699
C7AD  F0 F9     BEQ $C7A8                       A:00 X:FF Y:00 P:26 SP:FF PPU:  0,  0 CYC:19701
C7A8  AD 02 20  LDA $2002 = 00                  A:00 X:FF Y:00 P:26 SP:FF PPU:  0,  0 CYC:19704
C7AB  29 80     AND #$80                        A:00 X:FF Y:00 P:26 SP:FF PPU:  0,  0 CYC:19708
C7AD  F0 F9     BEQ $C7A8                       A:00 X:FF Y:00 P:26 SP:FF PPU:  0,  0 CYC:19710
C7A8  AD 02 20  LDA $2002 = 00                  A:00 X:FF Y:00 P:26 SP:FF PPU:  0,  0 CYC:19713
C7AB  29 80     AND #$80                        A:00 X:FF Y:00 P:26 SP:FF PPU:  0,  0 CYC:19717
C7AD  F0 F9     BEQ $C7A8                       A:00 X:FF Y:00 P:26 SP:FF PPU:  0,  0 CYC:19719
C7A8  AD 02 20  LDA $2002 = 00                  A:00 X:FF Y:00 P:26 SP:FF PPU:  0,  0 CYC:19722
C7AB  29 80     AND #$80                        A:00 X:FF Y:00 P:26 SP:FF PPU:  0,  0 CYC:19726
C7AD  F0 F9     BEQ $C7A8                       A:00 X:FF Y:00 P:26 SP:FF PPU:  0,  0 CYC:19728
C7A8  AD 02 20  LDA $2002 = 00                  A:00 X:FF Y:00 P:26 SP:FF PPU:  0,  0 CYC:19731
C7AB  29 80     AND #$80                        A:00 X:FF Y:00 P:26 SP:FF PPU:  0,  0 CYC:19735
C7AD  F0 F9     BEQ $C7A8                       A:00 X:FF Y:00 P:26 SP:FF PPU:  0,  0 CYC:19737
C7A8  AD 02 20  LDA $2002 = 00                  A:00 X:FF Y:00 P:26 SP:FF PPU:  0,  0 CYC:19740
C7AB  29 80     AND #$80                        A:00 X:FF Y:00 P:26 SP:FF PPU:  0,  0 CYC:19744
C7AD  F0 F9     BEQ $C7A8                       A:00 X:FF Y:00 P:26 SP:FF PPU:  0,  0 CYC:19746
C7A8  AD 02 20  LDA $2002 = 00                  A:00 X:FF Y:00 P:26 SP:FF PPU:  0,  0 CYC:19749
C7AB  29 80     AND #$80                        A:00 X:FF Y:00 P:26 SP:FF PPU:  0,  0 CYC:19753
C7AD  F0 F9     BEQ $C7A8                       A:00 X:FF Y:00 P:26 SP:FF PPU:  0,  0 CYC:19755
C7A8  AD 02 20  LDA $2002 = 00                  A:00 X:FF Y:00 P:26 SP:FF PPU:  0,  0 CYC:19758
C7AB  29 80     AND #$80                        A:00 X:FF Y:00 P:26 SP:FF PPU:  0,  0 CYC:19762
C7AD  F0 F9     BEQ $C7A8                       A:00 X:FF Y:00 P:26 SP:FF PPU:  0,  0 CYC:19764
C7A8  AD 02 20  LDA $2002 = 00                  A:00 X:FF Y:00 P:26 SP:FF PPU:  0,  0 CYC:19767
C7AB  29 80     AND #$80                        A:00 X:FF Y:00 P:26 SP:FF PPU:  0,  0 CYC:19771
C7AD  F0 F9     BEQ $C7A8                       A:00 X:FF Y:00 P:26 SP:FF PPU:  0,  0 CYC:19773
C7A8  AD 02 20  LDA $2002 = 00                  A:00 X:FF Y:00 P:26 SP:FF PPU:  0,  0 CYC:19776
C7AB  29 80     AND #$80                        A:00 X:FF Y:00 P:26 SP:FF PPU:  0,  0 CYC:19780
C7AD  F0 F9     BEQ $C7A8                       A:00 X:FF Y:00 P:26 SP:FF PPU:  0,  0 CYC:19782
C7A8  AD 02 20  LDA $2002 = 00                  A:00 X:FF Y:00 P:26 SP:FF PPU:  0,  0 CYC:19785
C7AB  29 80     AND #$80                        A:00 X:FF Y:00 P:26 SP:FF PPU:  0,  0 CYC:19789
C7AD  F0 F9     BEQ $C7A8                       A:00 X:FF Y:00 P:26 SP:FF PPU:  0,  0 CYC:19791
C7A8  AD 02 20  LDA $2002 = 00                  A:00 X:FF Y:00 P:26 SP:FF PPU:  0,  0 CYC:19794
C7AB  29 80     AND #$80                        A:00 X:FF Y:00 P:26 SP:FF PPU:  0,  0 CYC:19798
C7AD  F0 F9     BEQ $C7A8                       A:00 X:FF Y:00 P:26 SP:FF PPU:  0,  0 CYC:19800
C7A8  AD 02 20  LDA $2002 = 00                  A:00 X:FF Y:00 P:26 SP:FF PPU:  0,  0 CYC:19803
C7AB  29 80     AND #$80                        A:00 X:FF Y:00 P:26 SP:FF PPU:  0,  0 CYC:19807
C7AD  F0 F9     BEQ $C7A8                       A:00 X:FF Y:00 P:26 SP:FF PPU:  0,  0 CYC:19809
C7A8  AD 02 20  LDA $2002 = 00                  A:00 X:FF Y:00 P:26 SP:FF PPU:  0,  0 CYC:19812
C7AB  29 80     AND #$80                        A:00 X:FF Y:00 P:26 SP:FF PPU:  0,  0 CYC:19816
C7AD  F0 F9     BEQ $C7A8                       A:00 X:FF Y:00 P:26 SP:FF PPU:  0,  0 CYC:19818
C7A8  AD 02 20  LDA $2002 = 00                  A:00 X:FF Y:00 P:26 SP:FF PPU:  0,  0 CYC:19821
C7AB  29 80     AND #$80                        A:00 X:FF Y:00 P:26 SP:FF PPU:  0,  0 CYC:19825
C7AD  F0 F9     BEQ $C7A8                       A:00 X:FF Y:00 P:26 SP:FF PPU:  0,  0 CYC:19827
C7A8  AD 02 20  LDA $2002 = 00                  A:00 X:FF Y:00 P:26 SP:FF PPU:  0,  0 CYC:19830
C7AB  29 80     AND #$80                        A:00 X:FF Y:00 P:26 SP:FF PPU:  0,  0 CYC:19834
C7AD  F0 F9     BEQ $C7A8                       A:00 X:FF Y:00 P:26 SP:FF PPU:  0,  0 CYC:19836
C7A8  AD 02 20  LDA $2002 = 00                  A:00 X:FF Y:00 P:26 SP:FF PPU:  0,  0 CYC:19839
C7AB  29 80     AND #$80                        A:00 X:FF Y:00 P:26 SP:FF PPU:  0,  0 CYC:19843
C7AD  F0 F9     BEQ $C7A8                       A:00 X:FF Y:00 P:26 SP:FF PPU:  0,  0 CYC:19845
C7A8  AD 02 20  LDA $2002 = 00                  A:00 X:FF Y:00 P:26 SP:FF PPU:  0,  0 CYC:19848
C7AB  29 80     AND #$80                        A:00 X:FF Y:00 P:26 SP:FF PPU:  0,  0 CYC:19852
C7AD  F0 F9     BEQ $C7A8                       A:00 X:FF Y:00 P:26 SP:FF PPU:  0,  0 CYC:19854
C7A8  AD 02 20  LDA $2002 = 00                  A:00 X:FF Y:00 P:26 SP:FF PPU:  0,  0 CYC:19857
C7AB  29 80     AND #$80                        A:00 X:FF Y:00 P:26 SP:FF PPU:  0,  0 CYC:19861
C7AD  F0 F9     BEQ $C7A8                       A:00 X:FF Y:00 P:26 SP:FF PPU:  0,  0 CYC:19863
C7A8  AD 02 20  LDA $2002 = 00                  A:00 X:FF Y:00 P:26 SP:FF PPU:  0,  0 CYC:19866
C7AB  29 80     AND #$80                        A:00 X:FF Y:00 P:26 SP:FF PPU:  0,  0 CYC:19870
C7AD  F0 F9     BEQ $C7A8                       A:00 X:FF Y:00 P:26 SP:FF PPU:  0,  0 CYC:19872
C7A8  AD 02 20  LDA $2002 = 00                  A:00 X:FF Y:00 P:26 SP:FF PPU:  0,  0 CYC:19875
C7AB  29 80     AND #$80                        A:00 X:FF Y:00 P:26 SP:FF PPU:  0,  0 CYC:19879
C7AD  F0 F9     BEQ $C7A8                       A:00 X:FF Y:00 P:26 SP:FF PPU:  0,  0 CYC:19881
C7A8  AD 02 20  LDA $2002 = 00                  A:00 X:FF Y:00 P:26 SP:FF PPU:  0,  0 CYC:19884
C7AB  29 80     AND #$80                        A:00 X:FF Y:00 P:26 SP:FF PPU:  0,  0 CYC:19888
C7AD  F0 F9     BEQ $C7A8                       A:00 X:FF Y:00 P:26 SP:FF PPU:  0,  0 CYC:19890
C7A8  AD 02 20  LDA $2002 = 00                  A:00 X:FF Y:00 P:26 SP:FF PPU:  0,  0 CYC:19893
C7AB  29 80     AND #$80                        A:00 X:FF Y:00 P:26 SP:FF PPU:  0,  0 CYC:19897
C7AD  F0 F9     BEQ $C7A8                       A:00 X:FF Y:00 P:26 SP:FF PPU:  0,  0 CYC:19899
C7A8  AD 02 20  LDA $2002 = 00                  A:00 X:FF Y:00 P:26 SP:FF PPU:  0,  0 CYC:19902
C7AB  29 80     AND #$80                        A:00 X:FF Y:00 P:26 SP:FF PPU:  0,  0 CYC:19906
C7AD  F0 F9     BEQ $C7A8                       A:00 X:FF Y:00 P:26 SP:FF PPU:  0,  0 CYC:19908
C7A8  AD 02 20  LDA $2002 = 00                  A:00 X:FF Y:00 P:26 SP:FF PPU:  0,  0 CYC:19911
C7AB  29 80     AND #$80                        A:00 X:FF Y:00 P:26 SP:FF PPU:  0,  0 CYC:19915
C7AD  F0 F9     BEQ $C7A8                       A:00 X:FF Y:00 P:26 SP:FF PPU:  0,  0 CYC:19917
C7A8  AD 02 20  LDA $2002 = 00                  A:00 X:FF Y:00 P:26 SP:FF PPU:  0,  0 CYC:19920
C7AB  29 80     AND #$80                        A:00 X:FF Y:00 P:26 SP:FF PPU:  0,  0 CYC:19924
C7AD  F0 F9     BEQ $C7A8                       A:00 X:FF Y:00 P:26 SP:FF PPU:  0,  0 CYC:19926
C7A8  AD 02 20  LDA $2002 = 00                  A:00 X:FF Y:00 P:26 SP:FF PPU:  0,  0 CYC:19929
C7AB  29 80     AND #$80                        A:00 X:FF Y:00 P:26 SP:FF PPU:  0,  0 CYC:19933
C7AD  F0 F9     BEQ $C7A8                       A:00 X:FF Y:00 P:26 SP:FF PPU:  0,  0 CYC:19935
C7A8  AD 02 20  LDA $2002 = 00                  A:00 X:FF Y:00 P:26 SP:FF PPU:  0,  0 CYC:19938
C7AB  29 80     AND #$80                        A:00 X:FF Y:00 P:26 SP:FF PPU:  0,  0 CYC:19942
C7AD  F0 F9     BEQ $C7A8                       A:00 X:FF Y:00 P:26 SP:FF PPU:  0,  0 CYC:19944
C7A8  AD 02 20  LDA $2002 = 00                  A:00 X:FF Y:00 P:26 SP:FF PPU:  0,  0 CYC:19947
C7AB  29 80     AND #$80                        A:00 X:FF Y:00 P:26 SP:FF PPU:  0,  0 CYC:19951
C7AD  F0 F9     BEQ $C7A8                       A:00 X:FF Y:00 P:26 SP:FF PPU:  0,  0 CYC:19953
C7A8  AD 02 20  LDA $2002 = 00                  A:00 X:FF Y:00 P:26 SP:FF PPU:  0,  0 CYC:19956
C7AB  29 80     AND #$80                        A:00 X:FF Y:00 P:26 SP:FF PPU:  0,  0 CYC:19960
C7AD  F0 F9     BEQ $C7A8                       A:00 X:FF Y:00 P:26 SP:FF PPU:  0,  0 CYC:19962
C7A8  AD 02 20  LDA $2002 = 00                  A:00 X:FF Y:00 P:26 SP:FF PPU:  0,  0 CYC:19965
C7AB  29 80     AND #$80                        A:00 X:FF Y:00 P:26 SP:FF PPU:  0,  0 CYC:19969
C7AD  F0 F9     BEQ $C7A8                       A:00 X:FF Y:00 P:26 SP:FF PPU:  0,  0 CYC:19971
C7A8  AD 02 20  LDA $2002 = 00                  A:00 X:FF Y:00 P:26 SP:FF PPU:  0,  0 CYC:19974
C7AB  29 80     AND #$80                        A:00 X:FF Y:00 P:26 SP:FF PPU:  0,  0 CYC:19978
C7AD  F0 F9     BEQ $C7A8                       A:00 X:FF Y:00 P:26 SP:FF PPU:  0,  0 CYC:19980
C7A8  AD 02 20  LDA $2002 = 00                  A:00 X:FF Y:00 P:26 SP:FF PPU:  0,  0 CYC:19983
C7AB  29 80     AND #$80                        A:00 X:FF Y:00 P:26 SP:FF PPU:  0,  0 CYC:19987
C7AD  F0 F9     BEQ $C7A8                       A:00 X:FF Y:00 P:26 SP:FF PPU:  0,  0 CYC:19989
C7A8  AD 02 20  LDA $2002 = 00                  A:00 X:FF Y:00 P:26 SP:FF PPU:  0,  0 CYC:19992
C7AB  29 80     AND #$80                        A:00 X:FF Y:00 P:26 SP:FF PPU:  0,  0 CYC:19996
C7AD  F0 F9     BEQ $C7A8                       A:00 X:FF Y:00 P:26 SP:FF PPU:  0,  0 CYC:19998
C7A8  AD 02 20  LDA $2002 = 00                  A:00 X:FF Y:00 P:26 SP:FF PPU:  0,  0 CYC:20001
C7AB  29 80     AND #$80                        A:00 X:FF Y:00 P:26 SP:FF PPU:  0,  0 CYC:20005
C7AD  F0 F9     BEQ $C7A8                       A:00 X:FF Y:00 P:26 SP:FF PPU:  0,  0 CYC:20007
C7A8  AD 02 20  LDA $2002 = 00                  A:00 X:FF Y:00 P:26 SP:FF PPU:  0,  0 CYC:20010
C7AB  29 80     AND #$80                        A:00 X:FF Y:00 P:26 SP:FF PPU:  0,  0 CYC:20014
C7AD  F0 F9     BEQ $C7A8                       A:00 X:FF Y:00 P:26 SP:FF PPU:  0,  0 CYC:20016
C7A8  AD 02 20  LDA $2002 = 00                  A:00 X:FF Y:00 P:26 SP:FF PPU:  0,  0 CYC:20019
C7AB  29 80     AND #$80                        A:00 X:FF Y:00 P:26 SP:FF PPU:  0,  0 CYC:20023
C7AD  F0 F9     BEQ $C7A8                       A:00 X:FF Y:00 P:26 SP:FF PPU:  0,  0 CYC:20025
C7A8  AD 02 20  LDA $2002 = 00                  A:00 X:FF Y:00 P:26 SP:FF PPU:  0,  0 CYC:20028
C7AB  29 80     AND #$80                        A:00 X:FF Y:00 P:26 SP:FF PPU:  0,  0 CYC:20032
C7AD  F0 F9     BEQ $C7A8                       A:00 X:FF Y:00 P:26 SP:FF PPU:  0,  0 CYC:20034
C7A8  AD 02 20  LDA $2002 = 00                  A:00 X:FF Y:00 P:26 SP:FF PPU:  0,  0 CYC:20037
C7AB  29 80     AND #$80                        A:00 X:FF Y:00 P:26 SP:FF PPU:  0,  0 CYC:20041
C7AD  F0 F9     BEQ $C7A8                       A:00 X:FF Y:00 P:26 SP:FF PPU:  0,  0 CYC:20043
C7A8  AD 02 20  LDA $2002 = 00                  A:00 X:FF Y:00 P:26 SP:FF PPU:  0,  0 CYC:20046
C7AB  29 80     AND #$80                        A:00 X:FF Y:00 P:26 SP:FF PPU:  0,  0 CYC:20050
C7AD  F0 F9     BEQ $C7A8                       A:00 X:FF Y:00 P:26 SP:FF PPU:  0,  0 CYC:20052
C7A8  AD 02 20  LDA $2002 = 00                  A:00 X:FF Y:00 P:26 SP:FF PPU:  0,  0 CYC:20055
C7AB  29 80     AND #$80                        A:00 X:FF Y:00 P:26 SP:FF PPU:  0,  0 CYC:20059
C7AD  F0 F9     BEQ $C7A8                       A:00 X:FF Y:00 P:26 SP:FF PPU:  0,  0 CYC:20061
C7A8  AD 02 20  LDA $2002 = 00                  A:00 X:FF Y:00 P:26 SP:FF PPU:  0,  0 CYC:20064
C7AB  29 80     AND #$80                        A:00 X:FF Y:00 P:26 SP:FF PPU:  0,  0 CYC:20068
C7AD  F0 F9     BEQ $C7A8                       A:00 X:FF Y:00 P:26 SP:FF PPU:  0,  0 CYC:20070
C7A8  AD 02 20  LDA $2002 = 00                  A:00 X:FF Y:00 P:26 SP:FF PPU:  0,  0 CYC:20073
C7AB  29 80     AND #$80                        A:00 X:FF Y:00 P:26 SP:FF PPU:  0,  0 CYC:20077
C7AD  F0 F9     BEQ $C7A8                       A:00 X:FF Y:00 P:26 SP:FF PPU:  0,  0 CYC:20079
C7A8  AD 02 20  LDA $2002 = 00                  A:00 X:FF Y:00 P:26 SP:FF PPU:  0,  0 CYC:20082
C7AB  29 80     AND #$80                        A:00 X:FF Y:00 P:26 SP:FF PPU:  0,  0 CYC:20086
C7AD  F0 F9     BEQ $C7A8                       A:00 X:FF Y:00 P:26 SP:FF PPU:  0,  0 CYC:20088
C7A8  AD 02 20  LDA $2002 = 00                  A:00 X:FF Y:00 P:26 SP:FF PPU:  0,  0 CYC:20091
C7AB  29 80     AND #$80                        A:00 X:FF Y:00 P:26 SP:FF PPU:  0,  0 CYC:20095
C7AD  F0 F9     BEQ $C7A8                       A:00 X:FF Y:00 P:26 SP:FF PPU:  0,  0 CYC:20097
C7A8  AD 02 20  LDA $2002 = 00                  A:00 X:FF Y:00 P:26 SP:FF PPU:  0,  0 CYC:20100
C7AB  29 80     AND #$80                        A:00 X:FF Y:00 P:26 SP:FF PPU:  0,  0 CYC:20104
C7AD  F0 F9     BEQ $C7A8                       A:00 X:FF Y:00 P:26 SP:FF PPU:  0,  0 CYC:20106
C7A8  AD 02 20  LDA $2002 = 00                  A:00 X:FF Y:00 P:26 SP:FF PPU:  0,  0 CYC:20109
C7AB  29 80     AND #$80                        A:00 X:FF Y:00 P:26 SP:FF PPU:  0,  0 CYC:20113
C7AD  F0 F9     BEQ $C7A8                       A:00 X:FF Y:00 P:26 SP:FF PPU:  0,  0 CYC:20115
C7A8  AD 02 20  LDA $2002 = 00                  A:00 X:FF Y:00 P:26 SP:FF PPU:  0,  0 CYC:20118
C7AB  29 80     AND #$80                        A:00 X:FF Y:00 P:26 SP:FF PPU:  0,  0 CYC:20122
C7AD  F0 F9     BEQ $C7A8                       A:00 X:FF Y:00 P:26 SP:FF PPU:  0,  0 CYC:20124
C7A8  AD 02 20  LDA $2002 = 00                  A:00 X:FF Y:00 P:26 SP:FF PPU:  0,  0 CYC:20127
C7AB  29 80     AND #$80                        A:00 X:FF Y:00 P:26 SP:FF PPU:  0,  0 CYC:20131
C7AD  F0 F9     BEQ $C7A8                       A:00 X:FF Y:00 P:26 SP:FF PPU:  0,  0 CYC:20133
C7A8  AD 02 20  LDA $2002 = 00                  A:00 X:FF Y:00 P:26 SP:FF PPU:  0,  0 CYC:20136
C7AB  29 80     AND #$80                        A:00 X:FF Y:00 P:26 SP:FF PPU:  0,  0 CYC:20140
C7AD  F0 F9     BEQ $C7A8                       A:00 X:FF Y:00 P:26 SP:FF PPU:  0,  0 CYC:20142
C7A8  AD 02 20  LDA $2002 = 00                  A:00 X:FF Y:00 P:26 SP:FF PPU:  0,  0 CYC:20145
C7AB  29 80     AND #$80                        A:00 X:FF Y:00 P:26 SP:FF PPU:  0,  0 CYC:20149
C7AD  F0 F9     BEQ $C7A8                       A:00 X:FF Y:00 P:26 SP:FF PPU:  0,  0 CYC:20151
C7A8  AD 02 20  LDA $2002 = 00                  A:00 X:FF Y:00 P:26 SP:FF PPU:  0,  0 CYC:20154
C7AB  29 80     AND #$80                        A:00 X:FF Y:00 P:26 SP:FF PPU:  0,  0 CYC:20158
C7AD  F0 F9     BEQ $C7A8                       A:00 X:FF Y:00 P:26 SP:FF PPU:  0,  0 CYC:20160
C7A8  AD 02 20  LDA $2002 = 00                  A:00 X:FF Y:00 P:26 SP:FF PPU:  0,  0 CYC:20163
C7AB  29 80     AND #$80                        A:00 X:FF Y:00 P:26 SP:FF PPU:  0,  0 CYC:20167
C7AD  F0 F9     BEQ $C7A8                       A:00 X:FF Y:00 P:26 SP:FF PPU:  0,  0 CYC:20169
C7A8  AD 02 20  LDA $2002 = 00                  A:00 X:FF Y:00 P:26 SP:FF PPU:  0,  0 CYC:20172
C7AB  29 80     AND #$80                        A:00 X:FF Y:00 P:26 SP:FF PPU:  0,  0 CYC:20176
C7AD  F0 F9     BEQ $C7A8                       A:00 X:FF Y:00 P:26 SP:FF PPU:  0,  0 CYC:20178
C7A8  AD 02 20  LDA $2002 = 00                  A:00 X:FF Y:00 P:26 SP:FF PPU:  0,  0 CYC:20181
C7AB  29 80     AND #$80                        A:00 X:FF Y:00 P:26 SP:FF PPU:  0,  0 CYC:20185
C7AD  F0 F9     BEQ $C7A8                       A:00 X:FF Y:00 P:26 SP:FF PPU:  0,  0 CYC:20187
C7A8  AD 02 20  LDA $2002 = 00                  A:00 X:FF Y:00 P:26 SP:FF PPU:  0,  0 CYC:20190
C7AB  29 80     AND #$80                        A:00 X:FF Y:00 P:26 SP:FF PPU:  0,  0 CYC:20194
C7AD  F0 F9     BEQ $C7A8                       A:00 X:FF Y:00 P:26 SP:FF PPU:  0,  0 CYC:20196
C7A8  AD 02 20  LDA $2002 = 00                  A:00 X:FF Y:00 P:26 SP:FF PPU:  0,  0 CYC:20199
C7AB  29 80     AND #$80                        A:00 X:FF Y:00 P:26 SP:FF PPU:  0,  0 CYC:20203
C7AD  F0 F9     BEQ $C7A8                       A:00 X:FF Y:00 P:26 SP:FF PPU:  0,  0 CYC:20205
C7A8  AD 02 20  LDA $2002 = 00                  A:00 X:FF Y:00 P:26 SP:FF PPU:  0,  0 CYC:20208
C7AB  29 80     AND #$80                        A:00 X:FF Y:00 P:26 SP:FF PPU:  0,  0 CYC:20212
C7AD  F0 F9     BEQ $C7A8                       A:00 X:FF Y:00 P:26 SP:FF PPU:  0,  0 CYC:20214
C7A8  AD 02 20  LDA $2002 = 00                  A:00 X:FF Y:00 P:26 SP:FF PPU:  0,  0 CYC:20217
C7AB  29 80     AND #$80                        A:00 X:FF Y:00 P:26 SP:FF PPU:  0,  0 CYC:20221
C7AD  F0 F9     BEQ $C7A8                       A:00 X:FF Y:00 P:26 SP:FF PPU:  0,  0 CYC:20223
C7A8  AD 02 20  LDA $2002 = 00                  A:00 X:FF Y:00 P:26 SP:FF PPU:  0,  0 CYC:20226
C7AB  29 80     AND #$80                        A:00 X:FF Y:00 P:26 SP:FF PPU:  0,  0 CYC:20230
C7AD  F0 F9     BEQ $C7A8                       A:00 X:FF Y:00 P:26 SP:FF PPU:  0,  0 CYC:20232
C7A8  AD 02 20  LDA $2002 = 00                  A:00 X:FF Y:00 P:26 SP:FF PPU:  0,  0 CYC:20235
C7AB  29 80     AND #$80                        A:00 X:FF Y:00 P:26 SP:FF PPU:  0,  0 CYC:20239
C7AD  F0 F9     BEQ $C7A8                       A:00 X:FF Y:00 P:26 SP:FF PPU:  0,  0 CYC:20241
C7A8  AD 02 20  LDA $2002 = 00                  A:00 X:FF Y:00 P:26 SP:FF PPU:  0,  0 CYC:20244
C7AB  29 80     AND #$80                        A:00 X:FF Y:00 P:26 SP:FF PPU:  0,  0 CYC:20248
C7AD  F0 F9     BEQ $C7A8                       A:00 X:FF Y:00 P:26 SP:FF PPU:  0,  0 CYC:20250
C7A8  AD 02 20  LDA $2002 = 00                  A:00 X:FF Y:00 P:26 SP:FF PPU:  0,  0 CYC:20253
C7AB  29 80     AND #$80                        A:00 X:FF Y:00 P:26 SP:FF PPU:  0,  0 CYC:20257
C7AD  F0 F9     BEQ $C7A8                       A:00 X:FF Y:00 P:26 SP:FF PPU:  0,  0 CYC:20259
C7A8  AD 02 20  LDA $2002 = 00                  A:00 X:FF Y:00 P:26 SP:FF PPU:  0,  0 CYC:20262
C7AB  29 80     AND #$80                        A:00 X:FF Y:00 P:26 SP:FF PPU:  0,  0 CYC:20266
C7AD  F0 F9     BEQ $C7A8                       A:00 X:FF Y:00 P:26 SP:FF PPU:  0,  0 CYC:20268
C7A8  AD 02 20  LDA $2002 = 00                  A:00 X:FF Y:00 P:26 SP:FF PPU:  0,  0 CYC:20271
C7AB  29 80     AND #$80                        A:00 X:FF Y:00 P:26 SP:FF PPU:  0,  0 CYC:20275
C7AD  F0 F9     BEQ $C7A8                       A:00 X:FF Y:00 P:26 SP:FF PPU:  0,  0 CYC:20277
C7A8  AD 02 20  LDA $2002 = 00                  A:00 X:FF Y:00 P:26 SP:FF PPU:  0,  0 CYC:20280
C7AB  29 80     AND #$80                        A:00 X:FF Y:00 P:26 SP:FF PPU:  0,  0 CYC:20284
C7AD  F0 F9     BEQ $C7A8                       A:00 X:FF Y:00 P:26 SP:FF PPU:  0,  0 CYC:20286
C7A8  AD 02 20  LDA $2002 = 00                  A:00 X:FF Y:00 P:26 SP:FF PPU:  0,  0 CYC:20289
C7AB  29 80     AND #$80                        A:00 X:FF Y:00 P:26 SP:FF PPU:  0,  0 CYC:20293
C7AD  F0 F9     BEQ $C7A8                       A:00 X:FF Y:00 P:26 SP:FF PPU:  0,  0 CYC:20295
C7A8  AD 02 20  LDA $2002 = 00                  A:00 X:FF Y:00 P:26 SP:FF PPU:  0,  0 CYC:20298
C7AB  29 80     AND #$80                        A:00 X:FF Y:00 P:26 SP:FF PPU:  0,  0 CYC:20302
C7AD  F0 F9     BEQ $C7A8                       A:00 X:FF Y:00 P:26 SP:FF PPU:  0,  0 CYC:20304
C7A8  AD 02 20  LDA $2002 = 00                  A:00 X:FF Y:00 P:26 SP:FF PPU:  0,  0 CYC:20307
C7AB  29 80     AND #$80                        A:00 X:FF Y:00 P:26 SP:FF PPU:  0,  0 CYC:20311
C7AD  F0 F9     BEQ $C7A8                       A:00 X:FF Y:00 P:26 SP:FF PPU:  0,  0 CYC:20313
C7A8  AD 02 20  LDA $2002 = 00                  A:00 X:FF Y:00 P:26 SP:FF PPU:  0,  0 CYC:20316
C7AB  29 80     AND #$80                        A:00 X:FF Y:00 P:26 SP:FF PPU:  0,  0 CYC:20320
C7AD  F0 F9     BEQ $C7A8                       A:00 X:FF Y:00 P:26 SP:FF PPU:  0,  0 CYC:20322
C7A8  AD 02 20  LDA $2002 = 00                  A:00 X:FF Y:00 P:26 SP:FF PPU:  0,  0 CYC:20325
C7AB  29 80     AND #$80                        A:00 X:FF Y:00 P:26 SP:FF PPU:  0,  0 CYC:20329
C7AD  F0 F9     BEQ $C7A8                       A:00 X:FF Y:00 P:26 SP:FF PPU:  0,  0 CYC:20331
C7A8  AD 02 20  LDA $2002 = 00                  A:00 X:FF Y:00 P:26 SP:FF PPU:  0,  0 CYC:20334
C7AB  29 80     AND #$80                        A:00 X:FF Y:00 P:26 SP:FF PPU:  0,  0 CYC:20338
C7AD  F0 F9     BEQ $C7A8                       A:00 X:FF Y:00 P:26 SP:FF PPU:  0,  0 CYC:20340
C7A8  AD 02 20  LDA $2002 = 00                  A:00 X:FF Y:00 P:26 SP:FF PPU:  0,  0 CYC:20343
C7AB  29 80     AND #$80                        A:00 X:FF Y:00 P:26 SP:FF PPU:  0,  0 CYC:20347
C7AD  F0 F9     BEQ $C7A8                       A:00 X:FF Y:00 P:26 SP:FF PPU:  0,  0 CYC:20349
C7A8  AD 02 20  LDA $2002 = 00                  A:00 X:FF Y:00 P:26 SP:FF PPU:  0,  0 CYC:20352
C7AB  29 80     AND #$80                        A:00 X:FF Y:00 P:26 SP:FF PPU:  0,  0 CYC:20356
C7AD  F0 F9     BEQ $C7A8                       A:00 X:FF Y:00 P:26 SP:FF PPU:  0,  0 CYC:20358
C7A8  AD 02 20  LDA $2002 = 00                  A:00 X:FF Y:00 P:26 SP:FF PPU:  0,  0 CYC:20361
C7AB  29 80     AND #$80                        A:00 X:FF Y:00 P:26 SP:FF PPU:  0,  0 CYC:20365
C7AD  F0 F9     BEQ $C7A8                       A:00 X:FF Y:00 P:26 SP:FF PPU:  0,  0 CYC:20367
C7A8  AD 02 20  LDA $2002 = 00                  A:00 X:FF Y:00 P:26 SP:FF PPU:  0,  0 CYC:20370
C7AB  29 80     AND #$80                        A:00 X:FF Y:00 P:26 SP:FF PPU:  0,  0 CYC:20374
C7AD  F0 F9     BEQ $C7A8                       A:00 X:FF Y:00 P:26 SP:FF PPU:  0,  0 CYC:20376
C7A8  AD 02 20  LDA $2002 = 00                  A:00 X:FF Y:00 P:26 SP:FF PPU:  0,  0 CYC:20379
C7AB  29 80     AND #$80                        A:00 X:FF Y:00 P:26 SP:FF PPU:  0,  0 CYC:20383
C7AD  F0 F9     BEQ $C7A8                       A:00 X:FF Y:00 P:26 SP:FF PPU:  0,  0 CYC:20385
C7A8  AD 02 20  LDA $2002 = 00                  A:00 X:FF Y:00 P:26 SP:FF PPU:  0,  0 CYC:20388
C7AB  29 80     AND #$80                        A:00 X:FF Y:00 P:26 SP:FF PPU:  0,  0 CYC:20392
C7AD  F0 F9     BEQ $C7A8                       A:00 X:FF Y:00 P:26 SP:FF PPU:  0,  0 CYC:20394
C7A8  AD 02 20  LDA $2002 = 00                  A:00 X:FF Y:00 P:26 SP:FF PPU:  0,  0 CYC:20397
C7AB  29 80     AND #$80                        A:00 X:FF Y:00 P:26 SP:FF PPU:  0,  0 CYC:20401
C7AD  F0 F9     BEQ $C7A8                       A:00 X:FF Y:00 P:26 SP:FF PPU:  0,  0 CYC:20403
C7A8  AD 02 20  LDA $2002 = 00                  A:00 X:FF Y:00 P:26 SP:FF PPU:  0,  0 CYC:20406
C7AB  29 80     AND #$80                        A:00 X:FF Y:00 P:26 SP:FF PPU:  0,  0 CYC:20410
C7AD  F0 F9     BEQ $C7A8                       A:00 X:FF Y:00 P:26 SP:FF PPU:  0,  0 CYC:20412
C7A8  AD 02 20  LDA $2002 = 00                  A:00 X:FF Y:00 P:26 SP:FF PPU:  0,  0 CYC:20415
C7AB  29 80     AND #$80                        A:00 X:FF Y:00 P:26 SP:FF PPU:  0,  0 CYC:20419
C7AD  F0 F9     BEQ $C7A8                       A:00 X:FF Y:00 P:26 SP:FF PPU:  0,  0 CYC:20421
C7A8  AD 02 20  LDA $2002 = 00                  A:00 X:FF Y:00 P:26 SP:FF PPU:  0,  0 CYC:20424
C7AB  29 80     AND #$80                        A:00 X:FF Y:00 P:26 SP:FF PPU:  0,  0 CYC:20428
C7AD  F0 F9     BEQ $C7A8                       A:00 X:FF Y:00 P:26 SP:FF PPU:  0,  0 CYC:20430
C7A8  AD 02 20  LDA $2002 = 00                  A:00 X:FF Y:00 P:26 SP:FF PPU:  0,  0 CYC:20433
C7AB  29 80     AND #$80                        A:00 X:FF Y:00 P:26 SP:FF PPU:  0,  0 CYC:20437
C7AD  F0 F9     BEQ $C7A8                       A:00 X:FF Y:00 P:26 SP:FF PPU:  0,  0 CYC:20439
C7A8  AD 02 20  LDA $2002 = 00                  A:00 X:FF Y:00 P:26 SP:FF PPU:  0,  0 CYC:20442
C7AB  29 80     AND #$80                        A:00 X:FF Y:00 P:26 SP:FF PPU:  0,  0 CYC:20446
C7AD  F0 F9     BEQ $C7A8                       A:00 X:FF Y:00 P:26 SP:FF PPU:  0,  0 CYC:20448
C7A8  AD 02 20  LDA $2002 = 00                  A:00 X:FF Y:00 P:26 SP:FF PPU:  0,  0 CYC:20451
C7AB  29 80     AND #$80                        A:00 X:FF Y:00 P:26 SP:FF PPU:  0,  0 CYC:20455
C7AD  F0 F9     BEQ $C7A8                       A:00 X:FF Y:00 P:26 SP:FF PPU:  0,  0 CYC:20457
C7A8  AD 02 20  LDA $2002 = 00                  A:00 X:FF Y:00 P:26 SP:FF PPU:  0,  0 CYC:20460
C7AB  29 80     AND #$80                        A:00 X:FF Y:00 P:26 SP:FF PPU:  0,  0 CYC:20464
C7AD  F0 F9     BEQ $C7A8                       A:00 X:FF Y:00 P:26 SP:FF PPU:  0,  0 CYC:20466
C7A8  AD 02 20  LDA $2002 = 00                  A:00 X:FF Y:00 P:26 SP:FF PPU:  0,  0 CYC:20469
C7AB  29 80     AND #$80                        A:00 X:FF Y:00 P:26 SP:FF PPU:  0,  0 CYC:20473
C7AD  F0 F9     BEQ $C7A8                       A:00 X:FF Y:00 P:26 SP:FF PPU:  0,  0 CYC:20475
C7A8  AD 02 20  LDA $2002 = 00                  A:00 X:FF Y:00 P:26 SP:FF PPU:  0,  0 CYC:20478
C7AB  29 80     AND #$80                        A:00 X:FF Y:00 P:26 SP:FF PPU:  0,  0 CYC:20482
C7AD  F0 F9     BEQ $C7A8                       A:00 X:FF Y:00 P:26 SP:FF PPU:  0,  0 CYC:20484
C7A8  AD 02 20  LDA $2002 = 00                  A:00 X:FF Y:00 P:26 SP:FF PPU:  0,  0 CYC:20487
C7AB  29 80     AND #$80                        A:00 X:FF Y:00 P:26 SP:FF PPU:  0,  0 CYC:20491
C7AD  F0 F9     BEQ $C7A8                       A:00 X:FF Y:00 P:26 SP:FF PPU:  0,  0 CYC:20493
C7A8  AD 02 20  LDA $2002 = 00                  A:00 X:FF Y:00 P:26 SP:FF PPU:  0,  0 CYC:20496
C7AB  29 80     AND #$80                        A:00 X:FF Y:00 P:26 SP:FF PPU:  0,  0 CYC:20500
C7AD  F0 F9     BEQ $C7A8                       A:00 X:FF Y:00 P:26 SP:FF PPU:  0,  0 CYC:20502
C7A8  AD 02 20  LDA $2002 = 00                  A:00 X:FF Y:00 P:26 SP:FF PPU:  0,  0 CYC:20505
C7AB  29 80     AND #$80                        A:00 X:FF Y:00 P:26 SP:FF PPU:  0,  0 CYC:20509
C7AD  F0 F9     BEQ $C7A8                       A:00 X:FF Y:00 P:26 SP:FF PPU:  0,  0 CYC:20511
C7A8  AD 02 20  LDA $2002 = 00                  A:00 X:FF Y:00 P:26 SP:FF PPU:  0,  0 CYC:20514
C7AB  29 80     AND #$80                        A:00 X:FF Y:00 P:26 SP:FF PPU:  0,  0 CYC:20518
C7AD  F0 F9     BEQ $C7A8                       A:00 X:FF Y:00 P:26 SP:FF PPU:  0,  0 CYC:20520
C7A8  AD 02 20  LDA $2002 = 00                  A:00 X:FF Y:00 P:26 SP:FF PPU:  0,  0 CYC:20523
C7AB  29 80     AND #$80                        A:00 X:FF Y:00 P:26 SP:FF PPU:  0,  0 CYC:20527
C7AD  F0 F9     BEQ $C7A8                       A:00 X:FF Y:00 P:26 SP:FF PPU:  0,  0 CYC:20529
C7A8  AD 02 20  LDA $2002 = 00                  A:00 X:FF Y:00 P:26 SP:FF PPU:  0,  0 CYC:20532
C7AB  29 80     AND #$80                        A:00 X:FF Y:00 P:26 SP:FF PPU:  0,  0 CYC:20536
C7AD  F0 F9     BEQ $C7A8                       A:00 X:FF Y:00 P:26 SP:FF PPU:  0,  0 CYC:20538
C7A8  AD 02 20  LDA $2002 = 00                  A:00 X:FF Y:00 P:26 SP:FF PPU:  0,  0 CYC:20541
C7AB  29 80     AND #$80                        A:00 X:FF Y:00 P:26 SP:FF PPU:  0,  0 CYC:20545
C7AD  F0 F9     BEQ $C7A8                       A:00 X:FF Y:00 P:26 SP:FF PPU:  0,  0 CYC:20547
C7A8  AD 02 20  LDA $2002 = 00                  A:00 X:FF Y:00 P:26 SP:FF PPU:  0,  0 CYC:20550
C7AB  29 80     AND #$80                        A:00 X:FF Y:00 P:26 SP:FF PPU:  0,  0 CYC:20554
C7AD  F0 F9     BEQ $C7A8                       A:00 X:FF Y:00 P:26 SP:FF PPU:  0,  0 CYC:20556
C7A8  AD 02 20  LDA $2002 = 00                  A:00 X:FF Y:00 P:26 SP:FF PPU:  0,  0 CYC:20559
C7AB  29 80     AND #$80                        A:00 X:FF Y:00 P:26 SP:FF PPU:  0,  0 CYC:20563
C7AD  F0 F9     BEQ $C7A8                       A:00 X:FF Y:00 P:26 SP:FF PPU:  0,  0 CYC:20565
C7A8  AD 02 20  LDA $2002 = 00                  A:00 X:FF Y:00 P:26 SP:FF PPU:  0,  0 CYC:20568
C7AB  29 80     AND #$80                        A:00 X:FF Y:00 P:26 SP:FF PPU:  0,  0 CYC:20572
C7AD  F0 F9     BEQ $C7A8                       A:00 X:FF Y:00 P:26 SP:FF PPU:  0,  0 CYC:20574
C7A8  AD 02 20  LDA $2002 = 00                  A:00 X:FF Y:00 P:26 SP:FF PPU:  0,  0 CYC:20577
C7AB  29 80     AND #$80                        A:00 X:FF Y:00 P:26 SP:FF PPU:  0,  0 CYC:20581
C7AD  F0 F9     BEQ $C7A8                       A:00 X:FF Y:00 P:26 SP:FF PPU:  0,  0 CYC:20583
C7A8  AD 02 20  LDA $2002 = 00                  A:00 X:FF Y:00 P:26 SP:FF PPU:  0,  0 CYC:20586
C7AB  29 80     AND #$80                        A:00 X:FF Y:00 P:26 SP:FF PPU:  0,  0 CYC:20590
C7AD  F0 F9     BEQ $C7A8                       A:00 X:FF Y:00 P:26 SP:FF PPU:  0,  0 CYC:20592
C7A8  AD 02 20  LDA $2002 = 00                  A:00 X:FF Y:00 P:26 SP:FF PPU:  0,  0 CYC:20595
C7AB  29 80     AND #$80                        A:00 X:FF Y:00 P:26 SP:FF PPU:  0,  0 CYC:20599
C7AD  F0 F9     BEQ $C7A8                       A:00 X:FF Y:00 P:26 SP:FF PPU:  0,  0 CYC:20601
C7A8  AD 02 20  LDA $2002 = 00                  A:00 X:FF Y:00 P:26 SP:FF PPU:  0,  0 CYC:20604
C7AB  29 80     AND #$80                        A:00 X:FF Y:00 P:26 SP:FF PPU:  0,  0 CYC:20608
C7AD  F0 F9     BEQ $C7A8                       A:00 X:FF Y:00 P:26 SP:FF PPU:  0,  0 CYC:20610
C7A8  AD 02 20  LDA $2002 = 00                  A:00 X:FF Y:00 P:26 SP:FF PPU:  0,  0 CYC:20613
C7AB  29 80     AND #$80                        A:00 X:FF Y:00 P:26 SP:FF PPU:  0,  0 CYC:20617
C7AD  F0 F9     BEQ $C7A8                       A:00 X:FF Y:00 P:26 SP:FF PPU:  0,  0 CYC:20619
C7A8  AD 02 20  LDA $2002 = 00                  A:00 X:FF Y:00 P:26 SP:FF PPU:  0,  0 CYC:20622
C7AB  29 80     AND #$80                        A:00 X:FF Y:00 P:26 SP:FF PPU:  0,  0 CYC:20626
C7AD  F0 F9     BEQ $C7A8                       A:00 X:FF Y:00 P:26 SP:FF PPU:  0,  0 CYC:20628
C7A8  AD 02 20  LDA $2002 = 00                  A:00 X:FF Y:00 P:26 SP:FF PPU:  0,  0 CYC:20631
C7AB  29 80     AND #$80                        A:00 X:FF Y:00 P:26 SP:FF PPU:  0,  0 CYC:20635
C7AD  F0 F9     BEQ $C7A8                       A:00 X:FF Y:00 P:26 SP:FF PPU:  0,  0 CYC:20637
C7A8  AD 02 20  LDA $2002 = 00                  A:00 X:FF Y:00 P:26 SP:FF PPU:  0,  0 CYC:20640
C7AB  29 80     AND #$80                        A:00 X:FF Y:00 P:26 SP:FF PPU:  0,  0 CYC:20644
C7AD  F0 F9     BEQ $C7A8                       A:00 X:FF Y:00 P:26 SP:FF PPU:  0,  0 CYC:20646
C7A8  AD 02 20  LDA $2002 = 00                  A:00 X:FF Y:00 P:26 SP:FF PPU:  0,  0 CYC:20649
C7AB  29 80     AND #$80                        A:00 X:FF Y:00 P:26 SP:FF PPU:  0,  0 CYC:20653
C7AD  F0 F9     BEQ $C7A8                       A:00 X:FF Y:00 P:26 SP:FF PPU:  0,  0 CYC:20655
C7A8  AD 02 20  LDA $2002 = 00                  A:00 X:FF Y:00 P:26 SP:FF PPU:  0,  0 CYC:20658
C7AB  29 80     AND #$80                        A:00 X:FF Y:00 P:26 SP:FF PPU:  0,  0 CYC:20662
C7AD  F0 F9     BEQ $C7A8                       A:00 X:FF Y:00 P:26 SP:FF PPU:  0,  0 CYC:20664
C7A8  AD 02 20  LDA $2002 = 00                  A:00 X:FF Y:00 P:26 SP:FF PPU:  0,  0 CYC:20667
C7AB  29 80     AND #$80                        A:00 X:FF Y:00 P:26 SP:FF PPU:  0,  0 CYC:20671
C7AD  F0 F9     BEQ $C7A8                       A:00 X:FF Y:00 P:26 SP:FF PPU:  0,  0 CYC:20673
C7A8  AD 02 20  LDA $2002 = 00                  A:00 X:FF Y:00 P:26 SP:FF PPU:  0,  0 CYC:20676
C7AB  29 80     AND #$80                        A:00 X:FF Y:00 P:26 SP:FF PPU:  0,  0 CYC:20680
C7AD  F0 F9     BEQ $C7A8                       A:00 X:FF Y:00 P:26 SP:FF PPU:  0,  0 CYC:20682
C7A8  AD 02 20  LDA $2002 = 00                  A:00 X:FF Y:00 P:26 SP:FF PPU:  0,  0 CYC:20685
C7AB  29 80     AND #$80                        A:00 X:FF Y:00 P:26 SP:FF PPU:  0,  0 CYC:20689
C7AD  F0 F9     BEQ $C7A8                       A:00 X:FF Y:00 P:26 SP:FF PPU:  0,  0 CYC:20691
C7A8  AD 02 20  LDA $2002 = 00                  A:00 X:FF Y:00 P:26 SP:FF PPU:  0,  0 CYC:20694
C7AB  29 80     AND #$80                        A:00 X:FF Y:00 P:26 SP:FF PPU:  0,  0 CYC:20698
C7AD  F0 F9     BEQ $C7A8                       A:00 X:FF Y:00 P:26 SP:FF PPU:  0,  0 CYC:20700
C7A8  AD 02 20  LDA $2002 = 00                  A:00 X:FF Y:00 P:26 SP:FF PPU:  0,  0 CYC:20703
C7AB  29 80     AND #$80                        A:00 X:FF Y:00 P:26 SP:FF PPU:  0,  0 CYC:20707
C7AD  F0 F9     BEQ $C7A8                       A:00 X:FF Y:00 P:26 SP:FF PPU:  0,  0 CYC:20709
C7A8  AD 02 20  LDA $2002 = 00                  A:00 X:FF Y:00 P:26 SP:FF PPU:  0,  0 CYC:20712
C7AB  29 80     AND #$80                        A:00 X:FF Y:00 P:26 SP:FF PPU:  0,  0 CYC:20716
C7AD  F0 F9     BEQ $C7A8                       A:00 X:FF Y:00 P:26 SP:FF PPU:  0,  0 CYC:20718
C7A8  AD 02 20  LDA $2002 = 00                  A:00 X:FF Y:00 P:26 SP:FF PPU:  0,  0 CYC:20721
C7AB  29 80     AND #$80                        A:00 X:FF Y:00 P:26 SP:FF PPU:  0,  0 CYC:20725
C7AD  F0 F9     BEQ $C7A8                       A:00 X:FF Y:00 P:26 SP:FF PPU:  0,  0 CYC:20727
C7A8  AD 02 20  LDA $2002 = 00                  A:00 X:FF Y:00 P:26 SP:FF PPU:  0,  0 CYC:20730
C7AB  29 80     AND #$80                        A:00 X:FF Y:00 P:26 SP:FF PPU:  0,  0 CYC:20734
C7AD  F0 F9     BEQ $C7A8                       A:00 X:FF Y:00 P:26 SP:FF PPU:  0,  0 CYC:20736
C7A8  AD 02 20  LDA $2002 = 00                  A:00 X:FF Y:00 P:26 SP:FF PPU:  0,  0 CYC:20739
C7AB  29 80     AND #$80                        A:00 X:FF Y:00 P:26 SP:FF PPU:  0,  0 CYC:20743
C7AD  F0 F9     BEQ $C7A8                       A:00 X:FF Y:00 P:26 SP:FF PPU:  0,  0 CYC:20745
C7A8  AD 02 20  LDA $2002 = 00                  A:00 X:FF Y:00 P:26 SP:FF PPU:  0,  0 CYC:20748
C7AB  29 80     AND #$80                        A:00 X:FF Y:00 P:26 SP:FF PPU:  0,  0 CYC:20752
C7AD  F0 F9     BEQ $C7A8                       A:00 X:FF Y:00 P:26 SP:FF PPU:  0,  0 CYC:20754
C7A8  AD 02 20  LDA $2002 = 00                  A:00 X:FF Y:00 P:26 SP:FF PPU:  0,  0 CYC:20757
C7AB  29 80     AND #$80                        A:00 X:FF Y:00 P:26 SP:FF PPU:  0,  0 CYC:20761
C7AD  F0 F9     BEQ $C7A8                       A:00 X:FF Y:00 P:26 SP:FF PPU:  0,  0 CYC:20763
C7A8  AD 02 20  LDA $2002 = 00                  A:00 X:FF Y:00 P:26 SP:FF PPU:  0,  0 CYC:20766
C7AB  29 80     AND #$80                        A:00 X:FF Y:00 P:26 SP:FF PPU:  0,  0 CYC:20770
C7AD  F0 F9     BEQ $C7A8                       A:00 X:FF Y:00 P:26 SP:FF PPU:  0,  0 CYC:20772
C7A8  AD 02 20  LDA $2002 = 00                  A:00 X:FF Y:00 P:26 SP:FF PPU:  0,  0 CYC:20775
C7AB  29 80     AND #$80                        A:00 X:FF Y:00 P:26 SP:FF PPU:  0,  0 CYC:20779
C7AD  F0 F9     BEQ $C7A8                       A:00 X:FF Y:00 P:26 SP:FF PPU:  0,  0 CYC:20781
C7A8  AD 02 20  LDA $2002 = 00                  A:00 X:FF Y:00 P:26 SP:FF PPU:  0,  0 CYC:20784
C7AB  29 80     AND #$80                        A:00 X:FF Y:00 P:26 SP:FF PPU:  0,  0 CYC:20788
C7AD  F0 F9     BEQ $C7A8                       A:00 X:FF Y:00 P:26 SP:FF PPU:  0,  0 CYC:20790
C7A8  AD 02 20  LDA $2002 = 00                  A:00 X:FF Y:00 P:26 SP:FF PPU:  0,  0 CYC:20793
C7AB  29 80     AND #$80                        A:00 X:FF Y:00 P:26 SP:FF PPU:  0,  0 CYC:20797
C7AD  F0 F9     BEQ $C7A8                       A:00 X:FF Y:00 P:26 SP:FF PPU:  0,  0 CYC:20799
C7A8  AD 02 20  LDA $2002 = 00                  A:00 X:FF Y:00 P:26 SP:FF PPU:  0,  0 CYC:20802
C7AB  29 80     AND #$80                        A:00 X:FF Y:00 P:26 SP:FF PPU:  0,  0 CYC:20806
C7AD  F0 F9     BEQ $C7A8                       A:00 X:FF Y:00 P:26 SP:FF PPU:  0,  0 CYC:20808
C7A8  AD 02 20  LDA $2002 = 00                  A:00 X:FF Y:00 P:26 SP:FF PPU:  0,  0 CYC:20811
C7AB  29 80     AND #$80                        A:00 X:FF Y:00 P:26 SP:FF PPU:  0,  0 CYC:20815
C7AD  F0 F9     BEQ $C7A8                       A:00 X:FF Y:00 P:26 SP:FF PPU:  0,  0 CYC:20817
C7A8  AD 02 20  LDA $2002 = 00                  A:00 X:FF Y:00 P:26 SP:FF PPU:  0,  0 CYC:20820
C7AB  29 80     AND #$80                        A:00 X:FF Y:00 P:26 SP:FF PPU:  0,  0 CYC:20824
C7AD  F0 F9     BEQ $C7A8                       A:00 X:FF Y:00 P:26 SP:FF PPU:  0,  0 CYC:20826
C7A8  AD 02 20  LDA $2002 = 00                  A:00 X:FF Y:00 P:26 SP:FF PPU:  0,  0 CYC:20829
C7AB  29 80     AND #$80                        A:00 X:FF Y:00 P:26 SP:FF PPU:  0,  0 CYC:20833
C7AD  F0 F9     BEQ $C7A8                       A:00 X:FF Y:00 P:26 SP:FF PPU:  0,  0 CYC:20835
C7A8  AD 02 20  LDA $2002 = 00                  A:00 X:FF Y:00 P:26 SP:FF PPU:  0,  0 CYC:20838
C7AB  29 80     AND #$80                        A:00 X:FF Y:00 P:26 SP:FF PPU:  0,  0 CYC:20842
C7AD  F0 F9     BEQ $C7A8                       A:00 X:FF Y:00 P:26 SP:FF PPU:  0,  0 CYC:20844
C7A8  AD 02 20  LDA $2002 = 00                  A:00 X:FF Y:00 P:26 SP:FF PPU:  0,  0 CYC:20847
C7AB  29 80     AND #$80                        A:00 X:FF Y:00 P:26 SP:FF PPU:  0,  0 CYC:20851
C7AD  F0 F9     BEQ $C7A8                       A:00 X:FF Y:00 P:26 SP:FF PPU:  0,  0 CYC:20853
C7A8  AD 02 20  LDA $2002 = 00                  A:00 X:FF Y:00 P:26 SP:FF PPU:  0,  0 CYC:20856
C7AB  29 80     AND #$80                        A:00 X:FF Y:00 P:26 SP:FF PPU:  0,  0 CYC:20860
C7AD  F0 F9     BEQ $C7A8                       A:00 X:FF Y:00 P:26 SP:FF PPU:  0,  0 CYC:20862
C7A8  AD 02 20  LDA $2002 = 00                  A:00 X:FF Y:00 P:26 SP:FF PPU:  0,  0 CYC:20865
C7AB  29 80     AND #$80                        A:00 X:FF Y:00 P:26 SP:FF PPU:  0,  0 CYC:20869
C7AD  F0 F9     BEQ $C7A8                       A:00 X:FF Y:00 P:26 SP:FF PPU:  0,  0 CYC:20871
C7A8  AD 02 20  LDA $2002 = 00                  A:00 X:FF Y:00 P:26 SP:FF PPU:  0,  0 CYC:20874
C7AB  29 80     AND #$80                        A:00 X:FF Y:00 P:26 SP:FF PPU:  0,  0 CYC:20878
C7AD  F0 F9     BEQ $C7A8                       A:00 X:FF Y:00 P:26 SP:FF PPU:  0,  0 CYC:20880
C7A8  AD 02 20  LDA $2002 = 00                  A:00 X:FF Y:00 P:26 SP:FF PPU:  0,  0 CYC:20883
C7AB  29 80     AND #$80                        A:00 X:FF Y:00 P:26 SP:FF PPU:  0,  0 CYC:20887
C7AD  F0 F9     BEQ $C7A8                       A:00 X:FF Y:00 P:26 SP:FF PPU:  0,  0 CYC:20889
C7A8  AD 02 20  LDA $2002 = 00                  A:00 X:FF Y:00 P:26 SP:FF PPU:  0,  0 CYC:20892
C7AB  29 80     AND #$80                        A:00 X:FF Y:00 P:26 SP:FF PPU:  0,  0 CYC:20896
C7AD  F0 F9     BEQ $C7A8                       A:00 X:FF Y:00 P:26 SP:FF PPU:  0,  0 CYC:20898
C7A8  AD 02 20  LDA $2002 = 00                  A:00 X:FF Y:00 P:26 SP:FF PPU:  0,  0 CYC:20901
C7AB  29 80     AND #$80                        A:00 X:FF Y:00 P:26 SP:FF PPU:  0,  0 CYC:20905
C7AD  F0 F9     BEQ $C7A8                       A:00 X:FF Y:00 P:26 SP:FF PPU:  0,  0 CYC:20907
C7A8  AD 02 20  LDA $2002 = 00                  A:00 X:FF Y:00 P:26 SP:FF PPU:  0,  0 CYC:20910
C7AB  29 80     AND #$80                        A:00 X:FF Y:00 P:26 SP:FF PPU:  0,  0 CYC:20914
C7AD  F0 F9     BEQ $C7A8                       A:00 X:FF Y:00 P:26 SP:FF PPU:  0,  0 CYC:20916
C7A8  AD 02 20  LDA $2002 = 00                  A:00 X:FF Y:00 P:26 SP:FF PPU:  0,  0 CYC:20919
C7AB  29 80     AND #$80                        A:00 X:FF Y:00 P:26 SP:FF PPU:  0,  0 CYC:20923
C7AD  F0 F9     BEQ $C7A8                       A:00 X:FF Y:00 P:26 SP:FF PPU:  0,  0 CYC:20925
C7A8  AD 02 20  LDA $2002 = 00                  A:00 X:FF Y:00 P:26 SP:FF PPU:  0,  0 CYC:20928
C7AB  29 80     AND #$80                        A:00 X:FF Y:00 P:26 SP:FF PPU:  0,  0 CYC:20932
C7AD  F0 F9     BEQ $C7A8                       A:00 X:FF Y:00 P:26 SP:FF PPU:  0,  0 CYC:20934
C7A8  AD 02 20  LDA $2002 = 00                  A:00 X:FF Y:00 P:26 SP:FF PPU:  0,  0 CYC:20937
C7AB  29 80     AND #$80                        A:00 X:FF Y:00 P:26 SP:FF PPU:  0,  0 CYC:20941
C7AD  F0 F9     BEQ $C7A8                       A:00 X:FF Y:00 P:26 SP:FF PPU:  0,  0 CYC:20943
C7A8  AD 02 20  LDA $2002 = 00                  A:00 X:FF Y:00 P:26 SP:FF PPU:  0,  0 CYC:20946
C7AB  29 80     AND #$80                        A:00 X:FF Y:00 P:26 SP:FF PPU:  0,  0 CYC:20950
C7AD  F0 F9     BEQ $C7A8                       A:00 X:FF Y:00 P:26 SP:FF PPU:  0,  0 CYC:20952
C7A8  AD 02 20  LDA $2002 = 00                  A:00 X:FF Y:00 P:26 SP:FF PPU:  0,  0 CYC:20955
C7AB  29 80     AND #$80                        A:00 X:FF Y:00 P:26 SP:FF PPU:  0,  0 CYC:20959
C7AD  F0 F9     BEQ $C7A8                       A:00 X:FF Y:00 P:26 SP:FF PPU:  0,  0 CYC:20961
C7A8  AD 02 20  LDA $2002 = 00                  A:00 X:FF Y:00 P:26 SP:FF PPU:  0,  0 CYC:20964
C7AB  29 80     AND #$80                        A:00 X:FF Y:00 P:26 SP:FF PPU:  0,  0 CYC:20968
C7AD  F0 F9     BEQ $C7A8                       A:00 X:FF Y:00 P:26 SP:FF PPU:  0,  0 CYC:20970
C7A8  AD 02 20  LDA $2002 = 00                  A:00 X:FF Y:00 P:26 SP:FF PPU:  0,  0 CYC:20973
C7AB  29 80     AND #$80                        A:00 X:FF Y:00 P:26 SP:FF PPU:  0,  0 CYC:20977
C7AD  F0 F9     BEQ $C7A8                       A:00 X:FF Y:00 P:26 SP:FF PPU:  0,  0 CYC:20979
C7A8  AD 02 20  LDA $2002 = 00                  A:00 X:FF Y:00 P:26 SP:FF PPU:  0,  0 CYC:20982
C7AB  29 80     AND #$80                        A:00 X:FF Y:00 P:26 SP:FF PPU:  0,  0 CYC:20986
C7AD  F0 F9     BEQ $C7A8                       A:00 X:FF Y:00 P:26 SP:FF PPU:  0,  0 CYC:20988
C7A8  AD 02 20  LDA $2002 = 00                  A:00 X:FF Y:00 P:26 SP:FF PPU:  0,  0 CYC:20991
C7AB  29 80     AND #$80                        A:00 X:FF Y:00 P:26 SP:FF PPU:  0,  0 CYC:20995
C7AD  F0 F9     BEQ $C7A8                       A:00 X:FF Y:00 P:26 SP:FF PPU:  0,  0 CYC:20997
C7A8  AD 02 20  LDA $2002 = 00                  A:00 X:FF Y:00 P:26 SP:FF PPU:  0,  0 CYC:21000
C7AB  29 80     AND #$80                        A:00 X:FF Y:00 P:26 SP:FF PPU:  0,  0 CYC:21004
C7AD  F0 F9     BEQ $C7A8                       A:00 X:FF Y:00 P:26 SP:FF PPU:  0,  0 CYC:21006
C7A8  AD 02 20  LDA $2002 = 00                  A:00 X:FF Y:00 P:26 SP:FF PPU:  0,  0 CYC:21009
C7AB  29 80     AND #$80                        A:00 X:FF Y:00 P:26 SP:FF PPU:  0,  0 CYC:21013
C7AD  F0 F9     BEQ $C7A8                       A:00 X:FF Y:00 P:26 SP:FF PPU:  0,  0 CYC:21015
C7A8  AD 02 20  LDA $2002 = 00                  A:00 X:FF Y:00 P:26 SP:FF PPU:  0,  0 CYC:21018
C7AB  29 80     AND #$80                        A:00 X:FF Y:00 P:26 SP:FF PPU:  0,  0 CYC:21022
C7AD  F0 F9     BEQ $C7A8                       A:00 X:FF Y:00 P:26 SP:FF PPU:  0,  0 CYC:21024
C7A8  AD 02 20  LDA $2002 = 00                  A:00 X:FF Y:00 P:26 SP:FF PPU:  0,  0 CYC:21027
C7AB  29 80     AND #$80                        A:00 X:FF Y:00 P:26 SP:FF PPU:  0,  0 CYC:21031
C7AD  F0 F9     BEQ $C7A8                       A:00 X:FF Y:00 P:26 SP:FF PPU:  0,  0 CYC:21033
C7A8  AD 02 20  LDA $2002 = 00                  A:00 X:FF Y:00 P:26 SP:FF PPU:  0,  0 CYC:21036
C7AB  29 80     AND #$80                        A:00 X:FF Y:00 P:26 SP:FF PPU:  0,  0 CYC:21040
C7AD  F0 F9     BEQ $C7A8                       A:00 X:FF Y:00 P:26 SP:FF PPU:  0,  0 CYC:21042
C7A8  AD 02 20  LDA $2002 = 00                  A:00 X:FF Y:00 P:26 SP:FF PPU:  0,  0 CYC:21045
C7AB  29 80     AND #$80                        A:00 X:FF Y:00 P:26 SP:FF PPU:  0,  0 CYC:21049
C7AD  F0 F9     BEQ $C7A8                       A:00 X:FF Y:00 P:26 SP:FF PPU:  0,  0 CYC:21051
C7A8  AD 02 20  LDA $2002 = 00                  A:00 X:FF Y:00 P:26 SP:FF PPU:  0,  0 CYC:21054
C7AB  29 80     AND #$80                        A:00 X:FF Y:00 P:26 SP:FF PPU:  0,  0 CYC:21058
C7AD  F0 F9     BEQ $C7A8                       A:00 X:FF Y:00 P:26 SP:FF PPU:  0,  0 CYC:21060
C7A8  AD 02 20  LDA $2002 = 00                  A:00 X:FF Y:00 P:26 SP:FF PPU:  0,  0 CYC:21063
C7AB  29 80     AND #$80                        A:00 X:FF Y:00 P:26 SP:FF PPU:  0,  0 CYC:21067
C7AD  F0 F9     BEQ $C7A8                       A:00 X:FF Y:00 P:26 SP:FF PPU:  0,  0 CYC:21069
C7A8  AD 02 20  LDA $2002 = 00                  A:00 X:FF Y:00 P:26 SP:FF PPU:  0,  0 CYC:21072
C7AB  29 80     AND #$80                        A:00 X:FF Y:00 P:26 SP:FF PPU:  0,  0 CYC:21076
C7AD  F0 F9     BEQ $C7A8                       A:00 X:FF Y:00 P:26 SP:FF PPU:  0,  0 CYC:21078
C7A8  AD 02 20  LDA $2002 = 00                  A:00 X:FF Y:00 P:26 SP:FF PPU:  0,  0 CYC:21081
C7AB  29 80     AND #$80                        A:00 X:FF Y:00 P:26 SP:FF PPU:  0,  0 CYC:21085
C7AD  F0 F9     BEQ $C7A8                       A:00 X:FF Y:00 P:26 SP:FF PPU:  0,  0 CYC:21087
C7A8  AD 02 20  LDA $2002 = 00                  A:00 X:FF Y:00 P:26 SP:FF PPU:  0,  0 CYC:21090
C7AB  29 80     AND #$80                        A:00 X:FF Y:00 P:26 SP:FF PPU:  0,  0 CYC:21094
C7AD  F0 F9     BEQ $C7A8                       A:00 X:FF Y:00 P:26 SP:FF PPU:  0,  0 CYC:21096
C7A8  AD 02 20  LDA $2002 = 00                  A:00 X:FF Y:00 P:26 SP:FF PPU:  0,  0 CYC:21099
C7AB  29 80     AND #$80                        A:00 X:FF Y:00 P:26 SP:FF PPU:  0,  0 CYC:21103
C7AD  F0 F9     BEQ $C7A8                       A:00 X:FF Y:00 P:26 SP:FF PPU:  0,  0 CYC:21105
C7A8  AD 02 20  LDA $2002 = 00                  A:00 X:FF Y:00 P:26 SP:FF PPU:  0,  0 CYC:21108
C7AB  29 80     AND #$80                        A:00 X:FF Y:00 P:26 SP:FF PPU:  0,  0 CYC:21112
C7AD  F0 F9     BEQ $C7A8                       A:00 X:FF Y:00 P:26 SP:FF PPU:  0,  0 CYC:21114
C7A8  AD 02 20  LDA $2002 = 00                  A:00 X:FF Y:00 P:26 SP:FF PPU:  0,  0 CYC:21117
C7AB  29 80     AND #$80                        A:00 X:FF Y:00 P:26 SP:FF PPU:  0,  0 CYC:21121
C7AD  F0 F9     BEQ $C7A8                       A:00 X:FF Y:00 P:26 SP:FF PPU:  0,  0 CYC:21123
C7A8  AD 02 20  LDA $2002 = 00                  A:00 X:FF Y:00 P:26 SP:FF PPU:  0,  0 CYC:21126
C7AB  29 80     AND #$80                        A:00 X:FF Y:00 P:26 SP:FF PPU:  0,  0 CYC:21130
C7AD  F0 F9     BEQ $C7A8                       A:00 X:FF Y:00 P:26 SP:FF PPU:  0,  0 CYC:21132
C7A8  AD 02 20  LDA $2002 = 00                  A:00 X:FF Y:00 P:26 SP:FF PPU:  0,  0 CYC:21135
C7AB  29 80     AND #$80                        A:00 X:FF Y:00 P:26 SP:FF PPU:  0,  0 CYC:21139
C7AD  F0 F9     BEQ $C7A8                       A:00 X:FF Y:00 P:26 SP:FF PPU:  0,  0 CYC:21141
C7A8  AD 02 20  LDA $2002 = 00                  A:00 X:FF Y:00 P:26 SP:FF PPU:  0,  0 CYC:21144
C7AB  29 80     AND #$80                        A:00 X:FF Y:00 P:26 SP:FF PPU:  0,  0 CYC:21148
C7AD  F0 F9     BEQ $C7A8                       A:00 X:FF Y:00 P:26 SP:FF PPU:  0,  0 CYC:21150
C7A8  AD 02 20  LDA $2002 = 00                  A:00 X:FF Y:00 P:26 SP:FF PPU:  0,  0 CYC:21153
C7AB  29 80     AND #$80                        A:00 X:FF Y:00 P:26 SP:FF PPU:  0,  0 CYC:21157
C7AD  F0 F9     BEQ $C7A8                       A:00 X:FF Y:00 P:26 SP:FF PPU:  0,  0 CYC:21159
C7A8  AD 02 20  LDA $2002 = 00                  A:00 X:FF Y:00 P:26 SP:FF PPU:  0,  0 CYC:21162
C7AB  29 80     AND #$80                        A:00 X:FF Y:00 P:26 SP:FF PPU:  0,  0 CYC:21166
C7AD  F0 F9     BEQ $C7A8                       A:00 X:FF Y:00 P:26 SP:FF PPU:  0,  0 CYC:21168
C7A8  AD 02 20  LDA $2002 = 00                  A:00 X:FF Y:00 P:26 SP:FF PPU:  0,  0 CYC:21171
C7AB  29 80     AND #$80                        A:00 X:FF Y:00 P:26 SP:FF PPU:  0,  0 CYC:21175
C7AD  F0 F9     BEQ $C7A8                       A:00 X:FF Y:00 P:26 SP:FF PPU:  0,  0 CYC:21177
C7A8  AD 02 20  LDA $2002 = 00                  A:00 X:FF Y:00 P:26 SP:FF PPU:  0,  0 CYC:21180
C7AB  29 80    